 ExtensionSample

 Timestamp is 65b23356 (Thu Jan 25 05:09:26 2024)

 Preferred load address is 0000000180000000

 Start         Length     Name                   Class
 0001:00000000 000000e0H .text$di                CODE
 0001:000000e0 0001e5c0H .text$mn                CODE
 0001:0001e6a0 00000020H .text$mn$00             CODE
 0001:0001e6c0 000016a0H .text$x                 CODE
 0001:0001fd60 000001dfH .text$yd                CODE
 0002:00000000 00003a38H .idata$5                DATA
 0002:00003a38 00000010H .00cfg                  DATA
 0002:00003a48 00000008H .CRT$XCA                DATA
 0002:00003a50 00000018H .CRT$XCL                DATA
 0002:00003a68 00000018H .CRT$XCU                DATA
 0002:00003a80 00000008H .CRT$XCZ                DATA
 0002:00003a88 00000008H .CRT$XIA                DATA
 0002:00003a90 00000008H .CRT$XIC                DATA
 0002:00003a98 00000008H .CRT$XIZ                DATA
 0002:00003aa0 00000008H .CRT$XLA                DATA
 0002:00003aa8 00000008H .CRT$XLZ                DATA
 0002:00003ab0 00000008H .CRT$XPA                DATA
 0002:00003ab8 00000008H .CRT$XPZ                DATA
 0002:00003ac0 00000008H .CRT$XTA                DATA
 0002:00003ac8 00000008H .CRT$XTZ                DATA
 0002:00003ad0 00000000H .gfids$y                DATA
 0002:00003ad0 0000c7c0H .rdata                  DATA
 0002:00010290 00000030H .rdata$T                DATA
 0002:000102c0 00004924H .rdata$r                DATA
 0002:00014be4 0000034cH .rdata$zzzdbg           DATA
 0002:00014f30 00000008H .rtc$IAA                DATA
 0002:00014f38 00000008H .rtc$IZZ                DATA
 0002:00014f40 00000008H .rtc$TAA                DATA
 0002:00014f48 00000008H .rtc$TZZ                DATA
 0002:00014f50 000038e8H .xdata                  DATA
 0002:00018838 00000088H .xdata$x                DATA
 0002:000188c0 00000000H ATL$__a                 DATA
 0002:000188c0 00000000H ATL$__z                 DATA
 0002:000188c0 00000668H .edata                  DATA
 0002:00018f28 0000017cH .idata$2                DATA
 0002:000190a4 00000014H .idata$3                DATA
 0002:000190b8 00003a38H .idata$4                DATA
 0002:0001caf0 00014628H .idata$6                DATA
 0003:00000000 00000040H .data                   DATA
 0003:00000040 00001ab0H .data$r                 DATA
 0003:00001af0 00000d98H .bss                    DATA
 0004:00000000 00001fe0H .pdata                  DATA
 0005:00000000 00000004H .tls                    DATA
 0005:00000004 00000004H .tls$                   DATA
 0005:00000008 00000001H .tls$ZZZ                DATA
 0006:00000000 000000a0H .rsrc$01                DATA
 0006:000000a0 000004e8H .rsrc$02                DATA

  Address         Publics by Value              Rva+Base               Lib:Object

 0000:00000000       __dynamic_value_reloc_table 0000000000000000     <absolute>
 0000:00000000       __guard_iat_count          0000000000000000     <absolute>
 0000:00000000       __guard_iat_table          0000000000000000     <absolute>
 0000:00000000       __guard_fids_count         0000000000000000     <absolute>
 0000:00000000       __guard_longjmp_table      0000000000000000     <absolute>
 0000:00000000       ___safe_se_handler_table   0000000000000000     <absolute>
 0000:00000000       __guard_longjmp_count      0000000000000000     <absolute>
 0000:00000000       ___safe_se_handler_count   0000000000000000     <absolute>
 0000:00000000       __guard_fids_table         0000000000000000     <absolute>
 0000:00000100       __guard_flags              0000000000000100     <absolute>
 0000:00000000       __ImageBase                0000000180000000     <linker-defined>
 0001:000000e0       ?Entering@BaseDialogSetting@@UEAAXXZ 00000001800010e0 f   BaseDialogSetting.obj
 0001:000000f0       ?Dump@CObject@@UEBAXAEAVCDumpContext@@@Z 00000001800010f0 f i BaseDialogSettingAccount.obj
 0001:000000f0       ?ValueChanged@?$NumberTypeSpin@H@@MEBAXXZ 00000001800010f0 f i BaseDialogValue.obj
 0001:000000f0       ??3@YAXPEAX0@Z             00000001800010f0 f i ExtensionDerivedConfig.obj
 0001:000000f0       ?OptionValuesChanged@BaseSampleDialogSettingOption@@MEAAXXZ 00000001800010f0 f i BaseSampleDialogSettingOption.obj
 0001:000000f0       MarketSorterNotifyPrefixChanged 00000001800010f0 f i ExtensionSample.obj
 0001:000000f0       MarketSorterNotifyRemoved  00000001800010f0 f i ExtensionSample.obj
 0001:000000f0       NotifyMarketSorterSymbol   00000001800010f0 f i ExtensionSample.obj
 0001:000000f0       ?SymbolEmptyChanged@BaseSampleDialogSettingSymbol@@MEAAXXZ 00000001800010f0 f i BaseSampleDialogSettingOption.obj
 0001:000000f0       SymbolEnteredInMmBox       00000001800010f0 f i ExtensionSample.obj
 0001:000000f0       ActiveMmBoxChanged         00000001800010f0 f i ExtensionSample.obj
 0001:000000f0       MarketSorterContentsDone   00000001800010f0 f i ExtensionSample.obj
 0001:000000f0       MarketSorterNotifyAllRowsRemoved 00000001800010f0 f i ExtensionSample.obj
 0001:000000f0       SecurityRefreshed          00000001800010f0 f i ExtensionSample.obj
 0001:000000f0       KeyStrokeAndCommand        00000001800010f0 f i ExtensionSample.obj
 0001:000000f0       ?Copy@RingVectorBaseItem@@UEAAXAEBV1@@Z 00000001800010f0 f i SampleDialogSettingTestRequest.obj
 0001:000000f0       ?OnHistoryLoaded@BaseDialogSettingAccount@@MEAAXXZ 00000001800010f0 f i BaseDialogSettingAccount.obj
 0001:000000f0       ?DoDataExchange@CWnd@@MEAAXPEAVCDataExchange@@@Z 00000001800010f0 f i BaseDialogSettingAccount.obj
 0001:000000f0       ?LineSelected@MyMarketSorter@@MEAAXXZ 00000001800010f0 f i MyMarketSorter.obj
 0001:000000f0       MarketSorterNotifyAdded    00000001800010f0 f i ExtensionSample.obj
 0001:000000f0       ?AssertValid@CObject@@UEBAXXZ 00000001800010f0 f i BaseDialogSettingAccount.obj
 0001:000000f0       MarketSorterContents       00000001800010f0 f i ExtensionSample.obj
 0001:000000f0       ?Serialize@CObject@@UEAAXAEAVCArchive@@@Z 00000001800010f0 f i BaseDialogSettingAccount.obj
 0001:000000f0       ?LineSelected@StockComparator@@MEAAXXZ 00000001800010f0 f i StockComparator.obj
 0001:000000f0       CommandWindowRemoved       00000001800010f0 f i ExtensionSample.obj
 0001:000000f0       ??1?$_String_alloc@U?$_String_base_types@DV?$allocator@D@std@@@std@@@std@@QEAA@XZ 00000001800010f0 f i BaseDialogSettingAccount.obj
 0001:000000f0       ?__global_delete@@YAXPEAX_K@Z 00000001800010f0 f i * CIL library *:* CIL module *
 0001:000000f0       NextDayStarted             00000001800010f0 f i ExtensionSample.obj
 0001:000000f0       ?AccountChanged@BaseDialogSettingAccount@@MEAAXXZ 00000001800010f0 f i BaseDialogSettingAccount.obj
 0001:000000f0       MainThreadAvailableDataProcessed 00000001800010f0 f i ExtensionSample.obj
 0001:000000f0       ?OnExecutorConnected@BaseDialogSettingAccount@@MEAAXXZ 00000001800010f0 f i BaseDialogSettingAccount.obj
 0001:000000f0       LayoutChanged              00000001800010f0 f i ExtensionSample.obj
 0001:000000f0       ?AddDoubleClickActionMenuItems@MyMarketSorter@@MEAAXAEAVCMenu@@@Z 00000001800010f0 f i MyMarketSorter.obj
 0001:000000f0       _guard_check_icall_nop     00000001800010f0 f i msvcrt:guard_support.obj
 0001:000000f0       ?__empty_global_delete@@YAXPEAX_K@Z 00000001800010f0 f i BaseDialogSetting.obj
 0001:00000100       ??_EBaseDialogSetting@@UEAAPEAXI@Z 0000000180001100 f i * CIL library *:* CIL module *
 0001:00000100       ??_GBaseDialogSetting@@UEAAPEAXI@Z 0000000180001100 f i BaseDialogSettingAccount.obj
 0001:00000150       ??1BaseDialogSetting@@UEAA@XZ 0000000180001150 f i BaseDialogSettingAccount.obj
 0001:00000160       ?GetFirstTabControl@BaseDialogSettingAccount@@UEBAPEAUHWND__@@XZ 0000000180001160 f i BaseDialogSettingAccount.obj
 0001:00000170       ?_AfxInitManaged@@YAHXZ    0000000180001170 f i stdafx.obj
 0001:00000170       ?GetAccountIdSetting@BaseDialogSettingAccount@@UEAAPEAVStringSetting@@XZ 0000000180001170 f i BaseDialogSettingAccount.obj
 0001:00000170       _is_c_termination_complete 0000000180001170 f i msvcrt:ucrt_stubs.obj
 0001:00000170       ?GetApplicationRestartFlags@CWinApp@@UEAAKXZ 0000000180001170 f i ExtensionSample.obj
 0001:00000170       ?CreateCopy@RingVectorBaseItem@@UEBAPEAV1@XZ 0000000180001170 f i SampleDialogSettingTestRequest.obj
 0001:00000170       ?GetApplicationRecoveryParameter@CWinApp@@UEAAPEAXXZ 0000000180001170 f i ExtensionSample.obj
 0001:00000170       __scrt_stub_for_is_c_termination_complete 0000000180001170 f i msvcrt:ucrt_stubs.obj
 0001:00000180       ?ShouldAddAccountObserver@BaseDialogSettingAccount@@MEBA_NXZ 0000000180001180 f i BaseDialogSettingAccount.obj
 0001:00000180       ?UpdateRowColor@StockComparatorRow@@UEAA_NXZ 0000000180001180 f i StockComparator.obj
 0001:00000180       ExtensionIsDebug           0000000180001180 f i ExtensionSample.obj
 0001:00000180       ?UpdateRowColor@MyMarketSorterRow@@UEAA_NXZ 0000000180001180 f i MyMarketSorter.obj
 0001:00000180       MainThreadIdleState        0000000180001180 f i ExtensionSample.obj
 0001:00000190       ??0BaseDialogSettingAccount@@IEAA@PEAVTakionMainWnd@@PEAVTakionSettingTabDialog@@_NPEBD2HH@Z 0000000180001190 f   BaseDialogSettingAccount.obj
 0001:00000370       ??_EBaseDialogSettingAccount@@UEAAPEAXI@Z 0000000180001370 f i * CIL library *:* CIL module *
 0001:00000370       ??_GBaseDialogSettingAccount@@UEAAPEAXI@Z 0000000180001370 f i BaseDialogSettingAccount.obj
 0001:000003e0       ??1BaseDialogSettingAccount@@UEAA@XZ 00000001800013e0 f i BaseDialogSettingAccount.obj
 0001:00000420       ?BeforeDestroy@BaseDialogSettingAccount@@MEAAXXZ 0000000180001420 f   BaseDialogSettingAccount.obj
 0001:000004c0       ?OnInitDialog@BaseDialogSettingAccount@@MEAAHXZ 00000001800014c0 f   BaseDialogSettingAccount.obj
 0001:000005e0       ?RestoreLayout@BaseDialogSettingAccount@@UEAAXXZ 00000001800015e0 f   BaseDialogSettingAccount.obj
 0001:00000630       ?UpdateSettings@BaseDialogSettingAccount@@UEAAXXZ 0000000180001630 f   BaseDialogSettingAccount.obj
 0001:00000740       ?DoDataExchange@BaseDialogSettingAccount@@MEAAXPEAVCDataExchange@@@Z 0000000180001740 f   BaseDialogSettingAccount.obj
 0001:00000770       ?GetMessageMap@BaseDialogSettingAccount@@MEBAPEBUAFX_MSGMAP@@XZ 0000000180001770 f   BaseDialogSettingAccount.obj
 0001:00000780       ?GetThisMessageMap@BaseDialogSettingAccount@@KAPEBUAFX_MSGMAP@@XZ 0000000180001780 f   BaseDialogSettingAccount.obj
 0001:000007f0       ?OnSelchangeAccount@BaseDialogSettingAccount@@IEAAXXZ 00000001800017f0 f   BaseDialogSettingAccount.obj
 0001:000008b0       ?UpdateComboBoxAccount@BaseDialogSettingAccount@@IEAAXXZ 00000001800018b0 f   BaseDialogSettingAccount.obj
 0001:00000910       ?AddAccountObserver@BaseDialogSettingAccount@@MEAAXXZ 0000000180001910 f   BaseDialogSettingAccount.obj
 0001:00000940       ?RemoveAccountObserver@BaseDialogSettingAccount@@MEAAXXZ 0000000180001940 f   BaseDialogSettingAccount.obj
 0001:00000970       ?SetAccount@BaseDialogSettingAccount@@IEAAXPEAVAccount@@@Z 0000000180001970 f   BaseDialogSettingAccount.obj
 0001:000009e0       ?SetAccountId@BaseDialogSettingAccount@@IEAAXPEBD@Z 00000001800019e0 f   BaseDialogSettingAccount.obj
 0001:00000ad0       ?Notify@BaseDialogSettingAccount@@MEAAXPEBVMessage@@PEBVObservable@@0@Z 0000000180001ad0 f   BaseDialogSettingAccount.obj
 0001:00000e80       ??_EBaseDialogSettingAccount@@WFHI@EAAPEAXI@Z 0000000180001e80 f i BaseDialogSettingAccount.obj
 0001:00000e90       ?Create@CDialog@@UEAAHIPEAVCWnd@@@Z 0000000180001e90 f i BaseDialogSettingAccount.obj
 0001:00000ea0       ?EndModalState@CWnd@@UEAAXXZ 0000000180001ea0 f i BaseDialogSettingAccount.obj
 0001:00000eb0       ?BeginModalState@CWnd@@UEAAXXZ 0000000180001eb0 f i BaseDialogSettingAccount.obj
 0001:00000ec0       ?_Xran@?$basic_string@DU?$char_traits@D@std@@V?$allocator@D@2@@std@@SAXXZ 0000000180001ec0 f i BaseDialogSettingAccount.obj
 0001:00000ee0       ?erase@?$basic_string@DU?$char_traits@D@std@@V?$allocator@D@2@@std@@QEAAAEAV12@_K0@Z 0000000180001ee0 f i BaseDialogSettingAccount.obj
 0001:00000f80       ?assign@?$basic_string@DU?$char_traits@D@std@@V?$allocator@D@2@@std@@QEAAAEAV12@AEBV12@_K_K@Z 0000000180001f80 f i BaseDialogSettingAccount.obj
 0001:00001080       ?_Xlen@?$basic_string@DU?$char_traits@D@std@@V?$allocator@D@2@@std@@SAXXZ 0000000180002080 f i BaseDialogSettingAccount.obj
 0001:000010a0       ?_Copy@?$basic_string@DU?$char_traits@D@std@@V?$allocator@D@2@@std@@QEAAX_K@Z 00000001800020a0 f i BaseDialogSettingAccount.obj
 0001:000011d0       ?assign@?$basic_string@DU?$char_traits@D@std@@V?$allocator@D@2@@std@@QEAAAEAV12@QEBD_K@Z 00000001800021d0 f i BaseDialogSettingAccount.obj
 0001:000012d0       ?_Allocate@std@@YAPEAX_K0_N@Z 00000001800022d0 f i BaseDialogSettingAccount.obj
 0001:00001350       ?deallocate@?$_Wrap_alloc@V?$allocator@D@std@@@std@@QEAAXPEAD_K@Z 0000000180002350 f i BaseDialogSettingAccount.obj
 0001:000013b0       ?_Tidy_deallocate@?$basic_string@DU?$char_traits@D@std@@V?$allocator@D@2@@std@@QEAAXXZ 00000001800023b0 f i BaseDialogSettingAccount.obj
 0001:00001430       ??1?$basic_string@DU?$char_traits@D@std@@V?$allocator@D@2@@std@@QEAA@XZ 0000000180002430 f i BaseDialogSettingAccount.obj
 0001:00001440       ??3CObject@@SAXPEAX@Z      0000000180002440 f i BaseDialogSettingAccount.obj
 0001:00001450       ?GetFirstTabControl@BaseDialogValue@@UEBAPEAUHWND__@@XZ 0000000180002450 f i BaseDialogValue.obj
 0001:00001460       ??0BaseDialogValue@@IEAA@PEAVTakionMainWnd@@PEAVCWnd@@_NPEAVTakionFrame@@1@Z 0000000180002460 f   BaseDialogValue.obj
 0001:000017f0       ??_GBaseDialogValue@@UEAAPEAXI@Z 00000001800027f0 f i BaseDialogValue.obj
 0001:000017f0       ??_EDialogSignedPriceValue@@UEAAPEAXI@Z 00000001800027f0 f i * CIL library *:* CIL module *
 0001:000017f0       ??_GDialogSignedPriceValue@@UEAAPEAXI@Z 00000001800027f0 f i DialogSignedPriceValue.obj
 0001:000017f0       ??_EBaseDialogValue@@UEAAPEAXI@Z 00000001800027f0 f i * CIL library *:* CIL module *
 0001:00001860       ??1BaseDialogValue@@UEAA@XZ 0000000180002860 f i BaseDialogValue.obj
 0001:000018a0       ?OnSpinChange@BaseDialogValue@@IEAA_J_K_J@Z 00000001800028a0 f   BaseDialogValue.obj
 0001:00001940       ?DoEnableOkButton@BaseDialogValue@@MEAAX_N@Z 0000000180002940 f   BaseDialogValue.obj
 0001:000019c0       ?isChanged@BaseDialogValue@@UEBA_NXZ 00000001800029c0 f   BaseDialogValue.obj
 0001:000019f0       ?DoReset@BaseDialogValue@@UEAA_NXZ 00000001800029f0 f   BaseDialogValue.obj
 0001:00001a50       ?DoApply@BaseDialogValue@@MEAAXXZ 0000000180002a50 f   BaseDialogValue.obj
 0001:00001a50       ?DoApply@DialogSignedPriceValue@@MEAAXXZ 0000000180002a50 f   DialogSignedPriceValue.obj
 0001:00001aa0       ?GetMessageMap@BaseDialogValue@@MEBAPEBUAFX_MSGMAP@@XZ 0000000180002aa0 f   BaseDialogValue.obj
 0001:00001ab0       ?GetThisMessageMap@BaseDialogValue@@KAPEBUAFX_MSGMAP@@XZ 0000000180002ab0 f   BaseDialogValue.obj
 0001:00001b20       ?DoDataExchange@DialogSignedPriceValue@@MEAAXPEAVCDataExchange@@@Z 0000000180002b20 f   DialogSignedPriceValue.obj
 0001:00001b20       ?DoDataExchange@BaseDialogValue@@MEAAXPEAVCDataExchange@@@Z 0000000180002b20 f   BaseDialogValue.obj
 0001:00001b70       ?SetUpperBoundMultiplier@?$TypedSpinCell@H@@QEAAXH@Z 0000000180002b70 f i BaseDialogValue.obj
 0001:00001bf0       ?AddSpinCell@?$NumberTypeSpin@H@@QEAAXAEBHAEB_N0@Z 0000000180002bf0 f i BaseDialogValue.obj
 0001:00001d60       ??1?$SignedNumberTypeSpin@H@@UEAA@XZ 0000000180002d60 f i BaseDialogValue.obj
 0001:00001d70       ?SetValueExtreme@?$NumberTypeSpin@H@@UEAA_NAEB_N@Z 0000000180002d70 f i BaseDialogValue.obj
 0001:00001da0       ??_E?$NumberTypeSpin@H@@UEAAPEAXI@Z 0000000180002da0 f i * CIL library *:* CIL module *
 0001:00001da0       ??_G?$NumberTypeSpin@H@@UEAAPEAXI@Z 0000000180002da0 f i BaseDialogValue.obj
 0001:00001df0       ??_E?$NumberTypeSpin@H@@WOI@EAAPEAXI@Z 0000000180002df0 f i BaseDialogValue.obj
 0001:00001e00       ?SetDecDigits@?$NumberTypeSpin@H@@UEAA_NE@Z 0000000180002e00 f i BaseDialogValue.obj
 0001:00001ed0       __acrt_uninitialize        0000000180002ed0 f i msvcrt:ucrt_stubs.obj
 0001:00001ed0       __vcrt_thread_attach       0000000180002ed0 f i msvcrt:ucrt_stubs.obj
 0001:00001ed0       __vcrt_uninitialize_critical 0000000180002ed0 f i msvcrt:ucrt_stubs.obj
 0001:00001ed0       ?isSigned@?$SignedNumberTypeSpin@H@@UEBA_NXZ 0000000180002ed0 f i BaseDialogValue.obj
 0001:00001ed0       ?RowFiltersIn@MyMarketSorter@@UEBA_NPEBVRowSortable@@@Z 0000000180002ed0 f i MyMarketSorter.obj
 0001:00001ed0       __scrt_stub_for_acrt_thread_attach 0000000180002ed0 f i msvcrt:ucrt_stubs.obj
 0001:00001ed0       __acrt_uninitialize_critical 0000000180002ed0 f i msvcrt:ucrt_stubs.obj
 0001:00001ed0       __scrt_stub_for_acrt_uninitialize 0000000180002ed0 f i msvcrt:ucrt_stubs.obj
 0001:00001ed0       __acrt_thread_attach       0000000180002ed0 f i msvcrt:ucrt_stubs.obj
 0001:00001ed0       __scrt_stub_for_acrt_thread_detach 0000000180002ed0 f i msvcrt:ucrt_stubs.obj
 0001:00001ed0       __acrt_thread_detach       0000000180002ed0 f i msvcrt:ucrt_stubs.obj
 0001:00001ed0       __scrt_stub_for_acrt_uninitialize_critical 0000000180002ed0 f i msvcrt:ucrt_stubs.obj
 0001:00001ed0       ?isOptionModeUsed@BaseSampleDialogSettingOption@@UEBA_NXZ 0000000180002ed0 f i BaseSampleDialogSettingOption.obj
 0001:00001ed0       __vcrt_uninitialize        0000000180002ed0 f i msvcrt:ucrt_stubs.obj
 0001:00001ed0       __vcrt_initialize          0000000180002ed0 f i msvcrt:ucrt_stubs.obj
 0001:00001ed0       __vcrt_thread_detach       0000000180002ed0 f i msvcrt:ucrt_stubs.obj
 0001:00001ed0       __acrt_initialize          0000000180002ed0 f i msvcrt:ucrt_stubs.obj
 0001:00001ed0       __scrt_stub_for_acrt_initialize 0000000180002ed0 f i msvcrt:ucrt_stubs.obj
 0001:00001ee0       ?CompareMultipliers@?$NumberTypeSpin@H@@UEBAFAEBVSpinCell@@0@Z 0000000180002ee0 f i BaseDialogValue.obj
 0001:00001f00       ?isValueNegative@?$SignedNumberTypeSpin@H@@UEBA_NXZ 0000000180002f00 f i BaseDialogValue.obj
 0001:00001f10       ?isValuePositive@?$SignedNumberTypeSpin@H@@UEBA_NXZ 0000000180002f10 f i BaseDialogValue.obj
 0001:00001f20       ?isNegative@?$SignedNumberTypeSpin@H@@UEBA_NXZ 0000000180002f20 f i BaseDialogValue.obj
 0001:00001f30       ?isZero@?$NumberTypeSpin@H@@UEBA_NXZ 0000000180002f30 f i BaseDialogValue.obj
 0001:00001f40       ?SetNegative@?$SignedNumberTypeSpin@H@@UEAA_NAEB_N0@Z 0000000180002f40 f i BaseDialogValue.obj
 0001:00001fc0       ?ToggleNegative@?$SignedNumberTypeSpin@H@@UEAA_NAEB_N@Z 0000000180002fc0 f i BaseDialogValue.obj
 0001:00002090       ?SetValueZero@?$NumberTypeSpin@H@@UEAA_NAEB_N@Z 0000000180003090 f i BaseDialogValue.obj
 0001:00002140       ?SetValue@?$NumberTypeSpin@H@@QEAA_NAEBH_N11@Z 0000000180003140 f i BaseDialogValue.obj
 0001:00002230       ?SetValueExtreme@?$SignedNumberTypeSpin@H@@UEAA_NAEB_N@Z 0000000180003230 f i BaseDialogValue.obj
 0001:00002270       ?SpinCreated@?$NumberTypeSpin@H@@MEAAXXZ 0000000180003270 f i BaseDialogValue.obj
 0001:000022c0       ?DoSpin@?$NumberTypeSpin@H@@MEAA_NIE_N@Z 00000001800032c0 f i BaseDialogValue.obj
 0001:000025f0       ?DoUpdateValueNum@?$SignedNumberTypeSpin@H@@MEBAE_N@Z 00000001800035f0 f i BaseDialogValue.obj
 0001:00002780       ?ResetSpinRate@?$NumberTypeSpin@H@@MEAAXXZ 0000000180003780 f i BaseDialogValue.obj
 0001:000027a0       ?IncreaseSpinRate@?$NumberTypeSpin@H@@MEAA_NXZ 00000001800037a0 f i BaseDialogValue.obj
 0001:00002820       ?isShowPlus@?$NumberTypeSpin@H@@UEBA_NXZ 0000000180003820 f i BaseDialogValue.obj
 0001:00002830       ?DoUpdateNegative@?$SignedNumberTypeSpin@H@@IEAAX_N@Z 0000000180003830 f i BaseDialogValue.obj
 0001:000028c0       ?UpdateNegative@?$SignedNumberTypeSpin@H@@MEAAX_N@Z 00000001800038c0 f i BaseDialogValue.obj
 0001:000028d0       ?SetBounds@?$TypedSpinCell@H@@QEAAX_NAEBH11@Z 00000001800038d0 f i BaseDialogValue.obj
 0001:00002a40       ?InitScrolling@?$NumberTypeSpin@H@@UEAAXPEAVSpinCell@@IE_N@Z 0000000180003a40 f i BaseDialogValue.obj
 0001:00002ad0       ?DoUpdateUnsignedValueStr@?$NumberTypeSpin@H@@IEAAXIAEBDAEBHAEB_N@Z 0000000180003ad0 f i BaseDialogValue.obj
 0001:00002c10       ?DoUpdateValueStr@?$SignedNumberTypeSpin@H@@MEAAX_N@Z 0000000180003c10 f i BaseDialogValue.obj
 0001:00002d00       ?ValueChanged@?$SignedNumberTypeSpin@H@@MEBAXXZ 0000000180003d00 f i BaseDialogValue.obj
 0001:00002d40       ??_G?$SignedNumberTypeSpin@H@@UEAAPEAXI@Z 0000000180003d40 f i BaseDialogValue.obj
 0001:00002d40       ??_E?$SignedNumberTypeSpin@H@@UEAAPEAXI@Z 0000000180003d40 f i * CIL library *:* CIL module *
 0001:00002d90       ??_E?$SignedNumberTypeSpin@H@@WOI@EAAPEAXI@Z 0000000180003d90 f i BaseDialogValue.obj
 0001:00002da0       ?CalculateMaxLength@?$SignedNumberTypeSpin@H@@MEAA_NXZ 0000000180003da0 f i BaseDialogValue.obj
 0001:00002e60       ?CalculateMaxFirstDigit@?$SignedNumberTypeSpin@H@@MEAA_NXZ 0000000180003e60 f i BaseDialogValue.obj
 0001:00002ec0       ??_GCStatic@@UEAAPEAXI@Z   0000000180003ec0 f i BaseDialogValue.obj
 0001:00002ec0       ??_ECStatic@@UEAAPEAXI@Z   0000000180003ec0 f i * CIL library *:* CIL module *
 0001:00002f10       ?AreSettingsValid@BaseSampleDialogSettingSymbol@@UEBA_NXZ 0000000180003f10 f i BaseSampleDialogSettingOption.obj
 0001:00002f20       ?isOptionUsed@BaseSampleDialogSettingOption@@UEBA_NXZ 0000000180003f20 f i BaseSampleDialogSettingOption.obj
 0001:00002f30       ??0BaseSampleDialogSettingOption@@IEAA@PEAVTakionMainWnd@@PEAVTakionSettingTabDialog@@_NPEBDH@Z 0000000180003f30 f   BaseSampleDialogSettingOption.obj
 0001:00003220       ??_EBaseSampleDialogSettingOption@@UEAAPEAXI@Z 0000000180004220 f i * CIL library *:* CIL module *
 0001:00003220       ??_GBaseSampleDialogSettingOption@@UEAAPEAXI@Z 0000000180004220 f i BaseSampleDialogSettingOption.obj
 0001:00003270       ??1BaseSampleDialogSettingOption@@UEAA@XZ 0000000180004270 f i BaseSampleDialogSettingOption.obj
 0001:00003340       ??1BaseSampleDialogSettingSymbol@@UEAA@XZ 0000000180004340 f i BaseSampleDialogSettingOption.obj
 0001:00003390       ?OnInitDialog@BaseSampleDialogSettingOption@@MEAAHXZ 0000000180004390 f   BaseSampleDialogSettingOption.obj
 0001:000034f0       ?DoDataExchange@BaseSampleDialogSettingSymbol@@MEAAXPEAVCDataExchange@@@Z 00000001800044f0 f   BaseSampleDialogSettingSymbol.obj
 0001:000034f0       ?DoDataExchange@BaseSampleDialogSettingOption@@MEAAXPEAVCDataExchange@@@Z 00000001800044f0 f   BaseSampleDialogSettingOption.obj
 0001:00003540       ?GetThisMessageMap@BaseSampleDialogSettingOption@@KAPEBUAFX_MSGMAP@@XZ 0000000180004540 f   BaseSampleDialogSettingOption.obj
 0001:00003540       ?GetMessageMap@BaseSampleDialogSettingOption@@MEBAPEBUAFX_MSGMAP@@XZ 0000000180004540 f   BaseSampleDialogSettingOption.obj
 0001:00003550       ?OnSelchangeOptionSuffix@BaseSampleDialogSettingOption@@IEAAXXZ 0000000180004550 f   BaseSampleDialogSettingOption.obj
 0001:000035a0       ?OnCalendarDropdown@BaseSampleDialogSettingOption@@IEAAXPEAUtagNMHDR@@PEA_J@Z 00000001800045a0 f   BaseSampleDialogSettingOption.obj
 0001:000035d0       ?OnCalendarCloseup@BaseSampleDialogSettingOption@@IEAAXPEAUtagNMHDR@@PEA_J@Z 00000001800045d0 f   BaseSampleDialogSettingOption.obj
 0001:00003600       ?OnExpirationDateChange@BaseSampleDialogSettingOption@@IEAAXPEAUtagNMHDR@@PEA_J@Z 0000000180004600 f   BaseSampleDialogSettingOption.obj
 0001:00003620       ?UpdateOptionExpirationValue@BaseSampleDialogSettingOption@@IEAA_NXZ 0000000180004620 f   BaseSampleDialogSettingOption.obj
 0001:000036e0       ?OnOptionCall@BaseSampleDialogSettingOption@@IEAAXXZ 00000001800046e0 f   BaseSampleDialogSettingOption.obj
 0001:00003740       ?OnOptionPut@BaseSampleDialogSettingOption@@IEAAXXZ 0000000180004740 f   BaseSampleDialogSettingOption.obj
 0001:000037a0       ?OnOption@BaseSampleDialogSettingOption@@IEAAXXZ 00000001800047a0 f   BaseSampleDialogSettingOption.obj
 0001:00003800       ?AreSettingsValid@BaseSampleDialogSettingOption@@UEBA_NXZ 0000000180004800 f   BaseSampleDialogSettingOption.obj
 0001:00003830       ?OptionModeChanged@BaseSampleDialogSettingOption@@MEAA_NXZ 0000000180004830 f   BaseSampleDialogSettingOption.obj
 0001:00003920       ?OnSpinChange@BaseSampleDialogSettingOption@@IEAA_J_K_J@Z 0000000180004920 f   BaseSampleDialogSettingOption.obj
 0001:00003a30       ?OnCtlColor@BaseSampleDialogSettingOption@@IEAAPEAUHBRUSH__@@PEAVCDC@@PEAVCWnd@@I@Z 0000000180004a30 f   BaseSampleDialogSettingOption.obj
 0001:00003b28       ??_EBaseSampleDialogSettingOption@@WFHI@EAAPEAXI@Z 0000000180004b28 f i BaseSampleDialogSettingOption.obj
 0001:00003b40       ??$U_RepresentStringAsUnsignedNumber@_K@@YA_KPEBDE@Z 0000000180004b40 f i BaseSampleDialogSettingOption.obj
 0001:00003b80       ??_GCButton@@UEAAPEAXI@Z   0000000180004b80 f i BaseSampleDialogSettingOption.obj
 0001:00003b80       ??_ECButton@@UEAAPEAXI@Z   0000000180004b80 f i * CIL library *:* CIL module *
 0001:00003bd0       ??0BaseSampleDialogSettingSymbol@@IEAA@PEAVTakionMainWnd@@PEAVTakionSettingTabDialog@@_NPEBDH@Z 0000000180004bd0 f   BaseSampleDialogSettingSymbol.obj
 0001:00003d90       ??_EBaseSampleDialogSettingSymbol@@UEAAPEAXI@Z 0000000180004d90 f i * CIL library *:* CIL module *
 0001:00003d90       ??_GBaseSampleDialogSettingSymbol@@UEAAPEAXI@Z 0000000180004d90 f i BaseSampleDialogSettingSymbol.obj
 0001:00003e20       ?GetFirstTabControl@BaseSampleDialogSettingSymbol@@UEBAPEAUHWND__@@XZ 0000000180004e20 f   BaseSampleDialogSettingSymbol.obj
 0001:00003e30       ?OnInitDialog@BaseSampleDialogSettingSymbol@@MEAAHXZ 0000000180004e30 f   BaseSampleDialogSettingSymbol.obj
 0001:00003e90       ?GetMessageMap@BaseSampleDialogSettingSymbol@@MEBAPEBUAFX_MSGMAP@@XZ 0000000180004e90 f   BaseSampleDialogSettingSymbol.obj
 0001:00003e90       ?GetThisMessageMap@BaseSampleDialogSettingSymbol@@KAPEBUAFX_MSGMAP@@XZ 0000000180004e90 f   BaseSampleDialogSettingSymbol.obj
 0001:00003ea0       ?OnSymbolUpdate@BaseSampleDialogSettingSymbol@@IEAAXXZ 0000000180004ea0 f   BaseSampleDialogSettingSymbol.obj
 0001:00003eb0       ?OnSymbolChange@BaseSampleDialogSettingSymbol@@IEAAXXZ 0000000180004eb0 f   BaseSampleDialogSettingSymbol.obj
 0001:00003f60       ?OnCtlColor@BaseSampleDialogSettingSymbol@@IEAAPEAUHBRUSH__@@PEAVCDC@@PEAVCWnd@@I@Z 0000000180004f60 f   BaseSampleDialogSettingSymbol.obj
 0001:00003ff0       ?Notify@BaseSampleDialogSettingSymbol@@MEAAXPEBVMessage@@PEBVObservable@@0@Z 0000000180004ff0 f   BaseSampleDialogSettingSymbol.obj
 0001:00004014       ??_EBaseSampleDialogSettingSymbol@@WFHI@EAAPEAXI@Z 0000000180005014 f i BaseSampleDialogSettingSymbol.obj
 0001:00004020       ??0DialogSignedPriceValue@@QEAA@PEAVTakionMainWnd@@_NPEAVTakionFrame@@PEAVCWnd@@@Z 0000000180005020 f   DialogSignedPriceValue.obj
 0001:00004140       ?GetMessageMap@DialogSignedPriceValue@@MEBAPEBUAFX_MSGMAP@@XZ 0000000180005140 f   DialogSignedPriceValue.obj
 0001:00004150       ?GetFirstTabControl@DialogStockPair@@UEBAPEAUHWND__@@XZ 0000000180005150 f i DialogStockPair.obj
 0001:00004160       ??0DialogStockPair@@QEAA@PEAVTakionMainWnd@@_NPEAVTakionFrame@@PEAVCWnd@@@Z 0000000180005160 f   DialogStockPair.obj
 0001:00004530       ??_EDialogStockPair@@UEAAPEAXI@Z 0000000180005530 f i * CIL library *:* CIL module *
 0001:00004530       ??_GDialogStockPair@@UEAAPEAXI@Z 0000000180005530 f i DialogStockPair.obj
 0001:00004580       ??1DialogStockPair@@UEAA@XZ 0000000180005580 f i DialogStockPair.obj
 0001:00004620       ?isValid@DialogStockPair@@UEBA_NXZ 0000000180005620 f   DialogStockPair.obj
 0001:00004640       ?isChanged@DialogStockPair@@UEBA_NXZ 0000000180005640 f   DialogStockPair.obj
 0001:000046f0       ?DoReset@DialogStockPair@@UEAA_NXZ 00000001800056f0 f   DialogStockPair.obj
 0001:00004820       ?Display@DialogStockPair@@QEAAXPEAVTakionFrame@@IPEBD1AEBVSignedPrice@@PEAVCWnd@@AEBVCPoint@@@Z 0000000180005820 f   DialogStockPair.obj
 0001:00004960       ?DoApply@DialogStockPair@@MEAAXXZ 0000000180005960 f   DialogStockPair.obj
 0001:00004a00       ?GetMessageMap@DialogStockPair@@MEBAPEBUAFX_MSGMAP@@XZ 0000000180005a00 f   DialogStockPair.obj
 0001:00004a10       ?DoDataExchange@DialogStockPair@@MEAAXPEAVCDataExchange@@@Z 0000000180005a10 f   DialogStockPair.obj
 0001:00004ab0       ?OnInitDialog@DialogStockPair@@MEAAHXZ 0000000180005ab0 f   DialogStockPair.obj
 0001:00004b10       ?OnSymbol1Update@DialogStockPair@@IEAAXXZ 0000000180005b10 f   DialogStockPair.obj
 0001:00004b20       ?OnSymbol2Update@DialogStockPair@@IEAAXXZ 0000000180005b20 f   DialogStockPair.obj
 0001:00004b30       ?OnSymbol1Change@DialogStockPair@@IEAAXXZ 0000000180005b30 f   DialogStockPair.obj
 0001:00004be0       ?OnSymbol2Change@DialogStockPair@@IEAAXXZ 0000000180005be0 f   DialogStockPair.obj
 0001:00004c90       ?OnCtlColor@DialogStockPair@@IEAAPEAUHBRUSH__@@PEAVCDC@@PEAVCWnd@@I@Z 0000000180005c90 f   DialogStockPair.obj
 0001:00004d50       ??0ExtensionDerivedConfig@@QEAA@XZ 0000000180005d50 f   ExtensionDerivedConfig.obj
 0001:000051e0       ??_GExtensionDerivedConfig@@UEAAPEAXI@Z 00000001800061e0 f i ExtensionDerivedConfig.obj
 0001:000051e0       ??_EExtensionDerivedConfig@@UEAAPEAXI@Z 00000001800061e0 f i * CIL library *:* CIL module *
 0001:00005220       ??1ExtensionDerivedConfig@@UEAA@XZ 0000000180006220 f i ExtensionDerivedConfig.obj
 0001:000053d0       ?AddSettings@ExtensionDerivedConfig@@IEAAXXZ 00000001800063d0 f   ExtensionDerivedConfig.obj
 0001:00005610       ?Clone@ExtensionDerivedConfig@@UEBAPEAVConfigBase@@XZ 0000000180006610 f   ExtensionDerivedConfig.obj
 0001:00005670       ?Copy@ExtensionDerivedConfig@@UEAAXAEBVConfigBase@@@Z 0000000180006670 f   ExtensionDerivedConfig.obj
 0001:00005680       ?Update@ExtensionDerivedConfig@@UEAAXXZ 0000000180006680 f   ExtensionDerivedConfig.obj
 0001:000058e0       ??$_Buynode@AEBVUIntSetting@@AEBVStringSettingRest@@@?$_Tree_comp_alloc@V?$_Tmap_traits@VUIntSetting@@VStringSettingRest@@U?$less@VUIntSetting@@@std@@V?$allocator@U?$pair@$$CBVUIntSetting@@VStringSettingRest@@@std@@@4@$0A@@std@@@std@@QEAAPEAU?$_Tree_node@U?$pair@$$CBVUIntSetting@@VStringSettingRest@@@std@@PEAX@1@AEBVUIntSetting@@AEBVStringSettingRest@@@Z 00000001800068e0 f i ExtensionDerivedConfig.obj
 0001:00005950       ??$_Insert_hint@AEAU?$pair@$$CBVUIntSetting@@VStringSettingRest@@@std@@PEAU?$_Tree_node@U?$pair@$$CBVUIntSetting@@VStringSettingRest@@@std@@PEAX@2@@?$_Tree@V?$_Tmap_traits@VUIntSetting@@VStringSettingRest@@U?$less@VUIntSetting@@@std@@V?$allocator@U?$pair@$$CBVUIntSetting@@VStringSettingRest@@@std@@@4@$0A@@std@@@std@@IEAA?AV?$_Tree_iterator@V?$_Tree_val@U?$_Tree_simple_types@U?$pair@$$CBVUIntSetting@@VStringSettingRest@@@std@@@std@@@std@@@1@V?$_Tree_const_iterator@V?$_Tree_val@U?$_Tree_simple_types@U?$pair@$$CBVUIntSetting@@VStringSettingRest@@@std@@@std@@@std@@@1@AEAU?$pair@$$CBVUIntSetting@@VStringSettingRest@@@1@PEAU?$_Tree_node@U?$pair@$$CBVUIntSetting@@VStringSettingRest@@@std@@PEAX@1@@Z 0000000180006950 f i ExtensionDerivedConfig.obj
 0001:00005bc0       ?_Destroy_if_not_nil@?$_Tree@V?$_Tmap_traits@VUIntSetting@@VStringSettingRest@@U?$less@VUIntSetting@@@std@@V?$allocator@U?$pair@$$CBVUIntSetting@@VStringSettingRest@@@std@@@4@$0A@@std@@@std@@IEAAXPEAU?$_Tree_node@U?$pair@$$CBVUIntSetting@@VStringSettingRest@@@std@@PEAX@2@@Z 0000000180006bc0 f i ExtensionDerivedConfig.obj
 0001:00005c00       ??$_Insert_at@AEAU?$pair@$$CBVUIntSetting@@VStringSettingRest@@@std@@PEAU?$_Tree_node@U?$pair@$$CBVUIntSetting@@VStringSettingRest@@@std@@PEAX@2@@?$_Tree@V?$_Tmap_traits@VUIntSetting@@VStringSettingRest@@U?$less@VUIntSetting@@@std@@V?$allocator@U?$pair@$$CBVUIntSetting@@VStringSettingRest@@@std@@@4@$0A@@std@@@std@@IEAA?AV?$_Tree_iterator@V?$_Tree_val@U?$_Tree_simple_types@U?$pair@$$CBVUIntSetting@@VStringSettingRest@@@std@@@std@@@std@@@1@_NPEAU?$_Tree_node@U?$pair@$$CBVUIntSetting@@VStringSettingRest@@@std@@PEAX@1@AEAU?$pair@$$CBVUIntSetting@@VStringSettingRest@@@1@1@Z 0000000180006c00 f i ExtensionDerivedConfig.obj
 0001:00005eb0       ??$_Insert_nohint@AEAU?$pair@$$CBVUIntSetting@@VStringSettingRest@@@std@@PEAU?$_Tree_node@U?$pair@$$CBVUIntSetting@@VStringSettingRest@@@std@@PEAX@2@@?$_Tree@V?$_Tmap_traits@VUIntSetting@@VStringSettingRest@@U?$less@VUIntSetting@@@std@@V?$allocator@U?$pair@$$CBVUIntSetting@@VStringSettingRest@@@std@@@4@$0A@@std@@@std@@IEAA?AU?$pair@V?$_Tree_iterator@V?$_Tree_val@U?$_Tree_simple_types@U?$pair@$$CBVUIntSetting@@VStringSettingRest@@@std@@@std@@@std@@@std@@_N@1@_NAEAU?$pair@$$CBVUIntSetting@@VStringSettingRest@@@1@PEAU?$_Tree_node@U?$pair@$$CBVUIntSetting@@VStringSettingRest@@@std@@PEAX@1@@Z 0000000180006eb0 f i ExtensionDerivedConfig.obj
 0001:00006070       ??1?$map@IV?$basic_string@DU?$char_traits@D@std@@V?$allocator@D@2@@std@@U?$less@I@2@V?$allocator@U?$pair@$$CBIV?$basic_string@DU?$char_traits@D@std@@V?$allocator@D@2@@std@@@std@@@2@@std@@QEAA@XZ 0000000180007070 f i ExtensionDerivedConfig.obj
 0001:000060a0       ?_Buyheadnode@?$_Tree_comp_alloc@V?$_Tmap_traits@IV?$basic_string@DU?$char_traits@D@std@@V?$allocator@D@2@@std@@U?$less@I@2@V?$allocator@U?$pair@$$CBIV?$basic_string@DU?$char_traits@D@std@@V?$allocator@D@2@@std@@@std@@@2@$0A@@std@@@std@@QEAAPEAU?$_Tree_node@U?$pair@$$CBIV?$basic_string@DU?$char_traits@D@std@@V?$allocator@D@2@@std@@@std@@PEAX@2@XZ 00000001800070a0 f i ExtensionDerivedConfig.obj
 0001:000060e0       ?_Erase@?$_Tree@V?$_Tmap_traits@IV?$basic_string@DU?$char_traits@D@std@@V?$allocator@D@2@@std@@U?$less@I@2@V?$allocator@U?$pair@$$CBIV?$basic_string@DU?$char_traits@D@std@@V?$allocator@D@2@@std@@@std@@@2@$0A@@std@@@std@@IEAAXPEAU?$_Tree_node@U?$pair@$$CBIV?$basic_string@DU?$char_traits@D@std@@V?$allocator@D@2@@std@@@std@@PEAX@2@@Z 00000001800070e0 f i ExtensionDerivedConfig.obj
 0001:00006140       ??1?$pair@$$CBIV?$basic_string@DU?$char_traits@D@std@@V?$allocator@D@2@@std@@@std@@QEAA@XZ 0000000180007140 f i ExtensionDerivedConfig.obj
 0001:00006150       ?erase@?$_Tree@V?$_Tmap_traits@IV?$basic_string@DU?$char_traits@D@std@@V?$allocator@D@2@@std@@U?$less@I@2@V?$allocator@U?$pair@$$CBIV?$basic_string@DU?$char_traits@D@std@@V?$allocator@D@2@@std@@@std@@@2@$0A@@std@@@std@@QEAA?AV?$_Tree_iterator@V?$_Tree_val@U?$_Tree_simple_types@U?$pair@$$CBIV?$basic_string@DU?$char_traits@D@std@@V?$allocator@D@2@@std@@@std@@@std@@@std@@@2@V?$_Tree_const_iterator@V?$_Tree_val@U?$_Tree_simple_types@U?$pair@$$CBIV?$basic_string@DU?$char_traits@D@std@@V?$allocator@D@2@@std@@@std@@@std@@@std@@@2@@Z 0000000180007150 f i ExtensionDerivedConfig.obj
 0001:00006630       ?erase@?$_Tree@V?$_Tmap_traits@IV?$basic_string@DU?$char_traits@D@std@@V?$allocator@D@2@@std@@U?$less@I@2@V?$allocator@U?$pair@$$CBIV?$basic_string@DU?$char_traits@D@std@@V?$allocator@D@2@@std@@@std@@@2@$0A@@std@@@std@@QEAA?AV?$_Tree_iterator@V?$_Tree_val@U?$_Tree_simple_types@U?$pair@$$CBIV?$basic_string@DU?$char_traits@D@std@@V?$allocator@D@2@@std@@@std@@@std@@@std@@@2@V?$_Tree_const_iterator@V?$_Tree_val@U?$_Tree_simple_types@U?$pair@$$CBIV?$basic_string@DU?$char_traits@D@std@@V?$allocator@D@2@@std@@@std@@@std@@@std@@@2@0@Z 0000000180007630 f i ExtensionDerivedConfig.obj
 0001:00006750       ??1?$MapSetting@VUIntSetting@@VStringSettingRest@@V?$map@VUIntSetting@@VStringSettingRest@@U?$less@VUIntSetting@@@std@@V?$allocator@U?$pair@$$CBVUIntSetting@@VStringSettingRest@@@std@@@4@@std@@$09@@UEAA@XZ 0000000180007750 f i ExtensionDerivedConfig.obj
 0001:000067c0       ??_E?$TypeSettingCollection@V?$map@VUIntSetting@@VStringSettingRest@@U?$less@VUIntSetting@@@std@@V?$allocator@U?$pair@$$CBVUIntSetting@@VStringSettingRest@@@std@@@4@@std@@@@UEAAPEAXI@Z 00000001800077c0 f i * CIL library *:* CIL module *
 0001:000067c0       ??_G?$TypeSettingCollection@V?$map@VUIntSetting@@VStringSettingRest@@U?$less@VUIntSetting@@@std@@V?$allocator@U?$pair@$$CBVUIntSetting@@VStringSettingRest@@@std@@@4@@std@@@@UEAAPEAXI@Z 00000001800077c0 f i ExtensionDerivedConfig.obj
 0001:00006850       ??_G?$PairIteratorCollection@VUIntSetting@@VStringSettingRest@@V?$map@VUIntSetting@@VStringSettingRest@@U?$less@VUIntSetting@@@std@@V?$allocator@U?$pair@$$CBVUIntSetting@@VStringSettingRest@@@std@@@4@@std@@$09@@UEAAPEAXI@Z 0000000180007850 f i ExtensionDerivedConfig.obj
 0001:00006850       ??_E?$PairIteratorCollection@VUIntSetting@@VStringSettingRest@@V?$map@VUIntSetting@@VStringSettingRest@@U?$less@VUIntSetting@@@std@@V?$allocator@U?$pair@$$CBVUIntSetting@@VStringSettingRest@@@std@@@4@@std@@$09@@UEAAPEAXI@Z 0000000180007850 f i * CIL library *:* CIL module *
 0001:000068e0       ?erase@?$_Tree@V?$_Tmap_traits@VUIntSetting@@VStringSettingRest@@U?$less@VUIntSetting@@@std@@V?$allocator@U?$pair@$$CBVUIntSetting@@VStringSettingRest@@@std@@@4@$0A@@std@@@std@@QEAA?AV?$_Tree_iterator@V?$_Tree_val@U?$_Tree_simple_types@U?$pair@$$CBVUIntSetting@@VStringSettingRest@@@std@@@std@@@std@@@2@V?$_Tree_const_iterator@V?$_Tree_val@U?$_Tree_simple_types@U?$pair@$$CBVUIntSetting@@VStringSettingRest@@@std@@@std@@@std@@@2@@Z 00000001800078e0 f i ExtensionDerivedConfig.obj
 0001:00006dd0       ?erase@?$_Tree@V?$_Tmap_traits@VUIntSetting@@VStringSettingRest@@U?$less@VUIntSetting@@@std@@V?$allocator@U?$pair@$$CBVUIntSetting@@VStringSettingRest@@@std@@@4@$0A@@std@@@std@@QEAA?AV?$_Tree_iterator@V?$_Tree_val@U?$_Tree_simple_types@U?$pair@$$CBVUIntSetting@@VStringSettingRest@@@std@@@std@@@std@@@2@V?$_Tree_const_iterator@V?$_Tree_val@U?$_Tree_simple_types@U?$pair@$$CBVUIntSetting@@VStringSettingRest@@@std@@@std@@@std@@@2@0@Z 0000000180007dd0 f i ExtensionDerivedConfig.obj
 0001:00006ea0       ??1?$map@VUIntSetting@@VStringSettingRest@@U?$less@VUIntSetting@@@std@@V?$allocator@U?$pair@$$CBVUIntSetting@@VStringSettingRest@@@std@@@4@@std@@QEAA@XZ 0000000180007ea0 f i ExtensionDerivedConfig.obj
 0001:00006ed0       ??_E?$MapSetting@VUIntSetting@@VStringSettingRest@@V?$map@VUIntSetting@@VStringSettingRest@@U?$less@VUIntSetting@@@std@@V?$allocator@U?$pair@$$CBVUIntSetting@@VStringSettingRest@@@std@@@4@@std@@$09@@UEAAPEAXI@Z 0000000180007ed0 f i * CIL library *:* CIL module *
 0001:00006ed0       ??_G?$MapSetting@VUIntSetting@@VStringSettingRest@@V?$map@VUIntSetting@@VStringSettingRest@@U?$less@VUIntSetting@@@std@@V?$allocator@U?$pair@$$CBVUIntSetting@@VStringSettingRest@@@std@@@4@@std@@$09@@UEAAPEAXI@Z 0000000180007ed0 f i ExtensionDerivedConfig.obj
 0001:00006f60       ?push_back@?$basic_string@DU?$char_traits@D@std@@V?$allocator@D@2@@std@@QEAAXD@Z 0000000180007f60 f i ExtensionDerivedConfig.obj
 0001:00006fe0       ?toString@?$MapSetting@VUIntSetting@@VStringSettingRest@@V?$map@VUIntSetting@@VStringSettingRest@@U?$less@VUIntSetting@@@std@@V?$allocator@U?$pair@$$CBVUIntSetting@@VStringSettingRest@@@std@@@4@@std@@$09@@UEBAXAEAV?$basic_string@DU?$char_traits@D@std@@V?$allocator@D@2@@std@@@Z 0000000180007fe0 f i ExtensionDerivedConfig.obj
 0001:000070d0       ??F?$_Tree_const_iterator@V?$_Tree_val@U?$_Tree_simple_types@U?$pair@$$CBVUIntSetting@@VStringSettingRest@@@std@@@std@@@std@@@std@@QEAAAEAV01@XZ 00000001800080d0 f i ExtensionDerivedConfig.obj
 0001:00007150       ??$_Buynode@U?$pair@$$CBVUIntSetting@@VStringSettingRest@@@std@@@?$_Tree_comp_alloc@V?$_Tmap_traits@VUIntSetting@@VStringSettingRest@@U?$less@VUIntSetting@@@std@@V?$allocator@U?$pair@$$CBVUIntSetting@@VStringSettingRest@@@std@@@4@$0A@@std@@@std@@QEAAPEAU?$_Tree_node@U?$pair@$$CBVUIntSetting@@VStringSettingRest@@@std@@PEAX@1@$$QEAU?$pair@$$CBVUIntSetting@@VStringSettingRest@@@1@@Z 0000000180008150 f i ExtensionDerivedConfig.obj
 0001:000071b0       ??$_Insert_at@U?$pair@$$CBVUIntSetting@@VStringSettingRest@@@std@@U_Nil@2@@?$_Tree@V?$_Tmap_traits@VUIntSetting@@VStringSettingRest@@U?$less@VUIntSetting@@@std@@V?$allocator@U?$pair@$$CBVUIntSetting@@VStringSettingRest@@@std@@@4@$0A@@std@@@std@@IEAA?AV?$_Tree_iterator@V?$_Tree_val@U?$_Tree_simple_types@U?$pair@$$CBVUIntSetting@@VStringSettingRest@@@std@@@std@@@std@@@1@_NPEAU?$_Tree_node@U?$pair@$$CBVUIntSetting@@VStringSettingRest@@@std@@PEAX@1@$$QEAU?$pair@$$CBVUIntSetting@@VStringSettingRest@@@1@U_Nil@1@@Z 00000001800081b0 f i ExtensionDerivedConfig.obj
 0001:00007480       ??$_Insert_nohint@U?$pair@$$CBVUIntSetting@@VStringSettingRest@@@std@@U_Nil@2@@?$_Tree@V?$_Tmap_traits@VUIntSetting@@VStringSettingRest@@U?$less@VUIntSetting@@@std@@V?$allocator@U?$pair@$$CBVUIntSetting@@VStringSettingRest@@@std@@@4@$0A@@std@@@std@@IEAA?AU?$pair@V?$_Tree_iterator@V?$_Tree_val@U?$_Tree_simple_types@U?$pair@$$CBVUIntSetting@@VStringSettingRest@@@std@@@std@@@std@@@std@@_N@1@_N$$QEAU?$pair@$$CBVUIntSetting@@VStringSettingRest@@@1@U_Nil@1@@Z 0000000180008480 f i ExtensionDerivedConfig.obj
 0001:00007620       ?fromString@?$MapSetting@VUIntSetting@@VStringSettingRest@@V?$map@VUIntSetting@@VStringSettingRest@@U?$less@VUIntSetting@@@std@@V?$allocator@U?$pair@$$CBVUIntSetting@@VStringSettingRest@@@std@@@4@@std@@$09@@UEAAXAEAPEBD_KD@Z 0000000180008620 f i ExtensionDerivedConfig.obj
 0001:000078a0       ??8?$TypeSettingCollection@V?$map@VUIntSetting@@VStringSettingRest@@U?$less@VUIntSetting@@@std@@V?$allocator@U?$pair@$$CBVUIntSetting@@VStringSettingRest@@@std@@@4@@std@@@@UEBA_NAEBVSetting@@@Z 00000001800088a0 f i ExtensionDerivedConfig.obj
 0001:00007a00       ??M?$TypeSettingCollection@V?$map@VUIntSetting@@VStringSettingRest@@U?$less@VUIntSetting@@@std@@V?$allocator@U?$pair@$$CBVUIntSetting@@VStringSettingRest@@@std@@@4@@std@@@@UEBA_NAEBVSetting@@@Z 0000000180008a00 f i ExtensionDerivedConfig.obj
 0001:00007b70       ?CopySetting@?$TypeSettingCollection@V?$map@VUIntSetting@@VStringSettingRest@@U?$less@VUIntSetting@@@std@@V?$allocator@U?$pair@$$CBVUIntSetting@@VStringSettingRest@@@std@@@4@@std@@@@UEAAXAEBVSetting@@@Z 0000000180008b70 f i ExtensionDerivedConfig.obj
 0001:00007be0       ??$_Equal_unchecked1@V?$_Tree_unchecked_const_iterator@V?$_Tree_val@U?$_Tree_simple_types@U?$pair@$$CBVUIntSetting@@VStringSettingRest@@@std@@@std@@@std@@U_Iterator_base0@2@@std@@V12@U?$equal_to@X@2@@std@@YA_NV?$_Tree_unchecked_const_iterator@V?$_Tree_val@U?$_Tree_simple_types@U?$pair@$$CBVUIntSetting@@VStringSettingRest@@@std@@@std@@@std@@U_Iterator_base0@2@@0@00AEAU?$equal_to@X@0@U?$integral_constant@_N$0A@@0@@Z 0000000180008be0 f i ExtensionDerivedConfig.obj
 0001:00007d10       ?isDefaultValue@?$TypeSettingCollection@V?$map@VUIntSetting@@VStringSettingRest@@U?$less@VUIntSetting@@@std@@V?$allocator@U?$pair@$$CBVUIntSetting@@VStringSettingRest@@@std@@@4@@std@@@@UEBA_NXZ 0000000180008d10 f i ExtensionDerivedConfig.obj
 0001:00007d50       ?UpdateDefaultValue@?$TypeSettingCollection@V?$map@VUIntSetting@@VStringSettingRest@@U?$less@VUIntSetting@@@std@@V?$allocator@U?$pair@$$CBVUIntSetting@@VStringSettingRest@@@std@@@4@@std@@@@UEBAXXZ 0000000180008d50 f i ExtensionDerivedConfig.obj
 0001:00007e30       ?clear@?$_Tree@V?$_Tmap_traits@VUIntSetting@@VStringSettingRest@@U?$less@VUIntSetting@@@std@@V?$allocator@U?$pair@$$CBVUIntSetting@@VStringSettingRest@@@std@@@4@$0A@@std@@@std@@QEAAXXZ 0000000180008e30 f i ExtensionDerivedConfig.obj
 0001:00007ed0       ?_Buyheadnode@?$_Tree_comp_alloc@V?$_Tmap_traits@VUIntSetting@@VStringSettingRest@@U?$less@VUIntSetting@@@std@@V?$allocator@U?$pair@$$CBVUIntSetting@@VStringSettingRest@@@std@@@4@$0A@@std@@@std@@QEAAPEAU?$_Tree_node@U?$pair@$$CBVUIntSetting@@VStringSettingRest@@@std@@PEAX@2@XZ 0000000180008ed0 f i ExtensionDerivedConfig.obj
 0001:00007f10       ?_Buynode0@?$_Tree_comp_alloc@V?$_Tmap_traits@VUIntSetting@@VStringSettingRest@@U?$less@VUIntSetting@@@std@@V?$allocator@U?$pair@$$CBVUIntSetting@@VStringSettingRest@@@std@@@4@$0A@@std@@@std@@QEAAPEAU?$_Tree_node@U?$pair@$$CBVUIntSetting@@VStringSettingRest@@@std@@PEAX@2@XZ 0000000180008f10 f i ExtensionDerivedConfig.obj
 0001:00007f60       ?deallocate@?$_Wrap_alloc@V?$allocator@U?$_List_node@V?$basic_string@DU?$char_traits@D@std@@V?$allocator@D@2@@std@@PEAX@std@@@std@@@std@@QEAAXPEAU?$_List_node@V?$basic_string@DU?$char_traits@D@std@@V?$allocator@D@2@@std@@PEAX@2@_K@Z 0000000180008f60 f i riskHelper.obj
 0001:00007f60       ?_Freenode0@?$_Tree_comp_alloc@V?$_Tmap_traits@VUIntSetting@@VStringSettingRest@@U?$less@VUIntSetting@@@std@@V?$allocator@U?$pair@$$CBVUIntSetting@@VStringSettingRest@@@std@@@4@$0A@@std@@@std@@QEAAXPEAU?$_Tree_node@U?$pair@$$CBVUIntSetting@@VStringSettingRest@@@std@@PEAX@2@@Z 0000000180008f60 f i ExtensionDerivedConfig.obj
 0001:00007f70       ??$_Buynode@AEAU?$pair@$$CBVUIntSetting@@VStringSettingRest@@@std@@@?$_Tree_comp_alloc@V?$_Tmap_traits@VUIntSetting@@VStringSettingRest@@U?$less@VUIntSetting@@@std@@V?$allocator@U?$pair@$$CBVUIntSetting@@VStringSettingRest@@@std@@@4@$0A@@std@@@std@@QEAAPEAU?$_Tree_node@U?$pair@$$CBVUIntSetting@@VStringSettingRest@@@std@@PEAX@1@AEAU?$pair@$$CBVUIntSetting@@VStringSettingRest@@@1@@Z 0000000180008f70 f i ExtensionDerivedConfig.obj
 0001:00007fe0       ??1?$pair@$$CBVUIntSetting@@VStringSettingRest@@@std@@QEAA@XZ 0000000180008fe0 f i ExtensionDerivedConfig.obj
 0001:00008010       ?_Erase@?$_Tree@V?$_Tmap_traits@VUIntSetting@@VStringSettingRest@@U?$less@VUIntSetting@@@std@@V?$allocator@U?$pair@$$CBVUIntSetting@@VStringSettingRest@@@std@@@4@$0A@@std@@@std@@IEAAXPEAU?$_Tree_node@U?$pair@$$CBVUIntSetting@@VStringSettingRest@@@std@@PEAX@2@@Z 0000000180009010 f i ExtensionDerivedConfig.obj
 0001:00008080       ??$_Copy_nodes@U_Copy_tag@?$_Tree@V?$_Tmap_traits@VUIntSetting@@VStringSettingRest@@U?$less@VUIntSetting@@@std@@V?$allocator@U?$pair@$$CBVUIntSetting@@VStringSettingRest@@@std@@@4@$0A@@std@@@std@@@?$_Tree@V?$_Tmap_traits@VUIntSetting@@VStringSettingRest@@U?$less@VUIntSetting@@@std@@V?$allocator@U?$pair@$$CBVUIntSetting@@VStringSettingRest@@@std@@@4@$0A@@std@@@std@@IEAAPEAU?$_Tree_node@U?$pair@$$CBVUIntSetting@@VStringSettingRest@@@std@@PEAX@1@PEAU21@0U_Copy_tag@01@@Z 0000000180009080 f i ExtensionDerivedConfig.obj
 0001:00008120       ??$_Copy@U_Copy_tag@?$_Tree@V?$_Tmap_traits@VUIntSetting@@VStringSettingRest@@U?$less@VUIntSetting@@@std@@V?$allocator@U?$pair@$$CBVUIntSetting@@VStringSettingRest@@@std@@@4@$0A@@std@@@std@@@?$_Tree@V?$_Tmap_traits@VUIntSetting@@VStringSettingRest@@U?$less@VUIntSetting@@@std@@V?$allocator@U?$pair@$$CBVUIntSetting@@VStringSettingRest@@@std@@@4@$0A@@std@@@std@@IEAAXAEBV01@U_Copy_tag@01@@Z 0000000180009120 f i ExtensionDerivedConfig.obj
 0001:000081d0       ?Uninitialize@?$TypeSettingCollection@V?$map@VUIntSetting@@VStringSettingRest@@U?$less@VUIntSetting@@@std@@V?$allocator@U?$pair@$$CBVUIntSetting@@VStringSettingRest@@@std@@@4@@std@@@@UEAAXXZ 00000001800091d0 f i ExtensionDerivedConfig.obj
 0001:00008230       ?isDelimiterAtEnd@?$TypeSettingCollection@V?$map@VUIntSetting@@VStringSettingRest@@U?$less@VUIntSetting@@@std@@V?$allocator@U?$pair@$$CBVUIntSetting@@VStringSettingRest@@@std@@@4@@std@@@@UEBA_NXZ 0000000180009230 f i ExtensionDerivedConfig.obj
 0001:00008240       ?ToSkipDelimiterAtEnd@?$TypeSettingCollection@V?$map@VUIntSetting@@VStringSettingRest@@U?$less@VUIntSetting@@@std@@V?$allocator@U?$pair@$$CBVUIntSetting@@VStringSettingRest@@@std@@@4@@std@@@@UEBA_NXZ 0000000180009240 f i ExtensionDerivedConfig.obj
 0001:00008270       ?CompareElement@?$PairIteratorCollection@VUIntSetting@@VStringSettingRest@@V?$map@VUIntSetting@@VStringSettingRest@@U?$less@VUIntSetting@@@std@@V?$allocator@U?$pair@$$CBVUIntSetting@@VStringSettingRest@@@std@@@4@@std@@$09@@UEBAHAEAV?$_Tree_const_iterator@V?$_Tree_val@U?$_Tree_simple_types@U?$pair@$$CBVUIntSetting@@VStringSettingRest@@@std@@@std@@@std@@@std@@0@Z 0000000180009270 f i ExtensionDerivedConfig.obj
 0001:00008310       ?UpdateDefaultElement@?$PairIteratorCollection@VUIntSetting@@VStringSettingRest@@V?$map@VUIntSetting@@VStringSettingRest@@U?$less@VUIntSetting@@@std@@V?$allocator@U?$pair@$$CBVUIntSetting@@VStringSettingRest@@@std@@@4@@std@@$09@@MEBAXAEAV?$_Tree_const_iterator@V?$_Tree_val@U?$_Tree_simple_types@U?$pair@$$CBVUIntSetting@@VStringSettingRest@@@std@@@std@@@std@@@std@@@Z 0000000180009310 f i ExtensionDerivedConfig.obj
 0001:00008340       ??1ExtensionSample@@UEAA@XZ 0000000180009340 f i ExtensionSample.obj
 0001:000083c0       GetExtensionCode           00000001800093c0 f   ExtensionSample.obj
 0001:000083c0       _get_startup_argv_mode     00000001800093c0 f   msvcrt:argv_mode.obj
 0001:000083d0       GetExtensionVersion        00000001800093d0 f   ExtensionSample.obj
 0001:000083e0       GetUtilsVersion            00000001800093e0 f   ExtensionSample.obj
 0001:000083f0       GetUtilsHeaderVersion      00000001800093f0 f   ExtensionSample.obj
 0001:00008400       GetUtilsGuiVersion         0000000180009400 f   ExtensionSample.obj
 0001:00008410       GetUtilsGuiHeaderVersion   0000000180009410 f   ExtensionSample.obj
 0001:00008420       GetTakionUtilsVersion      0000000180009420 f   ExtensionSample.obj
 0001:00008430       GetTakionUtilsHeaderVersion 0000000180009430 f   ExtensionSample.obj
 0001:00008430       GetTakionDataHeaderVersion 0000000180009430 f   ExtensionSample.obj
 0001:00008430       GetTakionGuiHeaderVersion  0000000180009430 f   ExtensionSample.obj
 0001:00008440       GetTakionGuiVersion        0000000180009440 f   ExtensionSample.obj
 0001:00008450       GetTakionDataVersion       0000000180009450 f   ExtensionSample.obj
 0001:00008460       GetTakionLogVersion        0000000180009460 f   ExtensionSample.obj
 0001:00008470       GetTakionLogHeaderVersion  0000000180009470 f   ExtensionSample.obj
 0001:00008480       GetObserverVersion         0000000180009480 f   ExtensionSample.obj
 0001:00008490       GetObserverHeaderVersion   0000000180009490 f   ExtensionSample.obj
 0001:000084a0       GetReceiverHeaderVersion   00000001800094a0 f   ExtensionSample.obj
 0001:000084b0       GetTakionExtensionDescription 00000001800094b0 f   ExtensionSample.obj
 0001:000084d0       MessageReport              00000001800094d0 f   ExtensionSample.obj
 0001:00008500       LineDoubleClicked          0000000180009500 f   ExtensionSample.obj
 0001:00008520       AppActivated               0000000180009520 f   ExtensionSample.obj
 0001:00008540       TakionMoveWindows          0000000180009540 f   ExtensionSample.obj
 0001:00008570       GetExtensionInfo           0000000180009570 f   ExtensionSample.obj
 0001:000085b0       GetTakionExtensionMenu     00000001800095b0 f   ExtensionSample.obj
 0001:000087f0       ExecuteTakionCommand       00000001800097f0 f   ExtensionSample.obj
 0001:00008cf0       ExtensionInitialize        0000000180009cf0 f   ExtensionSample.obj
 0001:00008f80       ExtensionTerminate         0000000180009f80 f   ExtensionSample.obj
 0001:000090e0       CurrentAccountSet          000000018000a0e0 f   ExtensionSample.obj
 0001:00009100       OpenLayout                 000000018000a100 f   ExtensionSample.obj
 0001:00009120       SaveLayout                 000000018000a120 f   ExtensionSample.obj
 0001:00009140       RestoreLayout              000000018000a140 f   ExtensionSample.obj
 0001:00009160       GetLaylogFilePath          000000018000a160 f   ExtensionSample.obj
 0001:00009190       SaveLayoutAs               000000018000a190 f   ExtensionSample.obj
 0001:000091b0       TakionCreateExtensionTool  000000018000a1b0 f   ExtensionSample.obj
 0001:00009250       ??0ExtensionSample@@QEAA@XZ 000000018000a250 f   ExtensionSample.obj
 0001:00009350       ??_GExtensionSample@@UEAAPEAXI@Z 000000018000a350 f i ExtensionSample.obj
 0001:00009350       ??_EExtensionSample@@UEAAPEAXI@Z 000000018000a350 f i * CIL library *:* CIL module *
 0001:000093a0       ?InitInstance@ExtensionSample@@UEAAHXZ 000000018000a3a0 f   ExtensionSample.obj
 0001:00009520       ?ExitInstance@ExtensionSample@@UEAAHXZ 000000018000a520 f   ExtensionSample.obj
 0001:00009530       ?GetApplicationRecoveryPingInterval@CWinApp@@UEAAKXZ 000000018000a530 f i ExtensionSample.obj
 0001:00009540       ?RestoreAutosavedFilesAtRestart@CWinApp@@UEBAHXZ 000000018000a540 f i ExtensionSample.obj
 0001:00009550       ?ReopenPreviousFilesAtRestart@CWinApp@@UEBAHXZ 000000018000a550 f i ExtensionSample.obj
 0001:00009560       ?SupportsAutosaveAtInterval@CWinApp@@UEBAHXZ 000000018000a560 f i ExtensionSample.obj
 0001:00009570       ?SupportsAutosaveAtRestart@CWinApp@@UEBAHXZ 000000018000a570 f i ExtensionSample.obj
 0001:00009580       ?SupportsApplicationRecovery@CWinApp@@UEBAHXZ 000000018000a580 f i ExtensionSample.obj
 0001:00009590       ?SupportsRestartManager@CWinApp@@UEBAHXZ 000000018000a590 f i ExtensionSample.obj
 0001:000095a0       ??_ETakionPopupWnd@@UEAAPEAXI@Z 000000018000a5a0 f i * CIL library *:* CIL module *
 0001:000095a0       ??_GTakionPopupWnd@@UEAAPEAXI@Z 000000018000a5a0 f i ExtensionSample.obj
 0001:000095f0       ??_GTakionMessageBox@@UEAAPEAXI@Z 000000018000a5f0 f i ExtensionSample.obj
 0001:000095f0       ??_ETakionMessageBox@@UEAAPEAXI@Z 000000018000a5f0 f i * CIL library *:* CIL module *
 0001:00009640       ??2CObject@@SAPEAX_K@Z     000000018000a640 f i ExtensionSample.obj
 0001:00009650       ?append@?$basic_string@DU?$char_traits@D@std@@V?$allocator@D@2@@std@@QEAAAEAV12@AEBV12@_K_K@Z 000000018000a650 f i ExtensionSample.obj
 0001:00009750       ?append@?$basic_string@DU?$char_traits@D@std@@V?$allocator@D@2@@std@@QEAAAEAV12@QEBD_K@Z 000000018000a750 f i ExtensionSample.obj
 0001:00009860       ?WriteToFile@@YAXV?$basic_string@DU?$char_traits@D@std@@V?$allocator@D@2@@std@@_N@Z 000000018000a860 f   riskHelper.obj
 0001:000099f0       ?GetCurrentDate@@YA?AV?$basic_string@DU?$char_traits@D@std@@V?$allocator@D@2@@std@@XZ 000000018000a9f0 f   riskHelper.obj
 0001:00009cf0       ?GetAccountById@@YAPEAVAccount@@PEBD@Z 000000018000acf0 f   riskHelper.obj
 0001:00009da0       ??0RiskHelper@@QEAA@PEAVTakionMainWnd@@PEAVTakionSettingTabDialog@@@Z 000000018000ada0 f   riskHelper.obj
 0001:00009ff0       ??_GRiskHelper@@UEAAPEAXI@Z 000000018000aff0 f i riskHelper.obj
 0001:00009ff0       ??_ERiskHelper@@UEAAPEAXI@Z 000000018000aff0 f i * CIL library *:* CIL module *
 0001:0000a040       ??1?$unordered_set@V?$basic_string@DU?$char_traits@D@std@@V?$allocator@D@2@@std@@U?$hash@V?$basic_string@DU?$char_traits@D@std@@V?$allocator@D@2@@std@@@2@U?$equal_to@V?$basic_string@DU?$char_traits@D@std@@V?$allocator@D@2@@std@@@2@V?$allocator@V?$basic_string@DU?$char_traits@D@std@@V?$allocator@D@2@@std@@@2@@std@@QEAA@XZ 000000018000b040 f i riskHelper.obj
 0001:0000a050       ??1RiskHelper@@UEAA@XZ     000000018000b050 f   riskHelper.obj
 0001:0000a100       ?Entering@RiskHelper@@MEAAXXZ 000000018000b100 f   riskHelper.obj
 0001:0000a120       ?Leaving@RiskHelper@@MEAAXXZ 000000018000b120 f   riskHelper.obj
 0001:0000a180       ?DoDataExchange@RiskHelper@@MEAAXPEAVCDataExchange@@@Z 000000018000b180 f   riskHelper.obj
 0001:0000a210       ?BeforeDestroy@RiskHelper@@MEAAXXZ 000000018000b210 f   riskHelper.obj
 0001:0000a270       ?GetMessageMap@RiskHelper@@MEBAPEBUAFX_MSGMAP@@XZ 000000018000b270 f   riskHelper.obj
 0001:0000a280       ?OnRun@RiskHelper@@IEAAXXZ 000000018000b280 f   riskHelper.obj
 0001:0000a2f0       ?OnStop@RiskHelper@@IEAAXXZ 000000018000b2f0 f   riskHelper.obj
 0001:0000a380       ?DoSubscribe@RiskHelper@@IEAA_NXZ 000000018000b380 f   riskHelper.obj
 0001:0000a470       ?OnInitDialog@RiskHelper@@MEAAHXZ 000000018000b470 f   riskHelper.obj
 0001:0000a670       ?Notify@RiskHelper@@MEAAXPEBVMessage@@PEBVObservable@@0@Z 000000018000b670 f   riskHelper.obj
 0001:0000a840       ?initializeAccountConditions@RiskHelper@@IEAAXXZ 000000018000b840 f   riskHelper.obj
 0001:0000aea0       ??_D?$basic_ifstream@DU?$char_traits@D@std@@@std@@QEAAXXZ 000000018000bea0 f i riskHelper.obj
 0001:0000af10       ?initializeSecurityBlackList@RiskHelper@@IEAAXXZ 000000018000bf10 f   riskHelper.obj
 0001:0000b1a0       ?CheckLogic@RiskHelper@@IEAAXXZ 000000018000c1a0 f   riskHelper.obj
 0001:0000b360       ?checkForProhibittedTickers@RiskHelper@@IEAAXPEAVAccount@@@Z 000000018000c360 f   riskHelper.obj
 0001:0000b5e0       ?checkForPrePostLosses@RiskHelper@@IEAAXPEAVAccount@@@Z 000000018000c5e0 f   riskHelper.obj
 0001:0000b870       ?checkForHighPnL@RiskHelper@@IEAAXUaccountConditionStruct@@@Z 000000018000c870 f   riskHelper.obj
 0001:0000bb50       ?CancelPositionOrders@RiskHelper@@IEAAXPEAVAccount@@PEAVPosition@@V?$basic_string@DU?$char_traits@D@std@@V?$allocator@D@2@@std@@@Z 000000018000cb50 f   riskHelper.obj
 0001:0000bd60       ??1?$vector@UaccountConditionStruct@@V?$allocator@UaccountConditionStruct@@@std@@@std@@QEAA@XZ 000000018000cd60 f i riskHelper.obj
 0001:0000bda0       ?clear@?$_Hash@V?$_Uset_traits@V?$basic_string@DU?$char_traits@D@std@@V?$allocator@D@2@@std@@V?$_Uhash_compare@V?$basic_string@DU?$char_traits@D@std@@V?$allocator@D@2@@std@@U?$hash@V?$basic_string@DU?$char_traits@D@std@@V?$allocator@D@2@@std@@@2@U?$equal_to@V?$basic_string@DU?$char_traits@D@std@@V?$allocator@D@2@@std@@@2@@2@V?$allocator@V?$basic_string@DU?$char_traits@D@std@@V?$allocator@D@2@@std@@@2@$0A@@std@@@std@@QEAAXXZ 000000018000cda0 f i riskHelper.obj
 0001:0000be20       ??1?$_Hash@V?$_Uset_traits@V?$basic_string@DU?$char_traits@D@std@@V?$allocator@D@2@@std@@V?$_Uhash_compare@V?$basic_string@DU?$char_traits@D@std@@V?$allocator@D@2@@std@@U?$hash@V?$basic_string@DU?$char_traits@D@std@@V?$allocator@D@2@@std@@@2@U?$equal_to@V?$basic_string@DU?$char_traits@D@std@@V?$allocator@D@2@@std@@@2@@2@V?$allocator@V?$basic_string@DU?$char_traits@D@std@@V?$allocator@D@2@@std@@@2@$0A@@std@@@std@@QEAA@XZ 000000018000ce20 f i riskHelper.obj
 0001:0000bec0       ??0?$unordered_set@V?$basic_string@DU?$char_traits@D@std@@V?$allocator@D@2@@std@@U?$hash@V?$basic_string@DU?$char_traits@D@std@@V?$allocator@D@2@@std@@@2@U?$equal_to@V?$basic_string@DU?$char_traits@D@std@@V?$allocator@D@2@@std@@@2@V?$allocator@V?$basic_string@DU?$char_traits@D@std@@V?$allocator@D@2@@std@@@2@@std@@QEAA@XZ 000000018000cec0 f i riskHelper.obj
 0001:0000bf40       ??0?$basic_ofstream@DU?$char_traits@D@std@@@std@@QEAA@XZ 000000018000cf40 f i riskHelper.obj
 0001:0000c020       ??0?$basic_ifstream@DU?$char_traits@D@std@@@std@@QEAA@XZ 000000018000d020 f i riskHelper.obj
 0001:0000c100       ?imbue@?$basic_filebuf@DU?$char_traits@D@std@@@std@@MEAAXAEBVlocale@2@@Z 000000018000d100 f i riskHelper.obj
 0001:0000c150       ?sync@?$basic_filebuf@DU?$char_traits@D@std@@@std@@MEAAHXZ 000000018000d150 f i riskHelper.obj
 0001:0000c1a0       ?setbuf@?$basic_filebuf@DU?$char_traits@D@std@@@std@@MEAAPEAV?$basic_streambuf@DU?$char_traits@D@std@@@2@PEAD_J@Z 000000018000d1a0 f i riskHelper.obj
 0001:0000c290       ?seekpos@?$basic_filebuf@DU?$char_traits@D@std@@@std@@MEAA?AV?$fpos@U_Mbstatet@@@2@V32@H@Z 000000018000d290 f i riskHelper.obj
 0001:0000c380       ?seekoff@?$basic_filebuf@DU?$char_traits@D@std@@@std@@MEAA?AV?$fpos@U_Mbstatet@@@2@_JHH@Z 000000018000d380 f i riskHelper.obj
 0001:0000c480       ?uflow@?$basic_filebuf@DU?$char_traits@D@std@@@std@@MEAAHXZ 000000018000d480 f i riskHelper.obj
 0001:0000c750       ?underflow@?$basic_filebuf@DU?$char_traits@D@std@@@std@@MEAAHXZ 000000018000d750 f i riskHelper.obj
 0001:0000c7c0       ?pbackfail@?$basic_filebuf@DU?$char_traits@D@std@@@std@@MEAAHH@Z 000000018000d7c0 f i riskHelper.obj
 0001:0000c8a0       ?overflow@?$basic_filebuf@DU?$char_traits@D@std@@@std@@MEAAHH@Z 000000018000d8a0 f i riskHelper.obj
 0001:0000cb80       ?_Unlock@?$basic_filebuf@DU?$char_traits@D@std@@@std@@UEAAXXZ 000000018000db80 f i riskHelper.obj
 0001:0000cba0       ?_Lock@?$basic_filebuf@DU?$char_traits@D@std@@@std@@UEAAXXZ 000000018000dba0 f i riskHelper.obj
 0001:0000cbc0       ??1?$basic_filebuf@DU?$char_traits@D@std@@@std@@UEAA@XZ 000000018000dbc0 f i riskHelper.obj
 0001:0000cc40       ??_G?$basic_ofstream@DU?$char_traits@D@std@@@std@@UEAAPEAXI@Z 000000018000dc40 f i riskHelper.obj
 0001:0000cc40       ??_E?$basic_ofstream@DU?$char_traits@D@std@@@std@@UEAAPEAXI@Z 000000018000dc40 f i * CIL library *:* CIL module *
 0001:0000cce0       ??_G?$basic_ifstream@DU?$char_traits@D@std@@@std@@UEAAPEAXI@Z 000000018000dce0 f i riskHelper.obj
 0001:0000cce0       ??_E?$basic_ifstream@DU?$char_traits@D@std@@@std@@UEAAPEAXI@Z 000000018000dce0 f i * CIL library *:* CIL module *
 0001:0000cd80       ??_E?$basic_filebuf@DU?$char_traits@D@std@@@std@@UEAAPEAXI@Z 000000018000dd80 f i * CIL library *:* CIL module *
 0001:0000cd80       ??_G?$basic_filebuf@DU?$char_traits@D@std@@@std@@UEAAPEAXI@Z 000000018000dd80 f i riskHelper.obj
 0001:0000cdc0       ??1?$vector@V?$_List_unchecked_const_iterator@V?$_List_val@U?$_List_simple_types@V?$basic_string@DU?$char_traits@D@std@@V?$allocator@D@2@@std@@@std@@@std@@U_Iterator_base0@2@@std@@U?$_Wrap_alloc@V?$allocator@V?$_List_unchecked_const_iterator@V?$_List_val@U?$_List_simple_types@V?$basic_string@DU?$char_traits@D@std@@V?$allocator@D@2@@std@@@std@@@std@@U_Iterator_base0@2@@std@@@std@@@2@@std@@QEAA@XZ 000000018000ddc0 f i riskHelper.obj
 0001:0000cdc0       ??1?$vector@V?$_List_unchecked_const_iterator@V?$_List_val@U?$_List_simple_types@PEAVStockPair@@@std@@@std@@U_Iterator_base0@2@@std@@U?$_Wrap_alloc@V?$allocator@V?$_List_unchecked_const_iterator@V?$_List_val@U?$_List_simple_types@PEAVStockPair@@@std@@@std@@U_Iterator_base0@2@@std@@@std@@@2@@std@@QEAA@XZ 000000018000ddc0 f i StockComparator.obj
 0001:0000ce00       ?_Init@?$_Hash@V?$_Uset_traits@V?$basic_string@DU?$char_traits@D@std@@V?$allocator@D@2@@std@@V?$_Uhash_compare@V?$basic_string@DU?$char_traits@D@std@@V?$allocator@D@2@@std@@U?$hash@V?$basic_string@DU?$char_traits@D@std@@V?$allocator@D@2@@std@@@2@U?$equal_to@V?$basic_string@DU?$char_traits@D@std@@V?$allocator@D@2@@std@@@2@@2@V?$allocator@V?$basic_string@DU?$char_traits@D@std@@V?$allocator@D@2@@std@@@2@$0A@@std@@@std@@IEAAX_K@Z 000000018000de00 f i riskHelper.obj
 0001:0000ce00       ?_Init@?$_Hash@V?$_Uset_traits@PEAVStockPair@@V?$_Uhash_compare@PEAVStockPair@@U?$hash@PEAVStockPair@@@std@@U?$equal_to@PEAVStockPair@@@3@@std@@V?$allocator@PEAVStockPair@@@3@$0A@@std@@@std@@IEAAX_K@Z 000000018000de00 f i StockComparator.obj
 0001:0000ce90       ?lower_bound@?$_Hash@V?$_Uset_traits@V?$basic_string@DU?$char_traits@D@std@@V?$allocator@D@2@@std@@V?$_Uhash_compare@V?$basic_string@DU?$char_traits@D@std@@V?$allocator@D@2@@std@@U?$hash@V?$basic_string@DU?$char_traits@D@std@@V?$allocator@D@2@@std@@@2@U?$equal_to@V?$basic_string@DU?$char_traits@D@std@@V?$allocator@D@2@@std@@@2@@2@V?$allocator@V?$basic_string@DU?$char_traits@D@std@@V?$allocator@D@2@@std@@@2@$0A@@std@@@std@@QEAA?AV?$_List_const_iterator@V?$_List_val@U?$_List_simple_types@V?$basic_string@DU?$char_traits@D@std@@V?$allocator@D@2@@std@@@std@@@std@@@2@AEBV?$basic_string@DU?$char_traits@D@std@@V?$allocator@D@2@@2@@Z 000000018000de90 f i riskHelper.obj
 0001:0000cfd0       ??1sentry@?$basic_ostream@DU?$char_traits@D@std@@@std@@QEAA@XZ 000000018000dfd0 f i riskHelper.obj
 0001:0000d020       ?_Reset_back@?$basic_filebuf@DU?$char_traits@D@std@@@std@@AEAAXXZ 000000018000e020 f i riskHelper.obj
 0001:0000d050       ?_Endwrite@?$basic_filebuf@DU?$char_traits@D@std@@@std@@IEAA_NXZ 000000018000e050 f i riskHelper.obj
 0001:0000d250       ?close@?$basic_filebuf@DU?$char_traits@D@std@@@std@@QEAAPEAV12@XZ 000000018000e250 f i riskHelper.obj
 0001:0000d2d0       ?deallocate@?$_Wrap_alloc@V?$allocator@UaccountConditionStruct@@@std@@@std@@QEAAXPEAUaccountConditionStruct@@_K@Z 000000018000e2d0 f i riskHelper.obj
 0001:0000d350       ?assign@?$vector@V?$_List_unchecked_const_iterator@V?$_List_val@U?$_List_simple_types@PEAVStockPair@@@std@@@std@@U_Iterator_base0@2@@std@@U?$_Wrap_alloc@V?$allocator@V?$_List_unchecked_const_iterator@V?$_List_val@U?$_List_simple_types@PEAVStockPair@@@std@@@std@@U_Iterator_base0@2@@std@@@std@@@2@@std@@QEAAX_KAEBV?$_List_unchecked_const_iterator@V?$_List_val@U?$_List_simple_types@PEAVStockPair@@@std@@@std@@U_Iterator_base0@2@@2@@Z 000000018000e350 f i StockComparator.obj
 0001:0000d350       ?assign@?$vector@V?$_List_unchecked_const_iterator@V?$_List_val@U?$_List_simple_types@V?$basic_string@DU?$char_traits@D@std@@V?$allocator@D@2@@std@@@std@@@std@@U_Iterator_base0@2@@std@@U?$_Wrap_alloc@V?$allocator@V?$_List_unchecked_const_iterator@V?$_List_val@U?$_List_simple_types@V?$basic_string@DU?$char_traits@D@std@@V?$allocator@D@2@@std@@@std@@@std@@U_Iterator_base0@2@@std@@@std@@@2@@std@@QEAAX_KAEBV?$_List_unchecked_const_iterator@V?$_List_val@U?$_List_simple_types@V?$basic_string@DU?$char_traits@D@std@@V?$allocator@D@2@@std@@@std@@@std@@U_Iterator_base0@2@@2@@Z 000000018000e350 f i riskHelper.obj
 0001:0000d480       ??1_Sentry_base@?$basic_istream@DU?$char_traits@D@std@@@std@@QEAA@XZ 000000018000e480 f i riskHelper.obj
 0001:0000d480       ??1_Sentry_base@?$basic_ostream@DU?$char_traits@D@std@@@std@@QEAA@XZ 000000018000e480 f i riskHelper.obj
 0001:0000d4b0       ?open@?$basic_filebuf@DU?$char_traits@D@std@@@std@@QEAAPEAV12@PEBDHH@Z 000000018000e4b0 f i riskHelper.obj
 0001:0000d5f0       ?deallocate@?$_Wrap_alloc@U?$_Wrap_alloc@V?$allocator@V?$_List_unchecked_const_iterator@V?$_List_val@U?$_List_simple_types@PEAVStockPair@@@std@@@std@@U_Iterator_base0@2@@std@@@std@@@std@@@std@@QEAAXPEAV?$_List_unchecked_const_iterator@V?$_List_val@U?$_List_simple_types@PEAVStockPair@@@std@@@std@@U_Iterator_base0@2@@2@_K@Z 000000018000e5f0 f i StockComparator.obj
 0001:0000d5f0       ?deallocate@?$_Wrap_alloc@U?$_Wrap_alloc@V?$allocator@V?$_List_unchecked_const_iterator@V?$_List_val@U?$_List_simple_types@V?$basic_string@DU?$char_traits@D@std@@V?$allocator@D@2@@std@@@std@@@std@@U_Iterator_base0@2@@std@@@std@@@std@@@std@@QEAAXPEAV?$_List_unchecked_const_iterator@V?$_List_val@U?$_List_simple_types@V?$basic_string@DU?$char_traits@D@std@@V?$allocator@D@2@@std@@@std@@@std@@U_Iterator_base0@2@@2@_K@Z 000000018000e5f0 f i riskHelper.obj
 0001:0000d670       ?_Xlength@?$vector@V?$_List_unchecked_const_iterator@V?$_List_val@U?$_List_simple_types@V?$basic_string@DU?$char_traits@D@std@@V?$allocator@D@2@@std@@@std@@@std@@U_Iterator_base0@2@@std@@U?$_Wrap_alloc@V?$allocator@V?$_List_unchecked_const_iterator@V?$_List_val@U?$_List_simple_types@V?$basic_string@DU?$char_traits@D@std@@V?$allocator@D@2@@std@@@std@@@std@@U_Iterator_base0@2@@std@@@std@@@2@@std@@CAXXZ 000000018000e670 f i riskHelper.obj
 0001:0000d670       ?_Xlength@?$vector@V?$_List_unchecked_const_iterator@V?$_List_val@U?$_List_simple_types@PEAVStockPair@@@std@@@std@@U_Iterator_base0@2@@std@@U?$_Wrap_alloc@V?$allocator@V?$_List_unchecked_const_iterator@V?$_List_val@U?$_List_simple_types@PEAVStockPair@@@std@@@std@@U_Iterator_base0@2@@std@@@std@@@2@@std@@CAXXZ 000000018000e670 f i StockComparator.obj
 0001:0000d670       ?_Xlength@?$vector@UaccountConditionStruct@@V?$allocator@UaccountConditionStruct@@@std@@@std@@CAXXZ 000000018000e670 f i riskHelper.obj
 0001:0000d690       ?_Reallocate_exactly@?$vector@V?$_List_unchecked_const_iterator@V?$_List_val@U?$_List_simple_types@PEAVStockPair@@@std@@@std@@U_Iterator_base0@2@@std@@U?$_Wrap_alloc@V?$allocator@V?$_List_unchecked_const_iterator@V?$_List_val@U?$_List_simple_types@PEAVStockPair@@@std@@@std@@U_Iterator_base0@2@@std@@@std@@@2@@std@@AEAAX_K@Z 000000018000e690 f i StockComparator.obj
 0001:0000d690       ?_Reallocate_exactly@?$vector@V?$_List_unchecked_const_iterator@V?$_List_val@U?$_List_simple_types@V?$basic_string@DU?$char_traits@D@std@@V?$allocator@D@2@@std@@@std@@@std@@U_Iterator_base0@2@@std@@U?$_Wrap_alloc@V?$allocator@V?$_List_unchecked_const_iterator@V?$_List_val@U?$_List_simple_types@V?$basic_string@DU?$char_traits@D@std@@V?$allocator@D@2@@std@@@std@@@std@@U_Iterator_base0@2@@std@@@std@@@2@@std@@AEAAX_K@Z 000000018000e690 f i riskHelper.obj
 0001:0000d720       ??$?6U?$char_traits@D@std@@@std@@YAAEAV?$basic_ostream@DU?$char_traits@D@std@@@0@AEAV10@PEBD@Z 000000018000e720 f i riskHelper.obj
 0001:0000d8d0       ??$endl@DU?$char_traits@D@std@@@std@@YAAEAV?$basic_ostream@DU?$char_traits@D@std@@@0@AEAV10@@Z 000000018000e8d0 f i riskHelper.obj
 0001:0000d910       ??$?HDU?$char_traits@D@std@@V?$allocator@D@1@@std@@YA?AV?$basic_string@DU?$char_traits@D@std@@V?$allocator@D@2@@0@QEBD$$QEAV10@@Z 000000018000e910 f i riskHelper.obj
 0001:0000d980       ??$?HDU?$char_traits@D@std@@V?$allocator@D@1@@std@@YA?AV?$basic_string@DU?$char_traits@D@std@@V?$allocator@D@2@@0@$$QEAV10@QEBD@Z 000000018000e980 f i riskHelper.obj
 0001:0000d9f0       ??$?HDU?$char_traits@D@std@@V?$allocator@D@1@@std@@YA?AV?$basic_string@DU?$char_traits@D@std@@V?$allocator@D@2@@0@AEBV10@QEBD@Z 000000018000e9f0 f i riskHelper.obj
 0001:0000daf0       ??$?HDU?$char_traits@D@std@@V?$allocator@D@1@@std@@YA?AV?$basic_string@DU?$char_traits@D@std@@V?$allocator@D@2@@0@$$QEAV10@0@Z 000000018000eaf0 f i riskHelper.obj
 0001:0000db90       ??$?HDU?$char_traits@D@std@@V?$allocator@D@1@@std@@YA?AV?$basic_string@DU?$char_traits@D@std@@V?$allocator@D@2@@0@$$QEAV10@AEBV10@@Z 000000018000eb90 f i riskHelper.obj
 0001:0000dbf0       ??$?HDU?$char_traits@D@std@@V?$allocator@D@1@@std@@YA?AV?$basic_string@DU?$char_traits@D@std@@V?$allocator@D@2@@0@AEBV10@0@Z 000000018000ebf0 f i riskHelper.obj
 0001:0000dce0       ??$?HDU?$char_traits@D@std@@V?$allocator@D@1@@std@@YA?AV?$basic_string@DU?$char_traits@D@std@@V?$allocator@D@2@@0@$$QEAV10@D@Z 000000018000ece0 f i riskHelper.obj
 0001:0000dd40       ??$emplace_back@AEBUaccountConditionStruct@@@?$vector@UaccountConditionStruct@@V?$allocator@UaccountConditionStruct@@@std@@@std@@QEAAXAEBUaccountConditionStruct@@@Z 000000018000ed40 f i riskHelper.obj
 0001:0000de60       ??$use_facet@V?$codecvt@DDU_Mbstatet@@@std@@@std@@YAAEBV?$codecvt@DDU_Mbstatet@@@0@AEBVlocale@0@@Z 000000018000ee60 f i riskHelper.obj
 0001:0000df60       ?insert@?$basic_string@DU?$char_traits@D@std@@V?$allocator@D@2@@std@@QEAAAEAV12@_KQEBD0@Z 000000018000ef60 f i riskHelper.obj
 0001:0000e0a0       ?insert@?$basic_string@DU?$char_traits@D@std@@V?$allocator@D@2@@std@@QEAAAEAV12@_KAEBV12@0_K@Z 000000018000f0a0 f i riskHelper.obj
 0001:0000e210       ??$getline@DU?$char_traits@D@std@@V?$allocator@D@2@@std@@YAAEAV?$basic_istream@DU?$char_traits@D@std@@@0@$$QEAV10@AEAV?$basic_string@DU?$char_traits@D@std@@V?$allocator@D@2@@0@D@Z 000000018000f210 f i riskHelper.obj
 0001:0000e380       ??$_Insert_string@DU?$char_traits@D@std@@_K@std@@YAAEAV?$basic_ostream@DU?$char_traits@D@std@@@0@AEAV10@QEBD_K@Z 000000018000f380 f i riskHelper.obj
 0001:0000e550       ??$_Insert@AEBV?$basic_string@DU?$char_traits@D@std@@V?$allocator@D@2@@std@@U_Nil@2@@?$_Hash@V?$_Uset_traits@V?$basic_string@DU?$char_traits@D@std@@V?$allocator@D@2@@std@@V?$_Uhash_compare@V?$basic_string@DU?$char_traits@D@std@@V?$allocator@D@2@@std@@U?$hash@V?$basic_string@DU?$char_traits@D@std@@V?$allocator@D@2@@std@@@2@U?$equal_to@V?$basic_string@DU?$char_traits@D@std@@V?$allocator@D@2@@std@@@2@@2@V?$allocator@V?$basic_string@DU?$char_traits@D@std@@V?$allocator@D@2@@std@@@2@$0A@@std@@@std@@IEAA?AU?$pair@V?$_List_const_iterator@V?$_List_val@U?$_List_simple_types@V?$basic_string@DU?$char_traits@D@std@@V?$allocator@D@2@@std@@@std@@@std@@@std@@_N@1@AEBV?$basic_string@DU?$char_traits@D@std@@V?$allocator@D@2@@1@U_Nil@1@@Z 000000018000f550 f i riskHelper.obj
 0001:0000e740       ??$_Fill_unchecked1@PEAV?$_List_unchecked_const_iterator@V?$_List_val@U?$_List_simple_types@V?$basic_string@DU?$char_traits@D@std@@V?$allocator@D@2@@std@@@std@@@std@@U_Iterator_base0@2@@std@@V12@@std@@YAXPEAV?$_List_unchecked_const_iterator@V?$_List_val@U?$_List_simple_types@V?$basic_string@DU?$char_traits@D@std@@V?$allocator@D@2@@std@@@std@@@std@@U_Iterator_base0@2@@0@0AEBV10@U?$integral_constant@_N$0A@@0@@Z 000000018000f740 f i riskHelper.obj
 0001:0000e740       ??$_Fill_unchecked1@PEAV?$_List_unchecked_const_iterator@V?$_List_val@U?$_List_simple_types@PEAVStockPair@@@std@@@std@@U_Iterator_base0@2@@std@@V12@@std@@YAXPEAV?$_List_unchecked_const_iterator@V?$_List_val@U?$_List_simple_types@PEAVStockPair@@@std@@@std@@U_Iterator_base0@2@@0@0AEBV10@U?$integral_constant@_N$0A@@0@@Z 000000018000f740 f i StockComparator.obj
 0001:0000e7e0       ??$_Uninit_alloc_fill_n1@PEAV?$_List_unchecked_const_iterator@V?$_List_val@U?$_List_simple_types@PEAVStockPair@@@std@@@std@@U_Iterator_base0@2@@std@@_KU?$_Wrap_alloc@V?$allocator@V?$_List_unchecked_const_iterator@V?$_List_val@U?$_List_simple_types@PEAVStockPair@@@std@@@std@@U_Iterator_base0@2@@std@@@std@@@2@@std@@YAPEAV?$_List_unchecked_const_iterator@V?$_List_val@U?$_List_simple_types@PEAVStockPair@@@std@@@std@@U_Iterator_base0@2@@0@PEAV10@_KAEBV10@AEAU?$_Wrap_alloc@U?$_Wrap_alloc@V?$allocator@V?$_List_unchecked_const_iterator@V?$_List_val@U?$_List_simple_types@PEAVStockPair@@@std@@@std@@U_Iterator_base0@2@@std@@@std@@@std@@@0@U?$integral_constant@_N$0A@@0@@Z 000000018000f7e0 f i StockComparator.obj
 0001:0000e7e0       ??$_Uninit_alloc_fill_n1@PEAV?$_List_unchecked_const_iterator@V?$_List_val@U?$_List_simple_types@V?$basic_string@DU?$char_traits@D@std@@V?$allocator@D@2@@std@@@std@@@std@@U_Iterator_base0@2@@std@@_KU?$_Wrap_alloc@V?$allocator@V?$_List_unchecked_const_iterator@V?$_List_val@U?$_List_simple_types@V?$basic_string@DU?$char_traits@D@std@@V?$allocator@D@2@@std@@@std@@@std@@U_Iterator_base0@2@@std@@@std@@@2@@std@@YAPEAV?$_List_unchecked_const_iterator@V?$_List_val@U?$_List_simple_types@V?$basic_string@DU?$char_traits@D@std@@V?$allocator@D@2@@std@@@std@@@std@@U_Iterator_base0@2@@0@PEAV10@_KAEBV10@AEAU?$_Wrap_alloc@U?$_Wrap_alloc@V?$allocator@V?$_List_unchecked_const_iterator@V?$_List_val@U?$_List_simple_types@V?$basic_string@DU?$char_traits@D@std@@V?$allocator@D@2@@std@@@std@@@std@@U_Iterator_base0@2@@std@@@std@@@std@@@0@U?$integral_constant@_N$0A@@0@@Z 000000018000f7e0 f i riskHelper.obj
 0001:0000e800       ??$_Uninitialized_move_al_unchecked@PEAV?$_List_unchecked_const_iterator@V?$_List_val@U?$_List_simple_types@V?$basic_string@DU?$char_traits@D@std@@V?$allocator@D@2@@std@@@std@@@std@@U_Iterator_base0@2@@std@@PEAV12@U?$_Wrap_alloc@V?$allocator@V?$_List_unchecked_const_iterator@V?$_List_val@U?$_List_simple_types@V?$basic_string@DU?$char_traits@D@std@@V?$allocator@D@2@@std@@@std@@@std@@U_Iterator_base0@2@@std@@@std@@@2@@std@@YAPEAV?$_List_unchecked_const_iterator@V?$_List_val@U?$_List_simple_types@V?$basic_string@DU?$char_traits@D@std@@V?$allocator@D@2@@std@@@std@@@std@@U_Iterator_base0@2@@0@PEAV10@00AEAU?$_Wrap_alloc@U?$_Wrap_alloc@V?$allocator@V?$_List_unchecked_const_iterator@V?$_List_val@U?$_List_simple_types@V?$basic_string@DU?$char_traits@D@std@@V?$allocator@D@2@@std@@@std@@@std@@U_Iterator_base0@2@@std@@@std@@@std@@@0@U_General_ptr_iterator_tag@0@U_Any_tag@0@@Z 000000018000f800 f i riskHelper.obj
 0001:0000e800       ??$_Uninitialized_move_al_unchecked@PEAV?$_List_unchecked_const_iterator@V?$_List_val@U?$_List_simple_types@PEAVStockPair@@@std@@@std@@U_Iterator_base0@2@@std@@PEAV12@U?$_Wrap_alloc@V?$allocator@V?$_List_unchecked_const_iterator@V?$_List_val@U?$_List_simple_types@PEAVStockPair@@@std@@@std@@U_Iterator_base0@2@@std@@@std@@@2@@std@@YAPEAV?$_List_unchecked_const_iterator@V?$_List_val@U?$_List_simple_types@PEAVStockPair@@@std@@@std@@U_Iterator_base0@2@@0@PEAV10@00AEAU?$_Wrap_alloc@U?$_Wrap_alloc@V?$allocator@V?$_List_unchecked_const_iterator@V?$_List_val@U?$_List_simple_types@PEAVStockPair@@@std@@@std@@U_Iterator_base0@2@@std@@@std@@@std@@@0@U_General_ptr_iterator_tag@0@U_Any_tag@0@@Z 000000018000f800 f i StockComparator.obj
 0001:0000e840       ??1sentry@?$basic_istream@DU?$char_traits@D@std@@@std@@QEAA@XZ 000000018000f840 f i riskHelper.obj
 0001:0000e870       ?_Check_size@?$_Hash@V?$_Uset_traits@V?$basic_string@DU?$char_traits@D@std@@V?$allocator@D@2@@std@@V?$_Uhash_compare@V?$basic_string@DU?$char_traits@D@std@@V?$allocator@D@2@@std@@U?$hash@V?$basic_string@DU?$char_traits@D@std@@V?$allocator@D@2@@std@@@2@U?$equal_to@V?$basic_string@DU?$char_traits@D@std@@V?$allocator@D@2@@std@@@2@@2@V?$allocator@V?$basic_string@DU?$char_traits@D@std@@V?$allocator@D@2@@std@@@2@$0A@@std@@@std@@IEAAXXZ 000000018000f870 f i riskHelper.obj
 0001:0000e930       ?erase@?$_Hash@V?$_Uset_traits@V?$basic_string@DU?$char_traits@D@std@@V?$allocator@D@2@@std@@V?$_Uhash_compare@V?$basic_string@DU?$char_traits@D@std@@V?$allocator@D@2@@std@@U?$hash@V?$basic_string@DU?$char_traits@D@std@@V?$allocator@D@2@@std@@@2@U?$equal_to@V?$basic_string@DU?$char_traits@D@std@@V?$allocator@D@2@@std@@@2@@2@V?$allocator@V?$basic_string@DU?$char_traits@D@std@@V?$allocator@D@2@@std@@@2@$0A@@std@@@std@@QEAA?AV?$_List_const_iterator@V?$_List_val@U?$_List_simple_types@V?$basic_string@DU?$char_traits@D@std@@V?$allocator@D@2@@std@@@std@@@std@@@2@V32@@Z 000000018000f930 f i riskHelper.obj
 0001:0000ea20       ??$_Insert@AEBV?$basic_string@DU?$char_traits@D@std@@V?$allocator@D@2@@std@@V?$_List_unchecked_const_iterator@V?$_List_val@U?$_List_simple_types@V?$basic_string@DU?$char_traits@D@std@@V?$allocator@D@2@@std@@@std@@@std@@U_Iterator_base0@2@@2@@?$_Hash@V?$_Uset_traits@V?$basic_string@DU?$char_traits@D@std@@V?$allocator@D@2@@std@@V?$_Uhash_compare@V?$basic_string@DU?$char_traits@D@std@@V?$allocator@D@2@@std@@U?$hash@V?$basic_string@DU?$char_traits@D@std@@V?$allocator@D@2@@std@@@2@U?$equal_to@V?$basic_string@DU?$char_traits@D@std@@V?$allocator@D@2@@std@@@2@@2@V?$allocator@V?$basic_string@DU?$char_traits@D@std@@V?$allocator@D@2@@std@@@2@$0A@@std@@@std@@IEAA?AU?$pair@V?$_List_const_iterator@V?$_List_val@U?$_List_simple_types@V?$basic_string@DU?$char_traits@D@std@@V?$allocator@D@2@@std@@@std@@@std@@@std@@_N@1@AEBV?$basic_string@DU?$char_traits@D@std@@V?$allocator@D@2@@1@V?$_List_unchecked_const_iterator@V?$_List_val@U?$_List_simple_types@V?$basic_string@DU?$char_traits@D@std@@V?$allocator@D@2@@std@@@std@@@std@@U_Iterator_base0@2@@1@@Z 000000018000fa20 f i riskHelper.obj
 0001:0000ec00       ??$_Buynode@AEBV?$basic_string@DU?$char_traits@D@std@@V?$allocator@D@2@@std@@@?$_List_buy@V?$basic_string@DU?$char_traits@D@std@@V?$allocator@D@2@@std@@V?$allocator@V?$basic_string@DU?$char_traits@D@std@@V?$allocator@D@2@@std@@@2@@std@@QEAAPEAU?$_List_node@V?$basic_string@DU?$char_traits@D@std@@V?$allocator@D@2@@std@@PEAX@1@PEAU21@0AEBV?$basic_string@DU?$char_traits@D@std@@V?$allocator@D@2@@1@@Z 000000018000fc00 f i riskHelper.obj
 0001:0000ec6c       ??_E?$basic_ifstream@DU?$char_traits@D@std@@@std@@$4PPPPPPPM@A@EAAPEAXI@Z 000000018000fc6c f i riskHelper.obj
 0001:0000ec78       ??_E?$basic_ofstream@DU?$char_traits@D@std@@@std@@$4PPPPPPPM@A@EAAPEAXI@Z 000000018000fc78 f i riskHelper.obj
 0001:0000ec84       ??_ERiskHelper@@WFHI@EAAPEAXI@Z 000000018000fc84 f i riskHelper.obj
 0001:0000ec90       ?_Buynode0@?$_List_alloc@U?$_List_base_types@V?$basic_string@DU?$char_traits@D@std@@V?$allocator@D@2@@std@@V?$allocator@V?$basic_string@DU?$char_traits@D@std@@V?$allocator@D@2@@std@@@2@@std@@@std@@QEAAPEAU?$_List_node@V?$basic_string@DU?$char_traits@D@std@@V?$allocator@D@2@@std@@PEAX@2@PEAU32@0@Z 000000018000fc90 f i riskHelper.obj
 0001:0000ece0       ??0bad_cast@std@@QEAA@XZ   000000018000fce0 f i riskHelper.obj
 0001:0000ed00       ??1bad_cast@std@@UEAA@XZ   000000018000fd00 f i riskHelper.obj
 0001:0000ed20       ??_Ebad_cast@std@@UEAAPEAXI@Z 000000018000fd20 f i * CIL library *:* CIL module *
 0001:0000ed20       ??_Eexception@std@@UEAAPEAXI@Z 000000018000fd20 f i * CIL library *:* CIL module *
 0001:0000ed20       ??_Gbad_cast@std@@UEAAPEAXI@Z 000000018000fd20 f i riskHelper.obj
 0001:0000ed20       ??_Gexception@std@@UEAAPEAXI@Z 000000018000fd20 f i riskHelper.obj
 0001:0000ed70       ??0bad_cast@std@@QEAA@AEBV01@@Z 000000018000fd70 f i riskHelper.obj
 0001:0000edb0       ?what@exception@std@@UEBAPEBDXZ 000000018000fdb0 f i riskHelper.obj
 0001:0000edd0       ??0exception@std@@QEAA@AEBV01@@Z 000000018000fdd0 f i riskHelper.obj
 0001:0000ee10       ?_Make_iter@?$_Hash@V?$_Uset_traits@V?$basic_string@DU?$char_traits@D@std@@V?$allocator@D@2@@std@@V?$_Uhash_compare@V?$basic_string@DU?$char_traits@D@std@@V?$allocator@D@2@@std@@U?$hash@V?$basic_string@DU?$char_traits@D@std@@V?$allocator@D@2@@std@@@2@U?$equal_to@V?$basic_string@DU?$char_traits@D@std@@V?$allocator@D@2@@std@@@2@@2@V?$allocator@V?$basic_string@DU?$char_traits@D@std@@V?$allocator@D@2@@std@@@2@$0A@@std@@@std@@QEBA?AV?$_List_const_iterator@V?$_List_val@U?$_List_simple_types@V?$basic_string@DU?$char_traits@D@std@@V?$allocator@D@2@@std@@@std@@@std@@@2@V?$_List_unchecked_const_iterator@V?$_List_val@U?$_List_simple_types@V?$basic_string@DU?$char_traits@D@std@@V?$allocator@D@2@@std@@@std@@@std@@U_Iterator_base0@2@@2@@Z 000000018000fe10 f i riskHelper.obj
 0001:0000ee10       ?_Make_iter@?$_Hash@V?$_Uset_traits@PEAVStockPair@@V?$_Uhash_compare@PEAVStockPair@@U?$hash@PEAVStockPair@@@std@@U?$equal_to@PEAVStockPair@@@3@@std@@V?$allocator@PEAVStockPair@@@3@$0A@@std@@@std@@QEBA?AV?$_List_const_iterator@V?$_List_val@U?$_List_simple_types@PEAVStockPair@@@std@@@std@@@2@V?$_List_unchecked_const_iterator@V?$_List_val@U?$_List_simple_types@PEAVStockPair@@@std@@@std@@U_Iterator_base0@2@@2@@Z 000000018000fe10 f i StockComparator.obj
 0001:0000ee20       ??1locale@std@@QEAA@XZ     000000018000fe20 f i riskHelper.obj
 0001:0000ee60       ??1?$list@V?$basic_string@DU?$char_traits@D@std@@V?$allocator@D@2@@std@@V?$allocator@V?$basic_string@DU?$char_traits@D@std@@V?$allocator@D@2@@std@@@2@@std@@QEAA@XZ 000000018000fe60 f i riskHelper.obj
 0001:0000eed0       ??$_Integral_to_string@DI@std@@YA?AV?$basic_string@DU?$char_traits@D@std@@V?$allocator@D@2@@0@I@Z 000000018000fed0 f i riskHelper.obj
 0001:0000ef70       ?to_string@std@@YA?AV?$basic_string@DU?$char_traits@D@std@@V?$allocator@D@2@@1@I@Z 000000018000ff70 f i riskHelper.obj
 0001:0000ef90       ?CreateTitle@@YA?AV?$basic_string@DU?$char_traits@D@std@@V?$allocator@D@2@@std@@AEBQEBDAEB_K@Z 000000018000ff90 f   MainDialog.obj
 0001:0000f010       ??0MainDialog@@QEAA@PEBD_K0@Z 0000000180010010 f   MainDialog.obj
 0001:0000f140       ??_GMainDialog@@UEAAPEAXI@Z 0000000180010140 f i MainDialog.obj
 0001:0000f140       ??_EMainDialog@@UEAAPEAXI@Z 0000000180010140 f i * CIL library *:* CIL module *
 0001:0000f190       ?OnInitDialog@MainDialog@@MEAAHXZ 0000000180010190 f   MainDialog.obj
 0001:0000f2a0       ??_GTakionSettingTabDialog@@UEAAPEAXI@Z 00000001800102a0 f i MainDialog.obj
 0001:0000f2a0       ??_ETakionSettingTabDialog@@UEAAPEAXI@Z 00000001800102a0 f i * CIL library *:* CIL module *
 0001:0000f2f0       ?BeforeDestroy@MainDialog@@MEAAXXZ 00000001800102f0 f   MainDialog.obj
 0001:0000f320       ?CurrentAccountSet@MainDialog@@UEAA_NPEAVAccount@@@Z 0000000180010320 f   MainDialog.obj
 0001:0000f380       ?GetObjectValue@MySecurityPriceRowValue@@UEBAAEBVPrice@@XZ 0000000180010380 f i MyMarketSorter.obj
 0001:0000f390       ??_GMySecurityPriceRowValue@@UEAAPEAXI@Z 0000000180010390 f i MyMarketSorter.obj
 0001:0000f390       ??_EMySecurityPriceRowValue@@UEAAPEAXI@Z 0000000180010390 f i * CIL library *:* CIL module *
 0001:0000f3d0       ?GetObjectValue@MySecurityCompactPriceRowValue@@UEBAAEBIXZ 00000001800103d0 f i MyMarketSorter.obj
 0001:0000f3e0       ??_GMySecurityCompactPriceRowValue@@UEAAPEAXI@Z 00000001800103e0 f i MyMarketSorter.obj
 0001:0000f3e0       ??_EMySecurityCompactPriceRowValue@@UEAAPEAXI@Z 00000001800103e0 f i * CIL library *:* CIL module *
 0001:0000f420       ?isValueChanged@MySecurityPriceRowValueDiffAsUIntDividedByFirst@@UEBA_NXZ 0000000180010420 f i MyMarketSorter.obj
 0001:0000f420       ?isValueChanged@MySecurityPriceRowValueDiffAsUInt@@UEBA_NXZ 0000000180010420 f i MyMarketSorter.obj
 0001:0000f470       ?CompareAhead@MySecurityPriceRowValueDiffAsUInt@@UEBAFAEBVRowValue@@@Z 0000000180010470 f i MyMarketSorter.obj
 0001:0000f510       ?UpdateValue@MySecurityPriceRowValueDiffAsUInt@@UEAA_NXZ 0000000180010510 f i MyMarketSorter.obj
 0001:0000f5b0       ?isObjectValueZero@MySecurityPriceRowValueDiffAsUInt@@UEBA_NXZ 00000001800105b0 f i MyMarketSorter.obj
 0001:0000f5b0       ?isObjectValueZero@MySecurityPriceRowValueDiffAsUIntDividedByFirst@@UEBA_NXZ 00000001800105b0 f i MyMarketSorter.obj
 0001:0000f5f0       ?isValueZero@MySecurityPriceRowValueDiffAsUInt@@UEBA_NXZ 00000001800105f0 f i MyMarketSorter.obj
 0001:0000f5f0       ?isValueZero@MySecurityPriceRowValueDiffAsUIntDividedByFirst@@UEBA_NXZ 00000001800105f0 f i MyMarketSorter.obj
 0001:0000f610       ?InitializeValue@MySecurityPriceRowValueDiffAsUInt@@MEAAXXZ 0000000180010610 f i MyMarketSorter.obj
 0001:0000f6b0       ??_GMySecurityPriceRowValueDiffAsUIntDividedByFirst@@UEAAPEAXI@Z 00000001800106b0 f i MyMarketSorter.obj
 0001:0000f6b0       ??_EMySecurityPriceRowValueDiffAsUInt@@UEAAPEAXI@Z 00000001800106b0 f i * CIL library *:* CIL module *
 0001:0000f6b0       ??_EMySecurityPriceRowValueDiffAsUIntDividedByFirst@@UEAAPEAXI@Z 00000001800106b0 f i * CIL library *:* CIL module *
 0001:0000f6b0       ??_GMySecurityPriceRowValueDiffAsUInt@@UEAAPEAXI@Z 00000001800106b0 f i MyMarketSorter.obj
 0001:0000f6f0       ?CompareAhead@MySecurityPriceRowValueDiffAsUIntDividedByFirst@@UEBAFAEBVRowValue@@@Z 00000001800106f0 f i MyMarketSorter.obj
 0001:0000f7a0       ?UpdateValue@MySecurityPriceRowValueDiffAsUIntDividedByFirst@@UEAA_NXZ 00000001800107a0 f i MyMarketSorter.obj
 0001:0000f850       ?InitializeValue@MySecurityPriceRowValueDiffAsUIntDividedByFirst@@MEAAXXZ 0000000180010850 f i MyMarketSorter.obj
 0001:0000f8f0       ?SetPosition@MyPositionIntInventoryRowValue@@UEAAXPEBVPositionData@@@Z 00000001800108f0 f i MyMarketSorter.obj
 0001:0000f900       ?GetObjectValue@MyPositionIntInventoryRowValueNull@@UEBAAEBHXZ 0000000180010900 f i MyMarketSorter.obj
 0001:0000f930       ??_GMyPositionIntInventoryRowValueNull@@UEAAPEAXI@Z 0000000180010930 f i MyMarketSorter.obj
 0001:0000f930       ??_EMyPositionIntInventoryRowValueNull@@UEAAPEAXI@Z 0000000180010930 f i * CIL library *:* CIL module *
 0001:0000f970       ?GetToolId@MyMarketSorter@@UEBAPEBDXZ 0000000180010970 f i MyMarketSorter.obj
 0001:0000f980       ?ObjectPotentiallyBelongs@MyMarketSorter@@UEBA_NPEBX@Z 0000000180010980 f i MyMarketSorter.obj
 0001:0000f9e0       ?RowBelongs@MyMarketSorter@@UEBAEPEBVRowSortable@@@Z 00000001800109e0 f i MyMarketSorter.obj
 0001:0000fa10       ?ExistingRowBelongs@MyMarketSorter@@UEBAEPEBVRowSortable@@@Z 0000000180010a10 f i MyMarketSorter.obj
 0001:0000fa20       ?GetBuiltInColumnCount@MyMarketSorter@@UEBAGXZ 0000000180010a20 f i MyMarketSorter.obj
 0001:0000fa30       ?GetBaseObject@MyMarketSorterRow@@UEBAPEBXXZ 0000000180010a30 f i MyMarketSorter.obj
 0001:0000fa40       ?GetRowSecuritySymbol@MyMarketSorterRow@@UEBAPEBDPEBVCPoint@@@Z 0000000180010a40 f i MyMarketSorter.obj
 0001:0000fa60       ?GetRowNumericSymbol@MyMarketSorterRow@@UEBAAEB_KXZ 0000000180010a60 f i MyMarketSorter.obj
 0001:0000fa80       ?GetRowPosition@MyMarketSorterRow@@UEBAPEBVPositionData@@PEBVCPoint@@@Z 0000000180010a80 f i MyMarketSorter.obj
 0001:0000fa90       ?ProcessDataToken@ScUnappliedMessageReader@@UEBA_NPEBDG@Z 0000000180010a90 f   StockComparator.obj
 0001:0000fa90       ?ProcessDataToken@MmsUnappliedMessageReader@@UEBA_NPEBDG@Z 0000000180010a90 f   MyMarketSorter.obj
 0001:0000fb50       ??0MyMarketSorterRow@@QEAA@PEAVMyMarketSorter@@PEAVSecurity@@PEBVPosition@@_N@Z 0000000180010b50 f   MyMarketSorter.obj
 0001:00010240       ??_GMyMarketSorterRow@@UEAAPEAXI@Z 0000000180011240 f i MyMarketSorter.obj
 0001:00010240       ??_EMyMarketSorterRow@@UEAAPEAXI@Z 0000000180011240 f i * CIL library *:* CIL module *
 0001:000102a0       ?GetRowColor@MyMarketSorterRow@@UEBAKXZ 00000001800112a0 f   MyMarketSorter.obj
 0001:000102b0       ?GetRowBkColor@StockComparatorRow@@UEBAKXZ 00000001800112b0 f   StockComparator.obj
 0001:000102b0       ?GetRowBkColor@MyMarketSorterRow@@UEBAKXZ 00000001800112b0 f   MyMarketSorter.obj
 0001:000102b0       ?GetCellBkColor@StockComparatorRow@@UEBAKG@Z 00000001800112b0 f   StockComparator.obj
 0001:000102b0       ?GetCellBkColor@MyMarketSorterRow@@UEBAKG@Z 00000001800112b0 f   MyMarketSorter.obj
 0001:000102c0       ?GetCellColor@MyMarketSorterRow@@UEBAKG@Z 00000001800112c0 f   MyMarketSorter.obj
 0001:000102f0       ?CreateCell@MyMarketSorterRow@@UEAAPEAVRowValue@@G@Z 00000001800112f0 f   MyMarketSorter.obj
 0001:000108c0       ?Notify@MyMarketSorterRow@@MEAAXPEBVMessage@@PEBVObservable@@0@Z 00000001800118c0 f   MyMarketSorter.obj
 0001:00010bd0       ?Lock@MyMarketSorterRow@@UEBA_N_N@Z 0000000180011bd0 f   MyMarketSorter.obj
 0001:00010bd0       ?Lock1@StockComparatorRow@@QEBA_N_N@Z 0000000180011bd0 f   StockComparator.obj
 0001:00010c60       ?Unlock@MyMarketSorterRow@@UEBAXXZ 0000000180011c60 f   MyMarketSorter.obj
 0001:00010ca0       ?PreCompare@MyMarketSorterRow@@UEBAFAEBVRowSortable@@@Z 0000000180011ca0 f   MyMarketSorter.obj
 0001:00010ce0       ?DefaultCompare@MyMarketSorterRow@@UEBAFAEBVRowSortable@@@Z 0000000180011ce0 f   MyMarketSorter.obj
 0001:00010d40       ?CompareFunction@MyMarketSorterRow@@UEBA_NAEBVRowSortable@@GAEAF@Z 0000000180011d40 f   MyMarketSorter.obj
 0001:00010dc0       ?CompareFunctionAhead@MyMarketSorterRow@@UEBA_NAEBVRowSortable@@GAEAF@Z 0000000180011dc0 f   MyMarketSorter.obj
 0001:00010e40       ?GetPaintTextInfo@MyMarketSorterRow@@UEBA_NGAEAV?$basic_string@DU?$char_traits@D@std@@V?$allocator@D@2@@std@@AEAK@Z 0000000180011e40 f   MyMarketSorter.obj
 0001:00010ec0       ?Update@StockComparatorRow@@UEAAX_N@Z 0000000180011ec0 f   StockComparator.obj
 0001:00010ec0       ?Update@MyMarketSorterRow@@UEAAX_N@Z 0000000180011ec0 f   MyMarketSorter.obj
 0001:00010ed0       ?UpdateAndInvalidate@StockComparatorRow@@UEAAXAEAVCRect@@_N@Z 0000000180011ed0 f   StockComparator.obj
 0001:00010ed0       ?UpdateAndInvalidate@MyMarketSorterRow@@UEAAXAEAVCRect@@_N@Z 0000000180011ed0 f   MyMarketSorter.obj
 0001:00010ee0       ?Initialize@MyMarketSorterRow@@UEAAXXZ 0000000180011ee0 f   MyMarketSorter.obj
 0001:00010f10       ?GetSelectedSecurity@MyMarketSorterRow@@UEBAPEBVSecurity@@XZ 0000000180011f10 f   MyMarketSorter.obj
 0001:00010f10       ?GetSelectedSecurity@StockComparatorRow@@UEBAPEBVSecurity@@XZ 0000000180011f10 f   StockComparator.obj
 0001:00010f20       ?SetPosition@MyMarketSorterRow@@UEAA_NPEBVPosition@@@Z 0000000180011f20 f   MyMarketSorter.obj
 0001:00010f70       ?PaintSymbol@MyMarketSorterRow@@QEBAXAEAV?$basic_string@DU?$char_traits@D@std@@V?$allocator@D@2@@std@@AEAK@Z 0000000180011f70 f   MyMarketSorter.obj
 0001:00010fa0       ?CompareSymbol@MyMarketSorterRow@@QEBAFAEBV1@@Z 0000000180011fa0 f   MyMarketSorter.obj
 0001:00010ff0       ?PaintExchange@MyMarketSorterRow@@QEBAXAEAV?$basic_string@DU?$char_traits@D@std@@V?$allocator@D@2@@std@@AEAK@Z 0000000180011ff0 f   MyMarketSorter.obj
 0001:00011030       ?CompareExchange@MyMarketSorterRow@@QEBAFAEBV1@@Z 0000000180012030 f   MyMarketSorter.obj
 0001:00011090       ?OnSuccessfulCreate@MyMarketSorter@@MEAAXXZ 0000000180012090 f   MyMarketSorter.obj
 0001:000115e0       ?SetAccount@MyMarketSorter@@UEAAXPEBVAccount@@@Z 00000001800125e0 f   MyMarketSorter.obj
 0001:000115e0       ?SetAccount@StockComparator@@UEAAXPEBVAccount@@@Z 00000001800125e0 f   StockComparator.obj
 0001:00011620       ?AccountChanged@MyMarketSorter@@MEAAXXZ 0000000180012620 f   MyMarketSorter.obj
 0001:00011620       ?CurrentAccountConstraintsLoaded@MyMarketSorter@@UEAAXXZ 0000000180012620 f   MyMarketSorter.obj
 0001:00011630       ?CurrentAccountLoaded@MyMarketSorter@@UEAAXXZ 0000000180012630 f   MyMarketSorter.obj
 0001:00011650       ?AllAccountsDeleted@StockComparator@@UEAAXXZ 0000000180012650 f   StockComparator.obj
 0001:00011650       ?AllAccountsDeleted@MyMarketSorter@@UEAAXXZ 0000000180012650 f   MyMarketSorter.obj
 0001:00011660       ?Repopulate@MyMarketSorter@@MEAAXXZ 0000000180012660 f   MyMarketSorter.obj
 0001:00011700       ?UpdateAccountInfo@MyMarketSorter@@IEAAXXZ 0000000180012700 f   MyMarketSorter.obj
 0001:00011990       ?CreateRow@MyMarketSorter@@UEAAPEAVRow@@PEBX_N@Z 0000000180012990 f   MyMarketSorter.obj
 0001:00011a20       ?Notify@MyMarketSorter@@MEAAXPEBVMessage@@PEBVObservable@@0@Z 0000000180012a20 f   MyMarketSorter.obj
 0001:00011c10       ??0MyMarketSorter@@QEAA@PEBVCBitmap@@I_NGHHHHHHHPEBDHHH@Z 0000000180012c10 f   MyMarketSorter.obj
 0001:00011f40       ??_GMyMarketSorter@@UEAAPEAXI@Z 0000000180012f40 f i MyMarketSorter.obj
 0001:00011f40       ??_EMyMarketSorter@@UEAAPEAXI@Z 0000000180012f40 f i * CIL library *:* CIL module *
 0001:00011f90       ??1MyMarketSorter@@UEAA@XZ 0000000180012f90 f   MyMarketSorter.obj
 0001:00012010       ?GetBkColor@MyMarketSorter@@UEBAKXZ 0000000180013010 f   MyMarketSorter.obj
 0001:00012040       ?ToolAdded@StockComparator@@MEAAXXZ 0000000180013040 f   StockComparator.obj
 0001:00012040       ?ToolAdded@MyMarketSorter@@MEAAXXZ 0000000180013040 f   MyMarketSorter.obj
 0001:00012090       ?Clone@MyMarketSorter@@UEBAPEAVTakionTool@@XZ 0000000180013090 f   MyMarketSorter.obj
 0001:000120f0       ?OnHidden@MyMarketSorter@@MEAAXXZ 00000001800130f0 f   MyMarketSorter.obj
 0001:000120f0       ?OnHidden@StockComparator@@MEAAXXZ 00000001800130f0 f   StockComparator.obj
 0001:00012150       ?SetMarketSorterConnected@MyMarketSorter@@MEAAX_N@Z 0000000180013150 f   MyMarketSorter.obj
 0001:00012190       ?SetMarketSorterLoaded@MyMarketSorter@@MEAAX_N@Z 0000000180013190 f   MyMarketSorter.obj
 0001:000121c0       ?GetMessageMap@MyMarketSorter@@MEBAPEBUAFX_MSGMAP@@XZ 00000001800131c0 f   MyMarketSorter.obj
 0001:000121d0       ?GetThisMessageMap@MyMarketSorter@@KAPEBUAFX_MSGMAP@@XZ 00000001800131d0 f   MyMarketSorter.obj
 0001:00012240       ?OnDrawItem@MyMarketSorter@@IEAAXHPEAUtagDRAWITEMSTRUCT@@@Z 0000000180013240 f   MyMarketSorter.obj
 0001:00012310       ?OnMeasureItem@MyMarketSorter@@IEAAXHPEAUtagMEASUREITEMSTRUCT@@@Z 0000000180013310 f   MyMarketSorter.obj
 0001:000123a0       ?AddMenuItems@MyMarketSorter@@MEAAXAEAVCMenu@@@Z 00000001800133a0 f   MyMarketSorter.obj
 0001:00012620       ?PostAddMenuItems@MyMarketSorter@@MEAAXAEAVCMenu@@@Z 0000000180013620 f   MyMarketSorter.obj
 0001:00012620       ?PostAddMenuItems@StockComparator@@MEAAXAEAVCMenu@@@Z 0000000180013620 f   StockComparator.obj
 0001:00012630       ?NextDayStarted@MyMarketSorter@@MEAAXXZ 0000000180013630 f   MyMarketSorter.obj
 0001:00012630       ?NextDayStarted@StockComparator@@MEAAXXZ 0000000180013630 f   StockComparator.obj
 0001:00012640       ?BeforeDestroy@MyMarketSorter@@MEAAXXZ 0000000180013640 f   MyMarketSorter.obj
 0001:00012640       ?BeforeDestroy@StockComparator@@MEAAXXZ 0000000180013640 f   StockComparator.obj
 0001:000126b0       ?isRowActiveSymbol@MyMarketSorter@@UEBA_NPEBVRowSortable@@@Z 00000001800136b0 f   MyMarketSorter.obj
 0001:000126d0       ?FindRowActiveSymbol@MyMarketSorter@@UEBAPEAVRowSortable@@AEB_K0@Z 00000001800136d0 f   MyMarketSorter.obj
 0001:00012780       ?ActiveSymbolAboutToChange@MyMarketSorter@@MEAAXAEB_K0@Z 0000000180013780 f   MyMarketSorter.obj
 0001:000127b0       ?ActiveSymbolChanged@MyMarketSorter@@MEAA_NXZ 00000001800137b0 f   MyMarketSorter.obj
 0001:000127d0       ?toString@MyMarketSorter@@UEBAXAEAV?$basic_string@DU?$char_traits@D@std@@V?$allocator@D@2@@std@@I@Z 00000001800137d0 f   MyMarketSorter.obj
 0001:00012820       ?fromString@MyMarketSorter@@UEAAXAEAPEBD_K_NI@Z 0000000180013820 f   MyMarketSorter.obj
 0001:000128f0       ?fromScratch@MyMarketSorter@@UEAAXXZ 00000001800138f0 f   MyMarketSorter.obj
 0001:00012920       ?ProcessKeyDown@MyMarketSorter@@MEAA_NEE_NPEAVTakionFrame@@@Z 0000000180013920 f   MyMarketSorter.obj
 0001:00012ab0       ?AcceptText@MyMarketSorter@@MEAAXPEBDI@Z 0000000180013ab0 f   MyMarketSorter.obj
 0001:00012b20       ?SelectSymbol@MyMarketSorter@@QEAAXPEBD@Z 0000000180013b20 f   MyMarketSorter.obj
 0001:00012b70       ?OnCommand@MyMarketSorter@@MEAAH_K_J@Z 0000000180013b70 f   MyMarketSorter.obj
 0001:00012cd0       ?SwitchRealTestFilter@MyMarketSorter@@IEAAXW4MyRealTestStockEnum@@@Z 0000000180013cd0 f   MyMarketSorter.obj
 0001:00012d30       ?SetMarketCategoryFilter@MyMarketSorter@@IEAAXI@Z 0000000180013d30 f   MyMarketSorter.obj
 0001:00012d98       ??_9Security@@$BFGA@AA     0000000180013d98 f i MyMarketSorter.obj
 0001:00012da4       ??_9Security@@$BELI@AA     0000000180013da4 f i MyMarketSorter.obj
 0001:00012db0       ??_9Security@@$BCNI@AA     0000000180013db0 f i MyMarketSorter.obj
 0001:00012dbc       ??_EMyMarketSorterRow@@WGA@EAAPEAXI@Z 0000000180013dbc f i MyMarketSorter.obj
 0001:00012dc8       ??_EMyMarketSorter@@WBAII@EAAPEAXI@Z 0000000180013dc8 f i MyMarketSorter.obj
 0001:00012dd4       ??_9Security@@$BFGI@AA     0000000180013dd4 f i MyMarketSorter.obj
 0001:00012de0       ??_9Security@@$BCOA@AA     0000000180013de0 f i MyMarketSorter.obj
 0001:00012dec       ??_EMyMarketSorter@@WFJA@EAAPEAXI@Z 0000000180013dec f i MyMarketSorter.obj
 0001:00012df8       ??_9Security@@$BDCA@AA     0000000180013df8 f i MyMarketSorter.obj
 0001:00012e10       ??_EPositionIntInventoryRowValueNull@@UEAAPEAXI@Z 0000000180013e10 f i * CIL library *:* CIL module *
 0001:00012e10       ??_GPositionIntInventoryRowValueNull@@UEAAPEAXI@Z 0000000180013e10 f i MyMarketSorter.obj
 0001:00012e50       ??1CMenu@@UEAA@XZ          0000000180013e50 f i MyMarketSorter.obj
 0001:00012e80       ??_GCMenu@@UEAAPEAXI@Z     0000000180013e80 f i MyMarketSorter.obj
 0001:00012e80       ??_ECMenu@@UEAAPEAXI@Z     0000000180013e80 f i * CIL library *:* CIL module *
 0001:00012ee0       ?SetAccount@StockBase@@QEAA_NPEBVAccount@@@Z 0000000180013ee0 f i SampleDialogSettingLevel2InThread.obj
 0001:00012f70       ?CurrentAccountSet@ListBoxStockLevel2@@QEAAXPEAVAccount@@@Z 0000000180013f70 f   SampleDialogSettingLevel2InThread.obj
 0001:00012ff0       ??_ERingMessageItem@@UEAAPEAXI@Z 0000000180013ff0 f i * CIL library *:* CIL module *
 0001:00012ff0       ??_GRingMessageItem@@UEAAPEAXI@Z 0000000180013ff0 f i SampleDialogSettingTestRequest.obj
 0001:00013020       ?AddMessageReport@SampleDialogSettingTestRequest@@QEAAXEPEBVMessage@@_N@Z 0000000180014020 f   SampleDialogSettingTestRequest.obj
 0001:00013120       ??_GRingVectorBaseItem@@UEAAPEAXI@Z 0000000180014120 f i SampleDialogSettingTestRequest.obj
 0001:00013120       ??_ERingVectorBaseItem@@UEAAPEAXI@Z 0000000180014120 f i * CIL library *:* CIL module *
 0001:00013150       ?FindItemByOrdinal@ListBoxExtensionWindow@@QEBAHI@Z 0000000180014150 f   SampleDialogSettingWindow.obj
 0001:00013240       ?TakionWindowAdded@ListBoxExtensionWindow@@QEAAHPEAVTakionTool@@@Z 0000000180014240 f   SampleDialogSettingWindow.obj
 0001:000132d0       ?TakionWindowRemoved@ListBoxExtensionWindow@@QEAAHPEAVTakionTool@@@Z 00000001800142d0 f   SampleDialogSettingWindow.obj
 0001:00013390       ?GetWindowsLayout@SampleDialogSettingWindow@@QEBA_NAEAV?$map@IV?$basic_string@DU?$char_traits@D@std@@V?$allocator@D@2@@std@@U?$less@I@2@V?$allocator@U?$pair@$$CBIV?$basic_string@DU?$char_traits@D@std@@V?$allocator@D@2@@std@@@std@@@2@@std@@I@Z 0000000180014390 f   SampleDialogSettingWindow.obj
 0001:000134e0       ??$_Insert_nohint@U?$pair@$$CBIV?$basic_string@DU?$char_traits@D@std@@V?$allocator@D@2@@std@@@std@@U_Nil@2@@?$_Tree@V?$_Tmap_traits@IV?$basic_string@DU?$char_traits@D@std@@V?$allocator@D@2@@std@@U?$less@I@2@V?$allocator@U?$pair@$$CBIV?$basic_string@DU?$char_traits@D@std@@V?$allocator@D@2@@std@@@std@@@2@$0A@@std@@@std@@IEAA?AU?$pair@V?$_Tree_iterator@V?$_Tree_val@U?$_Tree_simple_types@U?$pair@$$CBIV?$basic_string@DU?$char_traits@D@std@@V?$allocator@D@2@@std@@@std@@@std@@@std@@@std@@_N@1@_N$$QEAU?$pair@$$CBIV?$basic_string@DU?$char_traits@D@std@@V?$allocator@D@2@@std@@@1@U_Nil@1@@Z 00000001800144e0 f i SampleDialogSettingWindow.obj
 0001:00013630       ??$_Insert_at@U?$pair@$$CBIV?$basic_string@DU?$char_traits@D@std@@V?$allocator@D@2@@std@@@std@@U_Nil@2@@?$_Tree@V?$_Tmap_traits@IV?$basic_string@DU?$char_traits@D@std@@V?$allocator@D@2@@std@@U?$less@I@2@V?$allocator@U?$pair@$$CBIV?$basic_string@DU?$char_traits@D@std@@V?$allocator@D@2@@std@@@std@@@2@$0A@@std@@@std@@IEAA?AV?$_Tree_iterator@V?$_Tree_val@U?$_Tree_simple_types@U?$pair@$$CBIV?$basic_string@DU?$char_traits@D@std@@V?$allocator@D@2@@std@@@std@@@std@@@std@@@1@_NPEAU?$_Tree_node@U?$pair@$$CBIV?$basic_string@DU?$char_traits@D@std@@V?$allocator@D@2@@std@@@std@@PEAX@1@$$QEAU?$pair@$$CBIV?$basic_string@DU?$char_traits@D@std@@V?$allocator@D@2@@std@@@1@U_Nil@1@@Z 0000000180014630 f i SampleDialogSettingWindow.obj
 0001:00013900       ??$_Buynode@U?$pair@$$CBIV?$basic_string@DU?$char_traits@D@std@@V?$allocator@D@2@@std@@@std@@@?$_Tree_comp_alloc@V?$_Tmap_traits@IV?$basic_string@DU?$char_traits@D@std@@V?$allocator@D@2@@std@@U?$less@I@2@V?$allocator@U?$pair@$$CBIV?$basic_string@DU?$char_traits@D@std@@V?$allocator@D@2@@std@@@std@@@2@$0A@@std@@@std@@QEAAPEAU?$_Tree_node@U?$pair@$$CBIV?$basic_string@DU?$char_traits@D@std@@V?$allocator@D@2@@std@@@std@@PEAX@1@$$QEAU?$pair@$$CBIV?$basic_string@DU?$char_traits@D@std@@V?$allocator@D@2@@std@@@1@@Z 0000000180014900 f i SampleDialogSettingWindow.obj
 0001:00013960       ?_Buynode0@?$_Tree_comp_alloc@V?$_Tmap_traits@IV?$basic_string@DU?$char_traits@D@std@@V?$allocator@D@2@@std@@U?$less@I@2@V?$allocator@U?$pair@$$CBIV?$basic_string@DU?$char_traits@D@std@@V?$allocator@D@2@@std@@@std@@@2@$0A@@std@@@std@@QEAAPEAU?$_Tree_node@U?$pair@$$CBIV?$basic_string@DU?$char_traits@D@std@@V?$allocator@D@2@@std@@@std@@PEAX@2@XZ 0000000180014960 f i SampleDialogSettingWindow.obj
 0001:000139b0       ?_AtlInitializeCriticalSectionEx@ATL@@YAHPEAU_RTL_CRITICAL_SECTION@@KK@Z 00000001800149b0 f i stdafx.obj
 0001:000139c0       ??0SecurityPriceAsUIntRowValueDiffNull@@QEAA@AEBQEBVSecurity@@0PEB_NPEBE1P81@EBAAEBIXZ_N44@Z 00000001800149c0 f i StockComparator.obj
 0001:00013a60       ??_ESecurityPriceAsUIntRowValueDiffNull@@UEAAPEAXI@Z 0000000180014a60 f i * CIL library *:* CIL module *
 0001:00013a60       ??_GSecurityPriceAsUIntRowValueDiffNull@@UEAAPEAXI@Z 0000000180014a60 f i StockComparator.obj
 0001:00013aa0       ??$HashKey@AEAVPairKey@@@@YAIAEAVPairKey@@@Z 0000000180014aa0 f i StockComparator.obj
 0001:00013b30       ?SetSecurity@StockPair@@QEAAEAEBQEBVSecurity@@@Z 0000000180014b30 f i StockComparator.obj
 0001:00013bd0       ??_GStockPair@@UEAAPEAXI@Z 0000000180014bd0 f i StockComparator.obj
 0001:00013bd0       ??_EStockPair@@UEAAPEAXI@Z 0000000180014bd0 f i * CIL library *:* CIL module *
 0001:00013c30       ??_ESecurityChartRow2@@UEAAPEAXI@Z 0000000180014c30 f i * CIL library *:* CIL module *
 0001:00013c30       ??_GSecurityChartRow2@@UEAAPEAXI@Z 0000000180014c30 f i StockComparator.obj
 0001:00013c70       ??1SecurityChartRow2@@UEAA@XZ 0000000180014c70 f i StockComparator.obj
 0001:00013c80       ?GetToolId@StockComparator@@UEBAPEBDXZ 0000000180014c80 f i StockComparator.obj
 0001:00013c90       ?GetBuiltInColumnCount@StockComparator@@UEBAGXZ 0000000180014c90 f i StockComparator.obj
 0001:00013ca0       ?GetBaseObject@StockComparatorRow@@UEBAPEBXXZ 0000000180014ca0 f i StockComparator.obj
 0001:00013cb0       ?CalculatePrice@SecurityPriceAsUIntRowValueDiffNull@@SAXIIAEAVSignedPrice@@@Z 0000000180014cb0 f   StockComparator.obj
 0001:00013d50       ?isValueChanged@SecurityPriceAsUIntRowValueDiffNull@@UEBA_NXZ 0000000180014d50 f   StockComparator.obj
 0001:00013db0       ?CompareAhead@SecurityPriceAsUIntRowValueDiffNull@@UEBAFAEBVRowValue@@@Z 0000000180014db0 f   StockComparator.obj
 0001:00013e90       ?UpdateValue@SecurityPriceAsUIntRowValueDiffNull@@UEAA_NXZ 0000000180014e90 f   StockComparator.obj
 0001:00013f60       ?isObjectValueEmpty@SecurityPriceAsUIntRowValueDiffNull@@UEBA_NXZ 0000000180014f60 f   StockComparator.obj
 0001:00013fc0       ?isValueEmpty@SecurityPriceAsUIntRowValueDiffNull@@UEBA_NXZ 0000000180014fc0 f   StockComparator.obj
 0001:00013fe0       ?InitializeValue@SecurityPriceAsUIntRowValueDiffNull@@MEAAXXZ 0000000180014fe0 f   StockComparator.obj
 0001:00014050       ?Notify@SecurityChartRow2@@MEAAXPEBVMessage@@PEBVObservable@@0@Z 0000000180015050 f   StockComparator.obj
 0001:00014070       ??0StockComparatorRow@@QEAA@PEAVStockComparator@@PEAVStockPair@@PEAVPosition@@2_N@Z 0000000180015070 f   StockComparator.obj
 0001:00014510       ??_EStockComparatorRow@@UEAAPEAXI@Z 0000000180015510 f i * CIL library *:* CIL module *
 0001:00014510       ??_GStockComparatorRow@@UEAAPEAXI@Z 0000000180015510 f i StockComparator.obj
 0001:00014580       ?SetSecurity@StockComparatorRow@@UEAA_NPEBVSecurity@@@Z 0000000180015580 f   StockComparator.obj
 0001:00014690       ?PaintCell@StockComparatorRow@@UEBA_NAEAVCDC@@PEBVColumn@@AEAVCRect@@_NIHH@Z 0000000180015690 f   StockComparator.obj
 0001:000148f0       ?CellToString@StockComparatorRow@@UEBA_NAEAV?$basic_string@DU?$char_traits@D@std@@V?$allocator@D@2@@std@@G@Z 00000001800158f0 f   StockComparator.obj
 0001:000149c0       ?GetRowColor@StockComparatorRow@@UEBAKXZ 00000001800159c0 f   StockComparator.obj
 0001:000149d0       ?GetCellColor@StockComparatorRow@@UEBAKG@Z 00000001800159d0 f   StockComparator.obj
 0001:00014a60       ?CreateCell@StockComparatorRow@@UEAAPEAVRowValue@@G@Z 0000000180015a60 f   StockComparator.obj
 0001:00014d60       ?Notify@StockComparatorRow@@MEAAXPEBVMessage@@PEBVObservable@@0@Z 0000000180015d60 f   StockComparator.obj
 0001:000150e0       ?Lock2@StockComparatorRow@@QEBA_N_N@Z 00000001800160e0 f   StockComparator.obj
 0001:00015180       ?Lock@StockComparatorRow@@UEBA_N_N@Z 0000000180016180 f   StockComparator.obj
 0001:00015200       ?Unlock@StockComparatorRow@@UEBAXXZ 0000000180016200 f   StockComparator.obj
 0001:00015280       ?SetPosition@StockComparatorRow@@UEAA_NPEBVPosition@@@Z 0000000180016280 f   StockComparator.obj
 0001:00015310       ?isSortValueChanged@StockComparatorRow@@UEBA_NXZ 0000000180016310 f   StockComparator.obj
 0001:00015320       ?isChainSortValueChanged@StockComparatorRow@@UEBA_NXZ 0000000180016320 f   StockComparator.obj
 0001:00015330       ?Compare@StockComparatorRow@@UEBAFAEBVRowSortable@@@Z 0000000180016330 f   StockComparator.obj
 0001:000154e0       ?CompareAhead@StockComparatorRow@@UEBAFAEBVRowSortable@@@Z 00000001800164e0 f   StockComparator.obj
 0001:00015690       ?CompareChain@StockComparatorRow@@UEBAFAEBVRowSortable@@@Z 0000000180016690 f   StockComparator.obj
 0001:00015900       ?CompareChainAhead@StockComparatorRow@@UEBAFAEBVRowSortable@@@Z 0000000180016900 f   StockComparator.obj
 0001:00015b70       ?DefaultCompare@StockComparatorRow@@UEBAFAEBVRowSortable@@@Z 0000000180016b70 f   StockComparator.obj
 0001:00015c50       ?Initialize@StockComparatorRow@@UEAAXXZ 0000000180016c50 f   StockComparator.obj
 0001:00015c90       ??0StockComparator@@QEAA@PEBVCBitmap@@I_NGHHHHHHHPEBDHHH@Z 0000000180016c90 f   StockComparator.obj
 0001:000160d0       ??_GStockComparator@@UEAAPEAXI@Z 00000001800170d0 f i StockComparator.obj
 0001:000160d0       ??_EStockComparator@@UEAAPEAXI@Z 00000001800170d0 f i * CIL library *:* CIL module *
 0001:00016120       ??1StockComparator@@UEAA@XZ 0000000180017120 f   StockComparator.obj
 0001:00016240       ?GetBkColor@StockComparator@@UEBAKXZ 0000000180017240 f   StockComparator.obj
 0001:00016270       ?DestroyStockPairMap@StockComparator@@IEAAXXZ 0000000180017270 f   StockComparator.obj
 0001:000164a0       ?OnSuccessfulCreate@StockComparator@@MEAAXXZ 00000001800174a0 f   StockComparator.obj
 0001:00016840       ?Clone@StockComparator@@UEBAPEAVTakionTool@@XZ 0000000180017840 f   StockComparator.obj
 0001:000168a0       ?toString@StockComparator@@UEBAXAEAV?$basic_string@DU?$char_traits@D@std@@V?$allocator@D@2@@std@@I@Z 00000001800178a0 f   StockComparator.obj
 0001:00016a00       ?fromString@StockComparator@@UEAAXAEAPEBD_K_NI@Z 0000000180017a00 f   StockComparator.obj
 0001:00016c10       ?fromScratch@StockComparator@@UEAAXXZ 0000000180017c10 f   StockComparator.obj
 0001:00016c20       ?Notify@StockComparator@@MEAAXPEBVMessage@@PEBVObservable@@0@Z 0000000180017c20 f   StockComparator.obj
 0001:00016eb0       ?CreateRow@StockComparator@@UEAAPEAVRow@@PEBX_N@Z 0000000180017eb0 f   StockComparator.obj
 0001:00016f50       ?AddRows@StockComparator@@QEAAXAEBV?$CMap@VPairKey@@AEAV1@VSignedPrice@@AEAV2@@@_N@Z 0000000180017f50 f   StockComparator.obj
 0001:00017180       ?UpdateAccountInfo@StockComparator@@IEAAXXZ 0000000180018180 f   StockComparator.obj
 0001:00017540       ?CurrentAccountConstraintsLoaded@StockComparator@@UEAAXXZ 0000000180018540 f   StockComparator.obj
 0001:00017540       ?AccountChanged@StockComparator@@MEAAXXZ 0000000180018540 f   StockComparator.obj
 0001:00017550       ?CurrentAccountLoaded@StockComparator@@UEAAXXZ 0000000180018550 f   StockComparator.obj
 0001:00017570       ?SetMarketSorterConnected@StockComparator@@MEAAX_N@Z 0000000180018570 f   StockComparator.obj
 0001:000175b0       ?SetMarketSorterLoaded@StockComparator@@MEAAX_N@Z 00000001800185b0 f   StockComparator.obj
 0001:000175e0       ?ClearAll@StockComparator@@UEAAXXZ 00000001800185e0 f   StockComparator.obj
 0001:00017600       ?RemoveSelected@StockComparator@@QEAAXXZ 0000000180018600 f   StockComparator.obj
 0001:00017780       ?AddMenuItems@StockComparator@@MEAAXAEAVCMenu@@@Z 0000000180018780 f   StockComparator.obj
 0001:000178a0       ?PasteStocksFromString@StockComparator@@UEAAXPEBD_K_N@Z 00000001800188a0 f   StockComparator.obj
 0001:00017e70       ?GetRowSecuritySymbol@StockComparatorRow@@UEBAPEBDPEBVCPoint@@@Z 0000000180018e70 f   StockComparator.obj
 0001:00017fb0       ?OnCommand@StockComparator@@MEAAH_K_J@Z 0000000180018fb0 f   StockComparator.obj
 0001:00018580       ?GetMessageMap@StockComparator@@MEBAPEBUAFX_MSGMAP@@XZ 0000000180019580 f   StockComparator.obj
 0001:00018590       ?GetThisMessageMap@StockComparator@@KAPEBUAFX_MSGMAP@@XZ 0000000180019590 f   StockComparator.obj
 0001:00018600       ?isSortBySecurity@StockComparator@@QEBA_N_N@Z 0000000180019600 f   StockComparator.obj
 0001:000186b0       ?ApplyValue@StockComparator@@QEAAXPEAVStockComparatorRow@@AEBVSignedPrice@@@Z 00000001800196b0 f   StockComparator.obj
 0001:000187c0       ?ApplyNewPosition@StockComparator@@IEAAXPEAVStockComparatorRow@@PEBVPosition@@E@Z 00000001800197c0 f   StockComparator.obj
 0001:00018920       ?ApplyNewSecurity@StockComparator@@IEAAXPEAVStockComparatorRow@@PEBVSecurity@@E@Z 0000000180019920 f   StockComparator.obj
 0001:00018a70       ?RemoveStockPair@StockComparator@@IEAAPEAVStockPair@@PEAV2@@Z 0000000180019a70 f   StockComparator.obj
 0001:00018bf0       ?SetValueToSelectedRows@StockComparator@@IEAAXAEBVSignedPrice@@@Z 0000000180019bf0 f   StockComparator.obj
 0001:00018cd0       ?AddStockPair@StockComparator@@IEAAXAEBVPairKey@@AEBVSignedPrice@@@Z 0000000180019cd0 f   StockComparator.obj
 0001:00018ef0       ?OnAddStockPair@StockComparator@@IEAA_J_K_J@Z 0000000180019ef0 f   StockComparator.obj
 0001:00019020       ?erase@?$_Hash@V?$_Uset_traits@PEAVStockPair@@V?$_Uhash_compare@PEAVStockPair@@U?$hash@PEAVStockPair@@@std@@U?$equal_to@PEAVStockPair@@@3@@std@@V?$allocator@PEAVStockPair@@@3@$0A@@std@@@std@@QEAA_KAEBQEAVStockPair@@@Z 000000018001a020 f i StockComparator.obj
 0001:000190f0       ??1?$_Hash@V?$_Uset_traits@PEAVStockPair@@V?$_Uhash_compare@PEAVStockPair@@U?$hash@PEAVStockPair@@@std@@U?$equal_to@PEAVStockPair@@@3@@std@@V?$allocator@PEAVStockPair@@@3@$0A@@std@@@std@@QEAA@XZ 000000018001a0f0 f i StockComparator.obj
 0001:00019170       ??0?$unordered_set@PEAVStockPair@@U?$hash@PEAVStockPair@@@std@@U?$equal_to@PEAVStockPair@@@3@V?$allocator@PEAVStockPair@@@3@@std@@QEAA@XZ 000000018001a170 f i StockComparator.obj
 0001:000191f0       ??1?$list@GV?$allocator@G@std@@@std@@QEAA@XZ 000000018001a1f0 f i StockComparator.obj
 0001:000191f0       ??1?$list@PEAVStockPair@@V?$allocator@PEAVStockPair@@@std@@@std@@QEAA@XZ 000000018001a1f0 f i StockComparator.obj
 0001:00019250       ?equal_range@?$_Hash@V?$_Uset_traits@PEAVStockPair@@V?$_Uhash_compare@PEAVStockPair@@U?$hash@PEAVStockPair@@@std@@U?$equal_to@PEAVStockPair@@@3@@std@@V?$allocator@PEAVStockPair@@@3@$0A@@std@@@std@@QEAA?AU?$pair@V?$_List_const_iterator@V?$_List_val@U?$_List_simple_types@PEAVStockPair@@@std@@@std@@@std@@V12@@2@AEBQEAVStockPair@@@Z 000000018001a250 f i StockComparator.obj
 0001:00019370       ?erase@?$_Hash@V?$_Uset_traits@PEAVStockPair@@V?$_Uhash_compare@PEAVStockPair@@U?$hash@PEAVStockPair@@@std@@U?$equal_to@PEAVStockPair@@@3@@std@@V?$allocator@PEAVStockPair@@@3@$0A@@std@@@std@@QEAA?AV?$_List_const_iterator@V?$_List_val@U?$_List_simple_types@PEAVStockPair@@@std@@@std@@@2@V32@@Z 000000018001a370 f i StockComparator.obj
 0001:00019470       ?RemoveKey@?$CMap@VPairKey@@AEAV1@PEAVStockPair@@PEAV2@@@QEAAHAEAVPairKey@@@Z 000000018001a470 f i StockComparator.obj
 0001:00019560       ?InitHashTable@?$CMap@VPairKey@@AEAV1@VSignedPrice@@AEAV2@@@QEAAXIH@Z 000000018001a560 f i StockComparator.obj
 0001:00019560       ?InitHashTable@?$CMap@VPairKey@@AEAV1@PEAVStockPair@@PEAV2@@@QEAAXIH@Z 000000018001a560 f i StockComparator.obj
 0001:00019560       ?InitHashTable@?$CMap@_K_KPEAVStockPairCollection@@PEAV1@@@QEAAXIH@Z 000000018001a560 f i StockComparator.obj
 0001:000195e0       ??1?$CMap@VPairKey@@AEAV1@PEAVStockPair@@PEAV2@@@UEAA@XZ 000000018001a5e0 f i StockComparator.obj
 0001:00019660       ?Serialize@?$CMap@VPairKey@@AEAV1@PEAVStockPair@@PEAV2@@@UEAAXAEAVCArchive@@@Z 000000018001a660 f i StockComparator.obj
 0001:00019890       ?PLookup@?$CMap@_K_KPEAVStockPairCollection@@PEAV1@@@QEAAPEAUCPair@1@_K@Z 000000018001a890 f i StockComparator.obj
 0001:00019920       ?RemoveKey@?$CMap@_K_KPEAVStockPairCollection@@PEAV1@@@QEAAH_K@Z 000000018001a920 f i StockComparator.obj
 0001:00019a20       ??1?$CMap@_K_KPEAVStockPairCollection@@PEAV1@@@UEAA@XZ 000000018001aa20 f i StockComparator.obj
 0001:00019aa0       ?Serialize@?$CMap@_K_KPEAVStockPairCollection@@PEAV1@@@UEAAXAEAVCArchive@@@Z 000000018001aaa0 f i StockComparator.obj
 0001:00019d40       ??1?$CMap@VPairKey@@AEAV1@VSignedPrice@@AEAV2@@@UEAA@XZ 000000018001ad40 f i StockComparator.obj
 0001:00019dc0       ?Serialize@?$CMap@VPairKey@@AEAV1@VSignedPrice@@AEAV2@@@UEAAXAEAVCArchive@@@Z 000000018001adc0 f i StockComparator.obj
 0001:0001a000       ??_E?$CMap@VPairKey@@AEAV1@PEAVStockPair@@PEAV2@@@UEAAPEAXI@Z 000000018001b000 f i * CIL library *:* CIL module *
 0001:0001a000       ??_G?$CMap@VPairKey@@AEAV1@PEAVStockPair@@PEAV2@@@UEAAPEAXI@Z 000000018001b000 f i StockComparator.obj
 0001:0001a050       ??_E?$CMap@_K_KPEAVStockPairCollection@@PEAV1@@@UEAAPEAXI@Z 000000018001b050 f i * CIL library *:* CIL module *
 0001:0001a050       ??_G?$CMap@_K_KPEAVStockPairCollection@@PEAV1@@@UEAAPEAXI@Z 000000018001b050 f i StockComparator.obj
 0001:0001a0a0       ??_E?$CMap@VPairKey@@AEAV1@VSignedPrice@@AEAV2@@@UEAAPEAXI@Z 000000018001b0a0 f i * CIL library *:* CIL module *
 0001:0001a0a0       ??_G?$CMap@VPairKey@@AEAV1@VSignedPrice@@AEAV2@@@UEAAPEAXI@Z 000000018001b0a0 f i StockComparator.obj
 0001:0001a0f0       ??A?$CMap@VPairKey@@AEAV1@PEAVStockPair@@PEAV2@@@QEAAAEAPEAVStockPair@@AEAVPairKey@@@Z 000000018001b0f0 f i StockComparator.obj
 0001:0001a1c0       ??A?$CMap@_K_KPEAVStockPairCollection@@PEAV1@@@QEAAAEAPEAVStockPairCollection@@_K@Z 000000018001b1c0 f i StockComparator.obj
 0001:0001a2a0       ??A?$CMap@VPairKey@@AEAV1@VSignedPrice@@AEAV2@@@QEAAAEAVSignedPrice@@AEAVPairKey@@@Z 000000018001b2a0 f i StockComparator.obj
 0001:0001a370       ??$_Insert@AEBQEAVStockPair@@U_Nil@std@@@?$_Hash@V?$_Uset_traits@PEAVStockPair@@V?$_Uhash_compare@PEAVStockPair@@U?$hash@PEAVStockPair@@@std@@U?$equal_to@PEAVStockPair@@@3@@std@@V?$allocator@PEAVStockPair@@@3@$0A@@std@@@std@@IEAA?AU?$pair@V?$_List_const_iterator@V?$_List_val@U?$_List_simple_types@PEAVStockPair@@@std@@@std@@@std@@_N@1@AEBQEAVStockPair@@U_Nil@1@@Z 000000018001b370 f i StockComparator.obj
 0001:0001a560       ??$SerializeElements@VPairKey@@@@YAXAEAVCArchive@@PEAVPairKey@@_J@Z 000000018001b560 f i StockComparator.obj
 0001:0001a640       ??$SerializeElements@PEAVStockPairCollection@@@@YAXAEAVCArchive@@PEAPEAVStockPairCollection@@_J@Z 000000018001b640 f i StockComparator.obj
 0001:0001a710       ??$_Buynode@G@?$_List_buy@GV?$allocator@G@std@@@std@@QEAAPEAU?$_List_node@GPEAX@1@PEAU21@0$$QEAG@Z 000000018001b710 f i StockComparator.obj
 0001:0001a740       ?_Check_size@?$_Hash@V?$_Uset_traits@PEAVStockPair@@V?$_Uhash_compare@PEAVStockPair@@U?$hash@PEAVStockPair@@@std@@U?$equal_to@PEAVStockPair@@@3@@std@@V?$allocator@PEAVStockPair@@@3@$0A@@std@@@std@@IEAAXXZ 000000018001b740 f i StockComparator.obj
 0001:0001a800       ?_Buynode0@?$_List_alloc@U?$_List_base_types@PEAVStockPair@@V?$allocator@PEAVStockPair@@@std@@@std@@@std@@QEAAPEAU?$_List_node@PEAVStockPair@@PEAX@2@PEAU32@0@Z 000000018001b800 f i StockComparator.obj
 0001:0001a800       ?_Buynode0@?$_List_alloc@U?$_List_base_types@GV?$allocator@G@std@@@std@@@std@@QEAAPEAU?$_List_node@GPEAX@2@PEAU32@0@Z 000000018001b800 f i StockComparator.obj
 0001:0001a850       ?NewAssoc@?$CMap@VPairKey@@AEAV1@PEAVStockPair@@PEAV2@@@IEAAPEAVCAssoc@1@AEAVPairKey@@@Z 000000018001b850 f i StockComparator.obj
 0001:0001a910       ?NewAssoc@?$CMap@_K_KPEAVStockPairCollection@@PEAV1@@@IEAAPEAVCAssoc@1@_K@Z 000000018001b910 f i StockComparator.obj
 0001:0001a9c0       ?NewAssoc@?$CMap@VPairKey@@AEAV1@VSignedPrice@@AEAV2@@@IEAAPEAVCAssoc@1@AEAVPairKey@@@Z 000000018001b9c0 f i StockComparator.obj
 0001:0001aa80       ??$_Insert@AEBQEAVStockPair@@V?$_List_unchecked_const_iterator@V?$_List_val@U?$_List_simple_types@PEAVStockPair@@@std@@@std@@U_Iterator_base0@2@@std@@@?$_Hash@V?$_Uset_traits@PEAVStockPair@@V?$_Uhash_compare@PEAVStockPair@@U?$hash@PEAVStockPair@@@std@@U?$equal_to@PEAVStockPair@@@3@@std@@V?$allocator@PEAVStockPair@@@3@$0A@@std@@@std@@IEAA?AU?$pair@V?$_List_const_iterator@V?$_List_val@U?$_List_simple_types@PEAVStockPair@@@std@@@std@@@std@@_N@1@AEBQEAVStockPair@@V?$_List_unchecked_const_iterator@V?$_List_val@U?$_List_simple_types@PEAVStockPair@@@std@@@std@@U_Iterator_base0@2@@1@@Z 000000018001ba80 f i StockComparator.obj
 0001:0001ac40       ??$_Buynode@AEBQEAVStockPair@@@?$_List_buy@PEAVStockPair@@V?$allocator@PEAVStockPair@@@std@@@std@@QEAAPEAU?$_List_node@PEAVStockPair@@PEAX@1@PEAU21@0AEBQEAVStockPair@@@Z 000000018001bc40 f i StockComparator.obj
 0001:0001ac64       ??_EStockComparator@@WFJA@EAAPEAXI@Z 000000018001bc64 f i StockComparator.obj
 0001:0001ac70       ??_EStockComparatorRow@@WGA@EAAPEAXI@Z 000000018001bc70 f i StockComparator.obj
 0001:0001ac7c       ??_EStockComparator@@WBAII@EAAPEAXI@Z 000000018001bc7c f i StockComparator.obj
 0001:0001ac90       ??_GPositionSecurityCompactPriceRowValue@@UEAAPEAXI@Z 000000018001bc90 f i StockComparator.obj
 0001:0001ac90       ??_EPositionSecurityCompactPriceRowValue@@UEAAPEAXI@Z 000000018001bc90 f i * CIL library *:* CIL module *
 0001:0001acd0       ??_EPositionIntRowValueNull@@UEAAPEAXI@Z 000000018001bcd0 f i * CIL library *:* CIL module *
 0001:0001acd0       ??_GPositionIntRowValueNull@@UEAAPEAXI@Z 000000018001bcd0 f i StockComparator.obj
 0001:0001ad06       ?BeforeDestroy@TakionDialog@@MEAAXXZ 000000018001bd06 f   UtilsGui:UtilsGui.dll
 0001:0001ad0c       ?OnInitDialog@TakionDialog@@MEAAHXZ 000000018001bd0c f   UtilsGui:UtilsGui.dll
 0001:0001ad12       ?GetMessageMap@TakionSettingPageBase@@MEBAPEBUAFX_MSGMAP@@XZ 000000018001bd12 f   UtilsGui:UtilsGui.dll
 0001:0001ad18       ?OnNotify@TakionDialog@@MEAAH_K_JPEA_J@Z 000000018001bd18 f   UtilsGui:UtilsGui.dll
 0001:0001ad1e       ?PreTranslateMessage@TakionSettingDialog@@UEAAHPEAUtagMSG@@@Z 000000018001bd1e f   UtilsGui:UtilsGui.dll
 0001:0001ad24       ?DoModal@TakionDialog@@UEAA_JXZ 000000018001bd24 f   UtilsGui:UtilsGui.dll
 0001:0001ad2a       ?OnOK@TakionSettingDialog@@UEAAXXZ 000000018001bd2a f   UtilsGui:UtilsGui.dll
 0001:0001ad30       ?OnCancel@TakionDialog@@UEAAXXZ 000000018001bd30 f   UtilsGui:UtilsGui.dll
 0001:0001ad36       ?GetBkColor@TakionDialog@@UEBAKXZ 000000018001bd36 f   UtilsGui:UtilsGui.dll
 0001:0001ad3c       ?GetBkBrush@TakionDialog@@UEBAPEAVCBrush@@XZ 000000018001bd3c f   UtilsGui:UtilsGui.dll
 0001:0001ad42       ?isOrderDialog@TakionDialog@@UEBA_NXZ 000000018001bd42 f   UtilsGui:UtilsGui.dll
 0001:0001ad48       ?isToDestroyOnFocus@TakionDialog@@UEBA_NXZ 000000018001bd48 f   UtilsGui:UtilsGui.dll
 0001:0001ad4e       ?GetCurrentLeaf@TakionSettingPageBase@@UEBAPEBVTakionSettingDialog@@XZ 000000018001bd4e f   UtilsGui:UtilsGui.dll
 0001:0001ad54       ?GetCurrentLeaf@TakionSettingPageBase@@UEAAPEAVTakionSettingDialog@@XZ 000000018001bd54 f   UtilsGui:UtilsGui.dll
 0001:0001ad5a       ?GetFirstTabControl@TakionDialog@@UEBAPEAUHWND__@@XZ 000000018001bd5a f   UtilsGui:UtilsGui.dll
 0001:0001ad60       ?Apply@TakionSettingDialog@@UEAAXXZ 000000018001bd60 f   UtilsGui:UtilsGui.dll
 0001:0001ad66       ?Help@TakionDialog@@UEAAXXZ 000000018001bd66 f   UtilsGui:UtilsGui.dll
 0001:0001ad6c       ?GetHelpUrl@TakionDialog@@UEBA?AV?$basic_string@DU?$char_traits@D@std@@V?$allocator@D@2@@std@@XZ 000000018001bd6c f   UtilsGui:UtilsGui.dll
 0001:0001ad72       ?GetTotalValue@TakionDialog@@UEBAPEBDIGPEADI@Z 000000018001bd72 f   UtilsGui:UtilsGui.dll
 0001:0001ad78       ?GetTitleRect@TakionDialog@@UEBAXPEBVListBoxOwnerDraw@@AEAVCRect@@1@Z 000000018001bd78 f   UtilsGui:UtilsGui.dll
 0001:0001ad7e       ?isPointForRButtonMenuOk@TakionSettingPageBase@@UEBA_NIVCPoint@@@Z 000000018001bd7e f   UtilsGui:UtilsGui.dll
 0001:0001ad84       ?isPointForNcRButtonMenuOk@TakionSettingPageBase@@UEBA_NIVCPoint@@@Z 000000018001bd84 f   UtilsGui:UtilsGui.dll
 0001:0001ad8a       ?UpdateFrameBottom@TakionDialog@@UEAA_NXZ 000000018001bd8a f   UtilsGui:UtilsGui.dll
 0001:0001ad90       ?UpdateFrameRight@TakionDialog@@UEAA_NXZ 000000018001bd90 f   UtilsGui:UtilsGui.dll
 0001:0001ad96       ?HasActiveRectMenu@TakionDialog@@UEBA_NPEBVActiveRect@@@Z 000000018001bd96 f   UtilsGui:UtilsGui.dll
 0001:0001ad9c       ?isTooltipConfigValid@TakionSettingDialog@@MEBA_NXZ 000000018001bd9c f   UtilsGui:UtilsGui.dll
 0001:0001ada2       ?isToolTipsEnabledAdditional@TakionSettingDialog@@MEBA_NXZ 000000018001bda2 f   UtilsGui:UtilsGui.dll
 0001:0001ada8       ?isToolTipsEnabled@TakionSettingDialog@@MEBA_NXZ 000000018001bda8 f   UtilsGui:UtilsGui.dll
 0001:0001adae       ?InitControls@TakionDialog@@MEAAXXZ 000000018001bdae f   UtilsGui:UtilsGui.dll
 0001:0001adb4       ?DisplayMenu@TakionSettingPageBase@@MEAAXAEBVCPoint@@@Z 000000018001bdb4 f   UtilsGui:UtilsGui.dll
 0001:0001adba       ?PreAddMenuItems@TakionDialog@@MEAAXAEAVCMenu@@@Z 000000018001bdba f   UtilsGui:UtilsGui.dll
 0001:0001adc0       ?AddMenuItems@TakionDialog@@MEAAXAEAVCMenu@@@Z 000000018001bdc0 f   UtilsGui:UtilsGui.dll
 0001:0001adc6       ?PostAddMenuItems@TakionDialog@@MEAAXAEAVCMenu@@@Z 000000018001bdc6 f   UtilsGui:UtilsGui.dll
 0001:0001adcc       ?DrawMenuItem@TakionDialog@@MEAAXPEAUtagDRAWITEMSTRUCT@@@Z 000000018001bdcc f   UtilsGui:UtilsGui.dll
 0001:0001add2       ?MeasureMenuItem@TakionDialog@@MEAA_NPEAUtagMEASUREITEMSTRUCT@@@Z 000000018001bdd2 f   UtilsGui:UtilsGui.dll
 0001:0001add8       ?DialogCancelled@TakionDialog@@MEAAXXZ 000000018001bdd8 f   UtilsGui:UtilsGui.dll
 0001:0001adde       ?ResizeControlsInitialized@TakionDialog@@MEAAXXZ 000000018001bdde f   UtilsGui:UtilsGui.dll
 0001:0001ade4       ?OnResizeToFrame@TakionDialog@@MEAAXXZ 000000018001bde4 f   UtilsGui:UtilsGui.dll
 0001:0001adea       ?isCloseOnEnter@TakionSettingDialog@@MEBA_NXZ 000000018001bdea f   UtilsGui:UtilsGui.dll
 0001:0001adf0       ?TitleScrolledHorizontally@TakionDialog@@MEAAXIAEBVCRect@@H@Z 000000018001bdf0 f   UtilsGui:UtilsGui.dll
 0001:0001adf6       ?TotalScrolledHorizontally@TakionDialog@@MEAAXIAEBVCRect@@H@Z 000000018001bdf6 f   UtilsGui:UtilsGui.dll
 0001:0001adfc       ?PreWheel@TakionDialog@@MEAA_NIFVCPoint@@@Z 000000018001bdfc f   UtilsGui:UtilsGui.dll
 0001:0001ae02       ?Leaving@TakionDialog@@MEAAXXZ 000000018001be02 f   UtilsGui:UtilsGui.dll
 0001:0001ae08       ?FinishDialog@TakionDialog@@MEAAXH@Z 000000018001be08 f   UtilsGui:UtilsGui.dll
 0001:0001ae0e       ?AfterClose@TakionDialog@@MEAAXXZ 000000018001be0e f   UtilsGui:UtilsGui.dll
 0001:0001ae14       ?MouseEntered@TakionDialog@@MEAAXXZ 000000018001be14 f   UtilsGui:UtilsGui.dll
 0001:0001ae1a       ?MouseLeft@TakionDialog@@MEAAXXZ 000000018001be1a f   UtilsGui:UtilsGui.dll
 0001:0001ae20       ?NcMouseEntered@TakionDialog@@MEAAXXZ 000000018001be20 f   UtilsGui:UtilsGui.dll
 0001:0001ae26       ?NcMouseLeft@TakionDialog@@MEAAXXZ 000000018001be26 f   UtilsGui:UtilsGui.dll
 0001:0001ae2c       ?DCCreated@TakionDialog@@MEAAXXZ 000000018001be2c f   UtilsGui:UtilsGui.dll
 0001:0001ae32       ?LBDragEnter@TakionDialog@@MEAA_JAEAUDRAGDROPINFO@@IPEAVListBoxOwnerDraw@@@Z 000000018001be32 f   UtilsGui:UtilsGui.dll
 0001:0001ae38       ?LBItemDraggedAndDropped@TakionDialog@@MEAAXIGG@Z 000000018001be38 f   UtilsGui:UtilsGui.dll
 0001:0001ae3e       ?LBDragDropDone@TakionDialog@@MEAAXIHH@Z 000000018001be3e f   UtilsGui:UtilsGui.dll
 0001:0001ae44       ?LBDragDropAbort@TakionDialog@@MEAAXIH@Z 000000018001be44 f   UtilsGui:UtilsGui.dll
 0001:0001ae4a       ?ItemDropped@TakionDialog@@MEAAHPEAUHWND__@@PEAVListBoxOwnerDraw@@IPEAXAEAH@Z 000000018001be4a f   UtilsGui:UtilsGui.dll
 0001:0001ae50       ?ResizeMouseArea@TakionDialog@@MEAA_NAEBVCPoint@@@Z 000000018001be50 f   UtilsGui:UtilsGui.dll
 0001:0001ae56       ?UpdateResizeCursor@TakionDialog@@MEAAEAEBVCPoint@@_N@Z 000000018001be56 f   UtilsGui:UtilsGui.dll
 0001:0001ae5c       ?DoActivate@TakionDialog@@MEAAXI_N@Z 000000018001be5c f   UtilsGui:UtilsGui.dll
 0001:0001ae62       ?DoPaint@TakionDialog@@MEAAXAEBUtagRECT@@AEAVCDC@@@Z 000000018001be62 f   UtilsGui:UtilsGui.dll
 0001:0001ae68       ?DoAdditionalPaint@TakionDialog@@MEAAXAEBUtagRECT@@AEAVCDC@@@Z 000000018001be68 f   UtilsGui:UtilsGui.dll
 0001:0001ae6e       ?Resize@TakionDialog@@MEAAX_N0@Z 000000018001be6e f   UtilsGui:UtilsGui.dll
 0001:0001ae74       ?AfterControlsResized@TakionDialog@@MEAAX_N0@Z 000000018001be74 f   UtilsGui:UtilsGui.dll
 0001:0001ae7a       ?CreateToolTip@TakionDialog@@MEAA_NXZ 000000018001be7a f   UtilsGui:UtilsGui.dll
 0001:0001ae80       ?DestroyToolTip@TakionDialog@@MEAA_NXZ 000000018001be80 f   UtilsGui:UtilsGui.dll
 0001:0001ae86       ?ToolTipsEnabled@TakionDialog@@MEAAX_N@Z 000000018001be86 f   UtilsGui:UtilsGui.dll
 0001:0001ae8c       ?InitializeToolTips@TakionDialog@@MEAA_NXZ 000000018001be8c f   UtilsGui:UtilsGui.dll
 0001:0001ae92       ?PropagateToolTipsEnabled@TakionDialog@@MEAA_N_N@Z 000000018001be92 f   UtilsGui:UtilsGui.dll
 0001:0001ae98       ?ActiveRectChanged@TakionDialog@@MEAAXXZ 000000018001be98 f   UtilsGui:UtilsGui.dll
 0001:0001ae9e       ?AddActiveRectMenuItems@TakionDialog@@MEAAXAEAVCMenu@@PEBVActiveRect@@@Z 000000018001be9e f   UtilsGui:UtilsGui.dll
 0001:0001aea4       ?DoDisplaySelection@TakionDialog@@MEAA_NAEBVCRect@@_N1@Z 000000018001bea4 f   UtilsGui:UtilsGui.dll
 0001:0001aeaa       ?NoActiveRectPressed@TakionDialog@@MEAA_NXZ 000000018001beaa f   UtilsGui:UtilsGui.dll
 0001:0001aeb0       ?OnMakeSelection@TakionDialog@@MEAAXXZ 000000018001beb0 f   UtilsGui:UtilsGui.dll
 0001:0001aeb6       ?isModified@TakionSettingDialog@@UEBA_NXZ 000000018001beb6 f   UtilsGui:UtilsGui.dll
 0001:0001aebc       ?isForceApply@TakionSettingDialog@@UEBA_NXZ 000000018001bebc f   UtilsGui:UtilsGui.dll
 0001:0001aec2       ?PrepareForSavingLayout@TakionSettingDialog@@UEAAXXZ 000000018001bec2 f   UtilsGui:UtilsGui.dll
 0001:0001aec8       ?UpdateSettings@TakionSettingDialog@@UEAAXXZ 000000018001bec8 f   UtilsGui:UtilsGui.dll
 0001:0001aece       ?UpdateControls@TakionSettingDialog@@UEAAXXZ 000000018001bece f   UtilsGui:UtilsGui.dll
 0001:0001aed4       ?PostInitDialog@TakionSettingDialog@@UEAAXXZ 000000018001bed4 f   UtilsGui:UtilsGui.dll
 0001:0001aeda       ?UpdateLeafControls@TakionSettingDialog@@UEAAXXZ 000000018001beda f   UtilsGui:UtilsGui.dll
 0001:0001aee0       ?isActiveTab@TakionSettingPageBase@@UEBA_NXZ 000000018001bee0 f   UtilsGui:UtilsGui.dll
 0001:0001aee6       ?GetSettingDialogs@TakionSettingDialog@@UEAAPEAV?$vector@PEAVTakionSettingDialog@@V?$allocator@PEAVTakionSettingDialog@@@std@@@std@@XZ 000000018001bee6 f   UtilsGui:UtilsGui.dll
 0001:0001aeec       ?isLeaf@TakionSettingPageBase@@UEBA_NXZ 000000018001beec f   UtilsGui:UtilsGui.dll
 0001:0001aef2       ?SetTabToOpen@TakionSettingDialog@@UEAA_NPEBDPEBX@Z 000000018001bef2 f   UtilsGui:UtilsGui.dll
 0001:0001aef8       ?SetInitialTab@TakionSettingDialog@@UEAAXXZ 000000018001bef8 f   UtilsGui:UtilsGui.dll
 0001:0001aefe       ?GetLevel@TakionSettingPageBase@@UEBAIXZ 000000018001befe f   UtilsGui:UtilsGui.dll
 0001:0001af04       ?GetCurrentTab@TakionSettingDialog@@UEBAHXZ 000000018001bf04 f   UtilsGui:UtilsGui.dll
 0001:0001af0a       ?GetMainTabDialog@TakionSettingDialog@@UEBAPEBVTakionSettingTabDialog@@XZ 000000018001bf0a f   UtilsGui:UtilsGui.dll
 0001:0001af10       ?GetMainTabDialog@TakionSettingDialog@@UEAAPEAVTakionSettingTabDialog@@XZ 000000018001bf10 f   UtilsGui:UtilsGui.dll
 0001:0001af16       ?GetTopDialogWidth@TakionSettingDialog@@UEBAHXZ 000000018001bf16 f   UtilsGui:UtilsGui.dll
 0001:0001af1c       ?GetTopDialogHeight@TakionSettingDialog@@UEBAHXZ 000000018001bf1c f   UtilsGui:UtilsGui.dll
 0001:0001af22       ?RestoreLayout@TakionSettingDialog@@UEAAXXZ 000000018001bf22 f   UtilsGui:UtilsGui.dll
 0001:0001af28       ?SameLayoutOnRestore@TakionSettingDialog@@UEAAXXZ 000000018001bf28 f   UtilsGui:UtilsGui.dll
 0001:0001af2e       ?GetOkButton@TakionSettingDialog@@UEAAAEAVCButton@@XZ 000000018001bf2e f   UtilsGui:UtilsGui.dll
 0001:0001af34       ?GetApplyButton@TakionSettingDialog@@UEAAAEAVCButton@@XZ 000000018001bf34 f   UtilsGui:UtilsGui.dll
 0001:0001af3a       ?GetOnTopCheckBox@TakionSettingDialog@@UEAAAEAVCButton@@XZ 000000018001bf3a f   UtilsGui:UtilsGui.dll
 0001:0001af40       ?GetToolTipsCheckBox@TakionSettingDialog@@UEAAAEAVCButton@@XZ 000000018001bf40 f   UtilsGui:UtilsGui.dll
 0001:0001af46       ?GetCancelButton@TakionSettingDialog@@UEAAAEAVCButton@@XZ 000000018001bf46 f   UtilsGui:UtilsGui.dll
 0001:0001af4c       ?GetHelpButton@TakionSettingDialog@@UEAAAEAVCButton@@XZ 000000018001bf4c f   UtilsGui:UtilsGui.dll
 0001:0001af52       ?EnableApplyButton@TakionSettingDialog@@UEAAX_N@Z 000000018001bf52 f   UtilsGui:UtilsGui.dll
 0001:0001af58       ?EnableOkButton@TakionSettingDialog@@UEAAX_N@Z 000000018001bf58 f   UtilsGui:UtilsGui.dll
 0001:0001af5e       ?isAlarm@TakionSettingPageBase@@UEBA_NXZ 000000018001bf5e f   UtilsGui:UtilsGui.dll
 0001:0001af64       ?SetAlarm@TakionSettingPageBase@@UEAAX_NI@Z 000000018001bf64 f   UtilsGui:UtilsGui.dll
 0001:0001af6a       ?OnPageCommand@TakionSettingDialog@@UEAA_NK@Z 000000018001bf6a f   UtilsGui:UtilsGui.dll
 0001:0001af70       ?AddPageMenuItems@TakionSettingDialog@@UEBAXAEAVCMenu@@AEBVCPoint@@@Z 000000018001bf70 f   UtilsGui:UtilsGui.dll
 0001:0001af76       ?DrawPageMenuItems@TakionSettingDialog@@UEBA_NPEBUtagDRAWITEMSTRUCT@@@Z 000000018001bf76 f   UtilsGui:UtilsGui.dll
 0001:0001af7c       ?MeasurePageMenuItems@TakionSettingDialog@@UEBA_NPEAUtagMEASUREITEMSTRUCT@@@Z 000000018001bf7c f   UtilsGui:UtilsGui.dll
 0001:0001af82       ?SetupControls@TakionSettingDialog@@MEAAXXZ 000000018001bf82 f   UtilsGui:UtilsGui.dll
 0001:0001af88       ?NullifyInitInfo@TakionSettingDialog@@MEAAXXZ 000000018001bf88 f   UtilsGui:UtilsGui.dll
 0001:0001af8e       ?DoApplyInitInfo@TakionSettingDialog@@MEAAXXZ 000000018001bf8e f   UtilsGui:UtilsGui.dll
 0001:0001af94       ?DestroyInitInfo@TakionSettingDialog@@MEAAXPEBX@Z 000000018001bf94 f   UtilsGui:UtilsGui.dll
 0001:0001af9a       ?SetActiveTab@TakionSettingPageBase@@MEAAX_N@Z 000000018001bf9a f   UtilsGui:UtilsGui.dll
 0001:0001afa0       ?SettingPageDestroyed@TakionSettingPageBase@@MEAAXXZ 000000018001bfa0 f   UtilsGui:UtilsGui.dll
 0001:0001afa6       ?isExecuteCommands@TakionDialogInterface@@UEBA_NXZ 000000018001bfa6 f   UtilsGui:UtilsGui.dll
 0001:0001afac       ?isCloseOnCommandExecution@TakionDialogInterface@@UEBA_NXZ 000000018001bfac f   UtilsGui:UtilsGui.dll
 0001:0001afb2       ?CloseDialog@TakionSettingDialog@@UEAAXXZ 000000018001bfb2 f   UtilsGui:UtilsGui.dll
 0001:0001afb8       ?AdjustFrameRect@TakionDialog@@UEAAXXZ 000000018001bfb8 f   UtilsGui:UtilsGui.dll
 0001:0001afbe       ?OffsetFrameRectAndMove@TakionDialog@@UEAAXHH@Z 000000018001bfbe f   UtilsGui:UtilsGui.dll
 0001:0001afc4       ?DragWindow@TakionDialog@@UEAAXHH@Z 000000018001bfc4 f   UtilsGui:UtilsGui.dll
 0001:0001afca       ?SetFrameRect@TakionDialog@@UEAAXAEBVCRect@@@Z 000000018001bfca f   UtilsGui:UtilsGui.dll
 0001:0001afd0       ?MoveToFrameRect@TakionDialog@@UEAAXXZ 000000018001bfd0 f   UtilsGui:UtilsGui.dll
 0001:0001afd6       ?UpdateSystemRects@TakionDialogInterface@@UEAAXXZ 000000018001bfd6 f   UtilsGui:UtilsGui.dll
 0001:0001afdc       ?GetInsideScreen@TakionDialogInterface@@UEBA_NAEAVCRect@@@Z 000000018001bfdc f   UtilsGui:UtilsGui.dll
 0001:0001afe2       ?OnMouseForcedReleaseCapture@TakionDialog@@UEAAXXZ 000000018001bfe2 f   UtilsGui:UtilsGui.dll
 0001:0001afe8       ?GetHwnd@TakionDialog@@UEBAPEAUHWND__@@XZ 000000018001bfe8 f   UtilsGui:UtilsGui.dll
 0001:0001afee       ?BeforeDestroy@TakionSpin@@MEAAXXZ 000000018001bfee f   UtilsGui:UtilsGui.dll
 0001:0001aff4       ?MouseLeft@TakionSpin@@MEAAXXZ 000000018001bff4 f   UtilsGui:UtilsGui.dll
 0001:0001affa       ?MouseEntered@TakionCustomControl@@MEAAXXZ 000000018001bffa f   UtilsGui:UtilsGui.dll
 0001:0001b000       ?UpdateTooltipText@ControlToolTipHelper@@MEAAXXZ 000000018001c000 f   UtilsGui:UtilsGui.dll
 0001:0001b006       ?GetToolTipText@ControlToolTipHelper@@UEBAPEBDXZ 000000018001c006 f   UtilsGui:UtilsGui.dll
 0001:0001b00c       ?ToolTipCreated@ControlToolTipHelper@@MEAAXXZ 000000018001c00c f   UtilsGui:UtilsGui.dll
 0001:0001b012       ?CanCreateToolTip@ControlToolTipHelper@@UEBA_NXZ 000000018001c012 f   UtilsGui:UtilsGui.dll
 0001:0001b018       ?GetToolTipRect@ControlToolTipHelper@@UEBAAEBVCRect@@XZ 000000018001c018 f   UtilsGui:UtilsGui.dll
 0001:0001b01e       ?isToDestroyToolTipIfNoText@ControlToolTipHelper@@UEBA_NXZ 000000018001c01e f   UtilsGui:UtilsGui.dll
 0001:0001b024       ?UpdateValueStr@TakionSpin@@MEAAX_N@Z 000000018001c024 f   UtilsGui:UtilsGui.dll
 0001:0001b02a       ?NotifyParentAboutValueChange@TakionSpin@@MEAAX_N@Z 000000018001c02a f   UtilsGui:UtilsGui.dll
 0001:0001b030       ?AllVisible@TakionSpin@@UEBA_NXZ 000000018001c030 f   UtilsGui:UtilsGui.dll
 0001:0001b036       ?ProcessCtrlChar@TakionSpin@@UEAA_NE_N0@Z 000000018001c036 f   UtilsGui:UtilsGui.dll
 0001:0001b03c       ?ProcessDigit@TakionSpin@@UEAA_NE_N0@Z 000000018001c03c f   UtilsGui:UtilsGui.dll
 0001:0001b042       ?GetEditRightOffset@TakionSpin@@UEBAHXZ 000000018001c042 f   UtilsGui:UtilsGui.dll
 0001:0001b048       ?GetEditLeftOffset@TakionSpin@@UEBAHXZ 000000018001c048 f   UtilsGui:UtilsGui.dll
 0001:0001b04e       ?WantChars@TakionTextCustomControl@@UEBA_NXZ 000000018001c04e f   UtilsGui:UtilsGui.dll
 0001:0001b054       ?GetOutEditCursor@TakionTextCustomControl@@UEBAPEAUHICON__@@XZ 000000018001c054 f   UtilsGui:UtilsGui.dll
 0001:0001b05a       ?GetInEditCursor@TakionTextCustomControl@@UEBAPEAUHICON__@@XZ 000000018001c05a f   UtilsGui:UtilsGui.dll
 0001:0001b060       ?isPasteAvailable@TakionTextCustomControl@@UEBA_NXZ 000000018001c060 f   UtilsGui:UtilsGui.dll
 0001:0001b066       ?isContentEmpty@TakionTextCustomControl@@UEBA_NXZ 000000018001c066 f   UtilsGui:UtilsGui.dll
 0001:0001b06c       ?isContentValid@TakionTextCustomControl@@UEBA_NXZ 000000018001c06c f   UtilsGui:UtilsGui.dll
 0001:0001b072       ?CalculateEditRectRight@TakionSpin@@UEBAHXZ 000000018001c072 f   UtilsGui:UtilsGui.dll
 0001:0001b078       ?CalculateEditRectLeft@TakionSpin@@UEBAHXZ 000000018001c078 f   UtilsGui:UtilsGui.dll
 0001:0001b07e       ?OnBuildCaret@TakionSpin@@MEAAXXZ 000000018001c07e f   UtilsGui:UtilsGui.dll
 0001:0001b084       ?DoUpdateCaretPosition@TakionSpin@@MEAAXXZ 000000018001c084 f   UtilsGui:UtilsGui.dll
 0001:0001b08a       ?PreSetMouseFocus@TakionCustomControl@@MEAAXXZ 000000018001c08a f   UtilsGui:UtilsGui.dll
 0001:0001b090       ?BorderColorChanged@TakionSpin@@MEAAXXZ 000000018001c090 f   UtilsGui:UtilsGui.dll
 0001:0001b096       ?UpdateTextRectsHeight@TakionSpin@@MEAA_NXZ 000000018001c096 f   UtilsGui:UtilsGui.dll
 0001:0001b09c       ?OnFontChange@TakionSpin@@MEAAXPEAVCDC@@@Z 000000018001c09c f   UtilsGui:UtilsGui.dll
 0001:0001b0a2       ?FocusLost@TakionSpin@@MEAAXXZ 000000018001c0a2 f   UtilsGui:UtilsGui.dll
 0001:0001b0a8       ?FocusGained@TakionSpin@@MEAAXXZ 000000018001c0a8 f   UtilsGui:UtilsGui.dll
 0001:0001b0ae       ?Wheel@TakionSpin@@MEAAXFIVCPoint@@@Z 000000018001c0ae f   UtilsGui:UtilsGui.dll
 0001:0001b0b4       ?SetClientCursor@TakionTextCustomControl@@MEAA_NXZ 000000018001c0b4 f   UtilsGui:UtilsGui.dll
 0001:0001b0ba       ?AddMenuItems@TakionTextCustomControl@@MEAAXAEAVCMenu@@@Z 000000018001c0ba f   UtilsGui:UtilsGui.dll
 0001:0001b0c0       ?DisplayClientMenu@TakionCustomControl@@MEAAXIVCPoint@@@Z 000000018001c0c0 f   UtilsGui:UtilsGui.dll
 0001:0001b0c6       ?MeasureMenuItem@TakionTextCustomControl@@MEAA_NPEAUtagMEASUREITEMSTRUCT@@@Z 000000018001c0c6 f   UtilsGui:UtilsGui.dll
 0001:0001b0cc       ?DrawMenuItem@TakionTextCustomControl@@MEAAXPEAUtagDRAWITEMSTRUCT@@@Z 000000018001c0cc f   UtilsGui:UtilsGui.dll
 0001:0001b0d2       ?DoAdditionalPaint@TakionCustomControl@@MEAAXAEBUtagRECT@@AEAVCDC@@@Z 000000018001c0d2 f   UtilsGui:UtilsGui.dll
 0001:0001b0d8       ?DoPaintClient@TakionSpin@@MEAAXAEBUtagRECT@@AEAVCDC@@@Z 000000018001c0d8 f   UtilsGui:UtilsGui.dll
 0001:0001b0de       ?DoPaint@TakionSpin@@MEAAXAEBUtagRECT@@AEAVCDC@@@Z 000000018001c0de f   UtilsGui:UtilsGui.dll
 0001:0001b0e4       ?PaintBackground@TakionCustomControl@@MEAAXAEBUtagRECT@@AEAVCDC@@@Z 000000018001c0e4 f   UtilsGui:UtilsGui.dll
 0001:0001b0ea       ?DoSize@TakionSpin@@MEAAXIHHHH@Z 000000018001c0ea f   UtilsGui:UtilsGui.dll
 0001:0001b0f0       ?Resize@TakionCustomControl@@MEAAXIHH@Z 000000018001c0f0 f   UtilsGui:UtilsGui.dll
 0001:0001b0f6       ?OnEnabledStatusChange@TakionSpin@@MEAAXXZ 000000018001c0f6 f   UtilsGui:UtilsGui.dll
 0001:0001b0fc       ?DcCreated@TakionCustomControl@@MEAAXXZ 000000018001c0fc f   UtilsGui:UtilsGui.dll
 0001:0001b102       ?ProcessKeyUp@TakionSpin@@MEAA_NII@Z 000000018001c102 f   UtilsGui:UtilsGui.dll
 0001:0001b108       ?ProcessKeyDown@TakionSpin@@MEAA_NIII@Z 000000018001c108 f   UtilsGui:UtilsGui.dll
 0001:0001b10e       ?HasMenu@TakionCustomControl@@UEBA_NXZ 000000018001c10e f   UtilsGui:UtilsGui.dll
 0001:0001b114       ?HasDisabledColor@TakionCustomControl@@UEBA_NXZ 000000018001c114 f   UtilsGui:UtilsGui.dll
 0001:0001b11a       ?GetMyFont@TakionCaretCustomControl@@UEAAPEAVCFont@@XZ 000000018001c11a f   UtilsGui:UtilsGui.dll
 0001:0001b120       ?GetCustomClassName@TakionSpin@@UEBAPEBDXZ 000000018001c120 f   UtilsGui:UtilsGui.dll
 0001:0001b126       ?PreTranslateMessage@TakionCustomControl@@MEAAHPEAUtagMSG@@@Z 000000018001c126 f   UtilsGui:UtilsGui.dll
 0001:0001b12c       ?OnNotify@TakionCustomControl@@MEAAH_K_JPEA_J@Z 000000018001c12c f   UtilsGui:UtilsGui.dll
 0001:0001b132       ?PreSubclassWindow@TakionSpin@@MEAAXXZ 000000018001c132 f   UtilsGui:UtilsGui.dll
 0001:0001b138       ?GetMessageMap@TakionSpin@@MEBAPEBUAFX_MSGMAP@@XZ 000000018001c138 f   UtilsGui:UtilsGui.dll
 0001:0001b13e       ?UpdateNegative@TakionSpin@@MEAAX_N@Z 000000018001c13e f   UtilsGui:UtilsGui.dll
 0001:0001b144       ?CalculateMaxFirstDigit@TakionSpin@@MEAA_NXZ 000000018001c144 f   UtilsGui:UtilsGui.dll
 0001:0001b14a       ?CalculateMaxLength@TakionSpin@@MEAA_NXZ 000000018001c14a f   UtilsGui:UtilsGui.dll
 0001:0001b150       ?ToggleNegative@TakionSpin@@UEAA_NAEB_N@Z 000000018001c150 f   UtilsGui:UtilsGui.dll
 0001:0001b156       ?SetNegative@TakionSpin@@UEAA_NAEB_N0@Z 000000018001c156 f   UtilsGui:UtilsGui.dll
 0001:0001b15c       ?isNegative@TakionSpin@@UEBA_NXZ 000000018001c15c f   UtilsGui:UtilsGui.dll
 0001:0001b162       ?isValuePositive@TakionSpin@@UEBA_NXZ 000000018001c162 f   UtilsGui:UtilsGui.dll
 0001:0001b168       ?isValueNegative@TakionSpin@@UEBA_NXZ 000000018001c168 f   UtilsGui:UtilsGui.dll
 0001:0001b16e       ?isSigned@TakionSpin@@UEBA_NXZ 000000018001c16e f   UtilsGui:UtilsGui.dll
 0001:0001b174       ?EnableOkButton@DialogReset@@MEAAXXZ 000000018001c174 f   UtilsGui:UtilsGui.dll
 0001:0001b17a       ?isValid@DialogReset@@UEBA_NXZ 000000018001c17a f   UtilsGui:UtilsGui.dll
 0001:0001b180       ?PreTranslateMessage@DialogReset@@MEAAHPEAUtagMSG@@@Z 000000018001c180 f   UtilsGui:UtilsGui.dll
 0001:0001b186       ?OnInitDialog@DialogValueReset@@MEAAHXZ 000000018001c186 f   UtilsGui:UtilsGui.dll
 0001:0001b18c       ?OnOK@TakionDialog@@UEAAXXZ 000000018001c18c f   UtilsGui:UtilsGui.dll
 0001:0001b192       ?OnCancel@FocusDialog@@UEAAXXZ 000000018001c192 f   UtilsGui:UtilsGui.dll
 0001:0001b198       ?isToDestroyOnFocus@FocusDialog@@UEBA_NXZ 000000018001c198 f   UtilsGui:UtilsGui.dll
 0001:0001b19e       ?GetCurrentLeaf@TakionDialog@@UEBAPEBVTakionSettingDialog@@XZ 000000018001c19e f   UtilsGui:UtilsGui.dll
 0001:0001b1a4       ?GetCurrentLeaf@TakionDialog@@UEAAPEAVTakionSettingDialog@@XZ 000000018001c1a4 f   UtilsGui:UtilsGui.dll
 0001:0001b1aa       ?Apply@DialogReset@@MEAAXXZ 000000018001c1aa f   UtilsGui:UtilsGui.dll
 0001:0001b1b0       ?isPointForRButtonMenuOk@TakionDialog@@UEBA_NIVCPoint@@@Z 000000018001c1b0 f   UtilsGui:UtilsGui.dll
 0001:0001b1b6       ?isPointForNcRButtonMenuOk@TakionDialog@@UEBA_NIVCPoint@@@Z 000000018001c1b6 f   UtilsGui:UtilsGui.dll
 0001:0001b1bc       ?isTooltipConfigValid@TakionDialog@@UEBA_NXZ 000000018001c1bc f   UtilsGui:UtilsGui.dll
 0001:0001b1c2       ?isToolTipsEnabledAdditional@TakionDialog@@UEBA_NXZ 000000018001c1c2 f   UtilsGui:UtilsGui.dll
 0001:0001b1c8       ?isToolTipsEnabled@TakionDialog@@UEBA_NXZ 000000018001c1c8 f   UtilsGui:UtilsGui.dll
 0001:0001b1ce       ?DisplayMenu@TakionDialog@@MEAAXAEBVCPoint@@@Z 000000018001c1ce f   UtilsGui:UtilsGui.dll
 0001:0001b1d4       ?isCloseOnEnter@TakionDialog@@MEBA_NXZ 000000018001c1d4 f   UtilsGui:UtilsGui.dll
 0001:0001b1da       ?Entering@TakionDialog@@MEAAXXZ 000000018001c1da f   UtilsGui:UtilsGui.dll
 0001:0001b1e0       ?FinishDialog@DialogValueReset@@MEAAXH@Z 000000018001c1e0 f   UtilsGui:UtilsGui.dll
 0001:0001b1e6       ?AfterClose@FocusDialog@@MEAAXXZ 000000018001c1e6 f   UtilsGui:UtilsGui.dll
 0001:0001b1ec       ?DoActivate@FocusDialog@@MEAAXI_N@Z 000000018001c1ec f   UtilsGui:UtilsGui.dll
 0001:0001b1f2       ?Resize@DialogValueReset@@MEAAX_N0@Z 000000018001c1f2 f   UtilsGui:UtilsGui.dll
 0001:0001b1f8       ?CanShow@FocusDialog@@UEBA_NXZ 000000018001c1f8 f   UtilsGui:UtilsGui.dll
 0001:0001b1fe       ?BeforeShow@DialogReset@@MEAAXXZ 000000018001c1fe f   UtilsGui:UtilsGui.dll
 0001:0001b204       ?OnDeactivate@FocusDialog@@MEAAXXZ 000000018001c204 f   UtilsGui:UtilsGui.dll
 0001:0001b20a       ?HandleCommand@DialogEntry@@MEAA_NAEBVKey@@_N1@Z 000000018001c20a f   UtilsGui:UtilsGui.dll
 0001:0001b210       ?InitializeValues@DialogReset@@MEAAXXZ 000000018001c210 f   UtilsGui:UtilsGui.dll
 0001:0001b216       ?MoveControls@DialogValueReset@@MEAAX_N@Z 000000018001c216 f   UtilsGui:UtilsGui.dll
 0001:0001b21c       ?isExecuteCommands@FocusDialog@@UEBA_NXZ 000000018001c21c f   UtilsGui:UtilsGui.dll
 0001:0001b222       ?isCloseOnCommandExecution@FocusDialog@@UEBA_NXZ 000000018001c222 f   UtilsGui:UtilsGui.dll
 0001:0001b228       ?CloseDialog@TakionDialog@@UEAAXXZ 000000018001c228 f   UtilsGui:UtilsGui.dll
 0001:0001b22e       ?GetInsideScreen@FocusDialog@@UEBA_NAEAVCRect@@@Z 000000018001c22e f   UtilsGui:UtilsGui.dll
 0001:0001b234       ?ReadFromStreamAsString@SettingCollection@@UEAAXAEAV?$basic_ifstream@DU?$char_traits@D@std@@@std@@AEAV?$basic_string@DU?$char_traits@D@std@@V?$allocator@D@2@@3@@Z 000000018001c234 f   UtilsGui:UtilsGui.dll
 0001:0001b23a       ?GetItemCount@Setting@@UEBAIXZ 000000018001c23a f   UtilsGui:UtilsGui.dll
 0001:0001b240       ?GetIniFileName@ConfigBase@@UEBAPEBDXZ 000000018001c240 f   UtilsGui:UtilsGui.dll
 0001:0001b246       ?GetLogFileName@ConfigBase@@UEBAPEBDXZ 000000018001c246 f   UtilsGui:UtilsGui.dll
 0001:0001b24c       ?GetPosFileName@ConfigBase@@UEBAPEBDXZ 000000018001c24c f   UtilsGui:UtilsGui.dll
 0001:0001b252       ?isSettingNameToRead@ConfigBase@@UEBA_NIAEBV?$basic_string@DU?$char_traits@D@std@@V?$allocator@D@2@@std@@@Z 000000018001c252 f   UtilsGui:UtilsGui.dll
 0001:0001b258       ?GetFlagCount@ConfigBase@@UEBAEXZ 000000018001c258 f   UtilsGui:UtilsGui.dll
 0001:0001b25e       ?AdjustOldVersion@ConfigBase@@MEAAXXZ 000000018001c25e f   UtilsGui:UtilsGui.dll
 0001:0001b264       ?PreReadSetting@ConfigBase@@MEAA_NPEAVSetting@@AEBV?$basic_string@DU?$char_traits@D@std@@V?$allocator@D@2@@std@@PEBD@Z 000000018001c264 f   UtilsGui:UtilsGui.dll
 0001:0001b26a       ?GetMessageMap@TakionMessageBox@@MEBAPEBUAFX_MSGMAP@@XZ 000000018001c26a f   UtilsGui:UtilsGui.dll
 0001:0001b270       ?DoDataExchange@TakionMessageBox@@MEAAXPEAVCDataExchange@@@Z 000000018001c270 f   UtilsGui:UtilsGui.dll
 0001:0001b276       ?PreTranslateMessage@TakionMessageBox@@MEAAHPEAUtagMSG@@@Z 000000018001c276 f   UtilsGui:UtilsGui.dll
 0001:0001b27c       ?OnInitDialog@TakionMessageBox@@MEAAHXZ 000000018001c27c f   UtilsGui:UtilsGui.dll
 0001:0001b282       ?OnOK@TakionMessageBox@@UEAAXXZ 000000018001c282 f   UtilsGui:UtilsGui.dll
 0001:0001b288       ?OnCancel@TakionMessageBox@@UEAAXXZ 000000018001c288 f   UtilsGui:UtilsGui.dll
 0001:0001b28e       ?GetBkColor@ColoredDraggableDialog@@UEBAKXZ 000000018001c28e f   UtilsGui:UtilsGui.dll
 0001:0001b294       ?GetBkBrush@ColoredDraggableDialog@@UEBAPEAVCBrush@@XZ 000000018001c294 f   UtilsGui:UtilsGui.dll
 0001:0001b29a       ?Apply@TakionDialog@@UEAAXXZ 000000018001c29a f   UtilsGui:UtilsGui.dll
 0001:0001b2a0       ?BeforeDestroy@TakionMessageBox@@MEAAXXZ 000000018001c2a0 f   UtilsGui:UtilsGui.dll
 0001:0001b2a6       ?AfterClose@ColoredDraggableDialog@@MEAAXXZ 000000018001c2a6 f   UtilsGui:UtilsGui.dll
 0001:0001b2ac       ?DoPaint@TakionMessageBox@@MEAAXAEBUtagRECT@@AEAVCDC@@@Z 000000018001c2ac f   UtilsGui:UtilsGui.dll
 0001:0001b2b2       ?Resize@TakionMessageBox@@MEAAX_N0@Z 000000018001c2b2 f   UtilsGui:UtilsGui.dll
 0001:0001b2b8       ?SetBkColor@ColoredDraggableDialog@@UEAAXK@Z 000000018001c2b8 f   UtilsGui:UtilsGui.dll
 0001:0001b2be       ?OnBlink@TakionMessageBox@@MEAAXXZ 000000018001c2be f   UtilsGui:UtilsGui.dll
 0001:0001b2c4       ?UpdateColors@TakionMessageBox@@UEAAXXZ 000000018001c2c4 f   UtilsGui:UtilsGui.dll
 0001:0001b2ca       ?PrepareToDisplay@TakionMessageBox@@MEAA_JPEAVCWnd@@PEBDIKKKKKKI111@Z 000000018001c2ca f   UtilsGui:UtilsGui.dll
 0001:0001b2d0       ?FillControls@TakionMessageBox@@MEAAXXZ 000000018001c2d0 f   UtilsGui:UtilsGui.dll
 0001:0001b2d6       ?CalculateSize@TakionMessageBox@@MEAAXXZ 000000018001c2d6 f   UtilsGui:UtilsGui.dll
 0001:0001b2dc       ?GetMessageMap@TakionPopupWnd@@MEBAPEBUAFX_MSGMAP@@XZ 000000018001c2dc f   UtilsGui:UtilsGui.dll
 0001:0001b2e2       ?PreCreateWindow@TakionPopupWnd@@MEAAHAEAUtagCREATESTRUCTA@@@Z 000000018001c2e2 f   UtilsGui:UtilsGui.dll
 0001:0001b2e8       ?OnCommand@TakionFrame@@MEAAH_K_J@Z 000000018001c2e8 f   UtilsGui:UtilsGui.dll
 0001:0001b2ee       ?OnNotify@TakionBaseWnd@@MEAAH_K_JPEA_J@Z 000000018001c2ee f   UtilsGui:UtilsGui.dll
 0001:0001b2f4       ?PostNcDestroy@TakionFrame@@MEAAXXZ 000000018001c2f4 f   UtilsGui:UtilsGui.dll
 0001:0001b2fa       ?isChild@TakionBaseWnd@@UEBA_NXZ 000000018001c2fa f   UtilsGui:UtilsGui.dll
 0001:0001b300       ?GetToolId@TakionBaseWnd@@UEBAPEBDXZ 000000018001c300 f   UtilsGui:UtilsGui.dll
 0001:0001b306       ?GetDefaultGraphicsId@TakionBaseWnd@@UEBA?AV?$basic_string@DU?$char_traits@D@std@@V?$allocator@D@2@@std@@XZ 000000018001c306 f   UtilsGui:UtilsGui.dll
 0001:0001b30c       ?GetTakionInstanceHandle@TakionPopupWnd@@UEBAPEAUHINSTANCE__@@XZ 000000018001c30c f   UtilsGui:UtilsGui.dll
 0001:0001b312       ?DrawMenuItem@TakionFrame@@MEAAXPEAUtagDRAWITEMSTRUCT@@@Z 000000018001c312 f   UtilsGui:UtilsGui.dll
 0001:0001b318       ?MeasureMenuItem@TakionFrame@@MEAA_NPEAUtagMEASUREITEMSTRUCT@@@Z 000000018001c318 f   UtilsGui:UtilsGui.dll
 0001:0001b31e       ?OnMouseForcedReleaseCapture@TakionFrame@@MEAAXXZ 000000018001c31e f   UtilsGui:UtilsGui.dll
 0001:0001b324       ?NcMouseEntered@TakionBaseWnd@@MEAAXXZ 000000018001c324 f   UtilsGui:UtilsGui.dll
 0001:0001b32a       ?NcMouseLeft@TakionBaseWnd@@MEAAXXZ 000000018001c32a f   UtilsGui:UtilsGui.dll
 0001:0001b330       ?GetBkColor@TakionPopupWnd@@UEBAKXZ 000000018001c330 f   UtilsGui:UtilsGui.dll
 0001:0001b336       ?GetTitleColorActive@TakionFrame@@UEBAKXZ 000000018001c336 f   UtilsGui:UtilsGui.dll
 0001:0001b33c       ?GetTitleColorInactive@TakionFrame@@UEBAKXZ 000000018001c33c f   UtilsGui:UtilsGui.dll
 0001:0001b342       ?GetTitleColorTextActive@TakionFrame@@UEBAKXZ 000000018001c342 f   UtilsGui:UtilsGui.dll
 0001:0001b348       ?GetTitleColorTextInactive@TakionFrame@@UEBAKXZ 000000018001c348 f   UtilsGui:UtilsGui.dll
 0001:0001b34e       ?GetWindowName@TakionFrame@@UEBAPEBDXZ 000000018001c34e f   UtilsGui:UtilsGui.dll
 0001:0001b354       ?GetHelpUrl@TakionFrame@@UEBA?AV?$basic_string@DU?$char_traits@D@std@@V?$allocator@D@2@@std@@XZ 000000018001c354 f   UtilsGui:UtilsGui.dll
 0001:0001b35a       ?Help@TakionFrame@@UEAAXXZ 000000018001c35a f   UtilsGui:UtilsGui.dll
 0001:0001b360       ?GetCurrentFontParams@TakionFrame@@UEBA_NAEAV?$basic_string@DU?$char_traits@D@std@@V?$allocator@D@2@@std@@AEAVFontDescription@@1AEA_NAEAI@Z 000000018001c360 f   UtilsGui:UtilsGui.dll
 0001:0001b366       ?SetCustomFont@TakionFrame@@UEAAXAEBVFontDescription@@_NI@Z 000000018001c366 f   UtilsGui:UtilsGui.dll
 0001:0001b36c       ?SetCustomColors@TakionFrame@@UEAAXPEBVGraphics@@PEAVGraphicsColorCollection@@PEBKG_NAEBVFilterStringAsNumberArray@@@Z 000000018001c36c f   UtilsGui:UtilsGui.dll
 0001:0001b372       ?toString@TakionFrame@@UEBAXAEAV?$basic_string@DU?$char_traits@D@std@@V?$allocator@D@2@@std@@I@Z 000000018001c372 f   UtilsGui:UtilsGui.dll
 0001:0001b378       ?fromString@TakionFrame@@UEAAXAEAPEBD_K_NI@Z 000000018001c378 f   UtilsGui:UtilsGui.dll
 0001:0001b37e       ?fromScratch@TakionFrame@@UEAAXXZ 000000018001c37e f   UtilsGui:UtilsGui.dll
 0001:0001b384       ?CreateTakionWnd@TakionPopupWnd@@UEAA_NPEBVCRect@@_N@Z 000000018001c384 f   UtilsGui:UtilsGui.dll
 0001:0001b38a       ?GetSettingsTabPath@TakionFrame@@UEBAPEBDAEBVCPoint@@@Z 000000018001c38a f   UtilsGui:UtilsGui.dll
 0001:0001b390       ?GetSettingsTabInitInfo@TakionFrame@@UEBAPEBXAEBVCPoint@@@Z 000000018001c390 f   UtilsGui:UtilsGui.dll
 0001:0001b396       ?GetGraphicsTabInitInfo@TakionFrame@@UEBAPEBXAEBVCPoint@@@Z 000000018001c396 f   UtilsGui:UtilsGui.dll
 0001:0001b39c       ?SetTakionNamedFilter@TakionFrame@@UEAAXPEAVTakionFilter@@AEBV?$basic_string@DU?$char_traits@D@std@@V?$allocator@D@2@@std@@@Z 000000018001c39c f   UtilsGui:UtilsGui.dll
 0001:0001b3a2       ?NullifyNamedFilter@TakionFrame@@UEAAXXZ 000000018001c3a2 f   UtilsGui:UtilsGui.dll
 0001:0001b3a8       ?LeaveFilter@TakionFrame@@UEAAXXZ 000000018001c3a8 f   UtilsGui:UtilsGui.dll
 0001:0001b3ae       ?GetFilter@TakionFrame@@UEBAPEBVTakionFilter@@XZ 000000018001c3ae f   UtilsGui:UtilsGui.dll
 0001:0001b3b4       ?GetTakionNamedFilter@TakionFrame@@UEBAPEBVTakionFilter@@XZ 000000018001c3b4 f   UtilsGui:UtilsGui.dll
 0001:0001b3ba       ?SetCommandToolOrdinal@TakionFrame@@UEAAXI@Z 000000018001c3ba f   UtilsGui:UtilsGui.dll
 0001:0001b3c0       ?GetNormalRect@TakionFrame@@UEBAAEBVCRect@@XZ 000000018001c3c0 f   UtilsGui:UtilsGui.dll
 0001:0001b3c6       ?UpdateSystemRects@TakionFrame@@UEAAXXZ 000000018001c3c6 f   UtilsGui:UtilsGui.dll
 0001:0001b3cc       ?AdjustFrameRect@TakionFrame@@UEAAXXZ 000000018001c3cc f   UtilsGui:UtilsGui.dll
 0001:0001b3d2       ?GetHitTest@TakionFrame@@UEBA_JAEBVCPoint@@@Z 000000018001c3d2 f   UtilsGui:UtilsGui.dll
 0001:0001b3d8       ?GetInitialLeft@TakionFrame@@UEBAHXZ 000000018001c3d8 f   UtilsGui:UtilsGui.dll
 0001:0001b3de       ?GetInitialTop@TakionFrame@@UEBAHXZ 000000018001c3de f   UtilsGui:UtilsGui.dll
 0001:0001b3e4       ?GetInitialWidth@TakionFrame@@UEBAHXZ 000000018001c3e4 f   UtilsGui:UtilsGui.dll
 0001:0001b3ea       ?GetInitialHeight@TakionFrame@@UEBAHXZ 000000018001c3ea f   UtilsGui:UtilsGui.dll
 0001:0001b3f0       ?GetSysMenu@TakionFrame@@UEBAPEAVCMenu@@XZ 000000018001c3f0 f   UtilsGui:UtilsGui.dll
 0001:0001b3f6       ?AcceptText@TakionFrame@@UEAAXPEBDI@Z 000000018001c3f6 f   UtilsGui:UtilsGui.dll
 0001:0001b3fc       ?AcceptPrice@TakionFrame@@UEAAXAEBVPrice@@I@Z 000000018001c3fc f   UtilsGui:UtilsGui.dll
 0001:0001b402       ?AcceptDate@TakionFrame@@UEAAXAEBII@Z 000000018001c402 f   UtilsGui:UtilsGui.dll
 0001:0001b408       ?ProcessKeyDown@TakionFrame@@UEAA_NEE_NPEAV1@@Z 000000018001c408 f   UtilsGui:UtilsGui.dll
 0001:0001b40e       ?ProcessKeyUp@TakionFrame@@UEAA_NEEPEAV1@@Z 000000018001c40e f   UtilsGui:UtilsGui.dll
 0001:0001b414       ?GetScrollHorizontalOffset@TakionFrame@@UEBAHXZ 000000018001c414 f   UtilsGui:UtilsGui.dll
 0001:0001b41a       ?GetScrollVerticalOffset@TakionFrame@@UEBAHXZ 000000018001c41a f   UtilsGui:UtilsGui.dll
 0001:0001b420       ?ToggleMaximized@TakionFrame@@UEAA_NXZ 000000018001c420 f   UtilsGui:UtilsGui.dll
 0001:0001b426       ?isRemoved@TakionFrame@@UEBA_NXZ 000000018001c426 f   UtilsGui:UtilsGui.dll
 0001:0001b42c       ?isInRectForClientMenu@TakionFrame@@UEBA_NAEBVCPoint@@@Z 000000018001c42c f   UtilsGui:UtilsGui.dll
 0001:0001b432       ?isTool@TakionFrame@@UEBA_NXZ 000000018001c432 f   UtilsGui:UtilsGui.dll
 0001:0001b438       ?GetToolOrdinal@TakionFrame@@UEBAAEBIXZ 000000018001c438 f   UtilsGui:UtilsGui.dll
 0001:0001b43e       ?isCommandTool@TakionFrame@@UEBA_NXZ 000000018001c43e f   UtilsGui:UtilsGui.dll
 0001:0001b444       ?GetCommandToolOrdinal@TakionFrame@@UEBAAEBIXZ 000000018001c444 f   UtilsGui:UtilsGui.dll
 0001:0001b44a       ?isHidden@TakionFrame@@UEBA_NXZ 000000018001c44a f   UtilsGui:UtilsGui.dll
 0001:0001b450       ?GetWorkspace@TakionFrame@@UEBAIXZ 000000018001c450 f   UtilsGui:UtilsGui.dll
 0001:0001b456       ?GetLayer@TakionFrame@@UEBAIXZ 000000018001c456 f   UtilsGui:UtilsGui.dll
 0001:0001b45c       ?SetLocked@TakionFrame@@UEAAXAEB_N@Z 000000018001c45c f   UtilsGui:UtilsGui.dll
 0001:0001b462       ?CalculateLeft@TakionFrame@@UEBAHXZ 000000018001c462 f   UtilsGui:UtilsGui.dll
 0001:0001b468       ?CalculateTop@TakionFrame@@UEBAHXZ 000000018001c468 f   UtilsGui:UtilsGui.dll
 0001:0001b46e       ?CalculateRight@TakionFrame@@UEBAHXZ 000000018001c46e f   UtilsGui:UtilsGui.dll
 0001:0001b474       ?CalculateBottom@TakionFrame@@UEBAHXZ 000000018001c474 f   UtilsGui:UtilsGui.dll
 0001:0001b47a       ?GetLeft@TakionFrame@@UEBAHXZ 000000018001c47a f   UtilsGui:UtilsGui.dll
 0001:0001b480       ?GetTop@TakionFrame@@UEBAHXZ 000000018001c480 f   UtilsGui:UtilsGui.dll
 0001:0001b486       ?GetRight@TakionFrame@@UEBAHXZ 000000018001c486 f   UtilsGui:UtilsGui.dll
 0001:0001b48c       ?GetBottom@TakionFrame@@UEBAHXZ 000000018001c48c f   UtilsGui:UtilsGui.dll
 0001:0001b492       ?SetFrameRect@TakionFrame@@MEAAXAEBVCRect@@@Z 000000018001c492 f   UtilsGui:UtilsGui.dll
 0001:0001b498       ?AfterCloning@TakionFrame@@MEAAXXZ 000000018001c498 f   UtilsGui:UtilsGui.dll
 0001:0001b49e       ?AfterPasting@TakionFrame@@MEAAXXZ 000000018001c49e f   UtilsGui:UtilsGui.dll
 0001:0001b4a4       ?AddToToolCollection@TakionFrame@@MEAA_NXZ 000000018001c4a4 f   UtilsGui:UtilsGui.dll
 0001:0001b4aa       ?DoApplyFilter@TakionFrame@@MEAAXAEBVTakionFilter@@_N@Z 000000018001c4aa f   UtilsGui:UtilsGui.dll
 0001:0001b4b0       ?DisplayClientMenu@TakionFrame@@MEAAXIVCPoint@@@Z 000000018001c4b0 f   UtilsGui:UtilsGui.dll
 0001:0001b4b6       ?OffsetFrameRectAndMove@TakionFrame@@MEAAXHH@Z 000000018001c4b6 f   UtilsGui:UtilsGui.dll
 0001:0001b4bc       ?PreAddMenuItems@TakionFrame@@MEAAXAEAVCMenu@@@Z 000000018001c4bc f   UtilsGui:UtilsGui.dll
 0001:0001b4c2       ?AddMenuItems@TakionFrame@@MEAAXAEAVCMenu@@@Z 000000018001c4c2 f   UtilsGui:UtilsGui.dll
 0001:0001b4c8       ?PostAddMenuItems@TakionFrame@@MEAAXAEAVCMenu@@@Z 000000018001c4c8 f   UtilsGui:UtilsGui.dll
 0001:0001b4ce       ?OnSetBkColor@TakionFrame@@MEAAXXZ 000000018001c4ce f   UtilsGui:UtilsGui.dll
 0001:0001b4d4       ?ResizeMouseArea@TakionFrame@@MEAA_NAEBVCPoint@@_N@Z 000000018001c4d4 f   UtilsGui:UtilsGui.dll
 0001:0001b4da       ?UpdateResizeCursor@TakionFrame@@MEAAEAEBVCPoint@@_N@Z 000000018001c4da f   UtilsGui:UtilsGui.dll
 0001:0001b4e0       ?DCCreated@TakionFrame@@MEAAXXZ 000000018001c4e0 f   UtilsGui:UtilsGui.dll
 0001:0001b4e6       ?DisplaySystemMenu@TakionFrame@@MEAAXAEBVCPoint@@@Z 000000018001c4e6 f   UtilsGui:UtilsGui.dll
 0001:0001b4ec       ?BeforeDestroy@TakionPopupWnd@@UEAAXXZ 000000018001c4ec f   UtilsGui:UtilsGui.dll
 0001:0001b4f2       ?AfterDestroy@TakionFrame@@MEAAXXZ 000000018001c4f2 f   UtilsGui:UtilsGui.dll
 0001:0001b4f8       ?BeforeNcDestroy@TakionFrame@@MEAAXXZ 000000018001c4f8 f   UtilsGui:UtilsGui.dll
 0001:0001b4fe       ?DoActivate@TakionPopupWnd@@MEAAXI_N@Z 000000018001c4fe f   UtilsGui:UtilsGui.dll
 0001:0001b504       ?MouseEntered@TakionFrame@@MEAAXXZ 000000018001c504 f   UtilsGui:UtilsGui.dll
 0001:0001b50a       ?MouseLeft@TakionFrame@@MEAAXXZ 000000018001c50a f   UtilsGui:UtilsGui.dll
 0001:0001b510       ?MouseEnteredClientRect@TakionFrame@@MEAAXXZ 000000018001c510 f   UtilsGui:UtilsGui.dll
 0001:0001b516       ?MouseLeftClientRect@TakionFrame@@MEAAXXZ 000000018001c516 f   UtilsGui:UtilsGui.dll
 0001:0001b51c       ?ClientSetCursor@TakionFrame@@MEAA_NXZ 000000018001c51c f   UtilsGui:UtilsGui.dll
 0001:0001b522       ?DoPaint@TakionPopupWnd@@MEAAXAEBUtagRECT@@AEAVCDC@@@Z 000000018001c522 f   UtilsGui:UtilsGui.dll
 0001:0001b528       ?DoSize@TakionPopupWnd@@MEAAXIHHHH@Z 000000018001c528 f   UtilsGui:UtilsGui.dll
 0001:0001b52e       ?CalculateWindowRect@TakionFrame@@MEAAXHHHH@Z 000000018001c52e f   UtilsGui:UtilsGui.dll
 0001:0001b534       ?PreSuccessfulCreate@TakionFrame@@MEAAXXZ 000000018001c534 f   UtilsGui:UtilsGui.dll
 0001:0001b53a       ?OnSuccessfulCreate@TakionPopupWnd@@MEAAXXZ 000000018001c53a f   UtilsGui:UtilsGui.dll
 0001:0001b540       ?DoMinimize@TakionFrame@@MEAAXI_J@Z 000000018001c540 f   UtilsGui:UtilsGui.dll
 0001:0001b546       ?DoRestore@TakionFrame@@MEAAXI_J@Z 000000018001c546 f   UtilsGui:UtilsGui.dll
 0001:0001b54c       ?RemoveFromVisibleTools@TakionFrame@@MEAA_NXZ 000000018001c54c f   UtilsGui:UtilsGui.dll
 0001:0001b552       ?AddToVisibleTools@TakionFrame@@MEAAXXZ 000000018001c552 f   UtilsGui:UtilsGui.dll
 0001:0001b558       ?OnTitleResize@TakionFrame@@MEAAXXZ 000000018001c558 f   UtilsGui:UtilsGui.dll
 0001:0001b55e       ?DelayedCreationDone@TakionFrame@@MEAAXXZ 000000018001c55e f   UtilsGui:UtilsGui.dll
 0001:0001b564       ?GetInsideScreen@TakionPopupWnd@@UEBA_NAEAVCRect@@@Z 000000018001c564 f   UtilsGui:UtilsGui.dll
 0001:0001b56a       ?TitleFontChanged@TakionFrame@@MEAAXXZ 000000018001c56a f   UtilsGui:UtilsGui.dll
 0001:0001b570       ?Renew@TakionPopupWnd@@UEAAXXZ 000000018001c570 f   UtilsGui:UtilsGui.dll
 0001:0001b576       ?UpdateColors@TakionPopupWnd@@UEAAXXZ 000000018001c576 f   UtilsGui:UtilsGui.dll
 0001:0001b57c       ?OnBlink@TakionPopupWnd@@MEAAXXZ 000000018001c57c f   UtilsGui:UtilsGui.dll
 0001:0001b582       ?PrepareToDisplay@TakionPopupWnd@@MEAA_JPEAVCWnd@@PEBDIKKKKKKI111@Z 000000018001c582 f   UtilsGui:UtilsGui.dll
 0001:0001b588       ?CalculateSize@TakionPopupWnd@@MEAAXXZ 000000018001c588 f   UtilsGui:UtilsGui.dll
 0001:0001b58e       ?MoveFrameRectToInitialPos@TakionPopupWnd@@MEAAXXZ 000000018001c58e f   UtilsGui:UtilsGui.dll
 0001:0001b594       ?GetMessageMap@TakionSettingTabDialog@@MEBAPEBUAFX_MSGMAP@@XZ 000000018001c594 f   UtilsGui:UtilsGui.dll
 0001:0001b59a       ?OnNotify@TakionSettingTabDialog@@MEAAH_K_JPEA_J@Z 000000018001c59a f   UtilsGui:UtilsGui.dll
 0001:0001b5a0       ?DoDataExchange@TakionSettingTabDialog@@MEAAXPEAVCDataExchange@@@Z 000000018001c5a0 f   UtilsGui:UtilsGui.dll
 0001:0001b5a6       ?OnInitDialog@TakionSettingTabDialog@@MEAAHXZ 000000018001c5a6 f   UtilsGui:UtilsGui.dll
 0001:0001b5ac       ?GetCurrentLeaf@TakionSettingTabDialog@@UEBAPEBVTakionSettingDialog@@XZ 000000018001c5ac f   UtilsGui:UtilsGui.dll
 0001:0001b5b2       ?GetCurrentLeaf@TakionSettingTabDialog@@UEAAPEAVTakionSettingDialog@@XZ 000000018001c5b2 f   UtilsGui:UtilsGui.dll
 0001:0001b5b8       ?GetFirstTabControl@TakionSettingTabDialog@@UEBAPEAUHWND__@@XZ 000000018001c5b8 f   UtilsGui:UtilsGui.dll
 0001:0001b5be       ?Entering@TakionSettingTabDialog@@MEAAXXZ 000000018001c5be f   UtilsGui:UtilsGui.dll
 0001:0001b5c4       ?Leaving@TakionSettingTabDialog@@MEAAXXZ 000000018001c5c4 f   UtilsGui:UtilsGui.dll
 0001:0001b5ca       ?FinishDialog@TakionSettingTabDialog@@MEAAXH@Z 000000018001c5ca f   UtilsGui:UtilsGui.dll
 0001:0001b5d0       ?Resize@TakionSettingTabDialog@@MEAAX_N0@Z 000000018001c5d0 f   UtilsGui:UtilsGui.dll
 0001:0001b5d6       ?PropagateToolTipsEnabled@TakionSettingTabDialog@@MEAA_N_N@Z 000000018001c5d6 f   UtilsGui:UtilsGui.dll
 0001:0001b5dc       ?PrepareForSavingLayout@TakionSettingTabDialog@@UEAAXXZ 000000018001c5dc f   UtilsGui:UtilsGui.dll
 0001:0001b5e2       ?UpdateSettings@TakionSettingTabDialog@@UEAAXXZ 000000018001c5e2 f   UtilsGui:UtilsGui.dll
 0001:0001b5e8       ?UpdateControls@TakionSettingTabDialog@@UEAAXXZ 000000018001c5e8 f   UtilsGui:UtilsGui.dll
 0001:0001b5ee       ?UpdateLeafControls@TakionSettingTabDialog@@UEAAXXZ 000000018001c5ee f   UtilsGui:UtilsGui.dll
 0001:0001b5f4       ?isActiveTab@TakionSettingDialog@@UEBA_NXZ 000000018001c5f4 f   UtilsGui:UtilsGui.dll
 0001:0001b5fa       ?GetSettingDialogs@TakionSettingTabDialog@@UEAAPEAV?$vector@PEAVTakionSettingDialog@@V?$allocator@PEAVTakionSettingDialog@@@std@@@std@@XZ 000000018001c5fa f   UtilsGui:UtilsGui.dll
 0001:0001b600       ?isLeaf@TakionSettingDialog@@UEBA_NXZ 000000018001c600 f   UtilsGui:UtilsGui.dll
 0001:0001b606       ?SetTabToOpen@TakionSettingTabDialog@@UEAA_NPEBDPEBX@Z 000000018001c606 f   UtilsGui:UtilsGui.dll
 0001:0001b60c       ?SetInitialTab@TakionSettingTabDialog@@UEAAXXZ 000000018001c60c f   UtilsGui:UtilsGui.dll
 0001:0001b612       ?GetLevel@TakionSettingTabDialog@@UEBAIXZ 000000018001c612 f   UtilsGui:UtilsGui.dll
 0001:0001b618       ?GetCurrentTab@TakionSettingTabDialog@@UEBAHXZ 000000018001c618 f   UtilsGui:UtilsGui.dll
 0001:0001b61e       ?GetMainTabDialog@TakionSettingTabDialog@@UEBAPEBV1@XZ 000000018001c61e f   UtilsGui:UtilsGui.dll
 0001:0001b624       ?GetMainTabDialog@TakionSettingTabDialog@@UEAAPEAV1@XZ 000000018001c624 f   UtilsGui:UtilsGui.dll
 0001:0001b62a       ?GetTopDialogWidth@TakionSettingTabDialog@@UEBAHXZ 000000018001c62a f   UtilsGui:UtilsGui.dll
 0001:0001b630       ?GetTopDialogHeight@TakionSettingTabDialog@@UEBAHXZ 000000018001c630 f   UtilsGui:UtilsGui.dll
 0001:0001b636       ?RestoreLayout@TakionSettingTabDialog@@UEAAXXZ 000000018001c636 f   UtilsGui:UtilsGui.dll
 0001:0001b63c       ?SameLayoutOnRestore@TakionSettingTabDialog@@UEAAXXZ 000000018001c63c f   UtilsGui:UtilsGui.dll
 0001:0001b642       ?isAlarm@TakionSettingTabDialog@@UEBA_NXZ 000000018001c642 f   UtilsGui:UtilsGui.dll
 0001:0001b648       ?SetAlarm@TakionSettingTabDialog@@UEAAX_NI@Z 000000018001c648 f   UtilsGui:UtilsGui.dll
 0001:0001b64e       ?NullifyInitInfo@TakionSettingTabDialog@@MEAAXXZ 000000018001c64e f   UtilsGui:UtilsGui.dll
 0001:0001b654       ?DoApplyInitInfo@TakionSettingTabDialog@@MEAAXXZ 000000018001c654 f   UtilsGui:UtilsGui.dll
 0001:0001b65a       ?SetActiveTab@TakionSettingTabDialog@@MEAAX_N@Z 000000018001c65a f   UtilsGui:UtilsGui.dll
 0001:0001b660       ?GetRightMargin@TakionSettingTabDialog@@UEBAHXZ 000000018001c660 f   UtilsGui:UtilsGui.dll
 0001:0001b666       ?TabNcDoubleClicked@TakionSettingTabDialog@@UEAAXXZ 000000018001c666 f   UtilsGui:UtilsGui.dll
 0001:0001b66c       ?isExtensionMainDialog@TakionSettingTabDialog@@UEBA_NXZ 000000018001c66c f   UtilsGui:UtilsGui.dll
 0001:0001b672       ?isLeafRButtonMenuOk@TakionSettingTabDialog@@UEBA_NXZ 000000018001c672 f   UtilsGui:UtilsGui.dll
 0001:0001b678       ?isLeafNcRButtonMenuOk@TakionSettingTabDialog@@UEBA_NXZ 000000018001c678 f   UtilsGui:UtilsGui.dll
 0001:0001b67e       ?DisplayPageMenu@TakionSettingTabDialog@@MEAAXPEAVTakionSettingPageBase@@AEBVCPoint@@@Z 000000018001c67e f   UtilsGui:UtilsGui.dll
 0001:0001b684       ?SettingTabDestroyed@TakionSettingTabDialog@@MEAAXXZ 000000018001c684 f   UtilsGui:UtilsGui.dll
 0001:0001b68a       ?GetMessageMap@ExtensionMainDialogBase@@MEBAPEBUAFX_MSGMAP@@XZ 000000018001c68a f   UtilsGui:UtilsGui.dll
 0001:0001b690       ?DoDataExchange@ExtensionMainDialogBase@@MEAAXPEAVCDataExchange@@@Z 000000018001c690 f   UtilsGui:UtilsGui.dll
 0001:0001b696       ?Apply@TakionSettingTopDialog@@UEAAXXZ 000000018001c696 f   UtilsGui:UtilsGui.dll
 0001:0001b69c       ?isTooltipConfigValid@ExtensionMainDialogBase@@UEBA_NXZ 000000018001c69c f   UtilsGui:UtilsGui.dll
 0001:0001b6a2       ?isToolTipsEnabledAdditional@ExtensionMainDialogBase@@UEBA_NXZ 000000018001c6a2 f   UtilsGui:UtilsGui.dll
 0001:0001b6a8       ?isToolTipsEnabled@ExtensionMainDialogBase@@UEBA_NXZ 000000018001c6a8 f   UtilsGui:UtilsGui.dll
 0001:0001b6ae       ?isCloseOnEnter@TakionSettingTopDialog@@MEBA_NXZ 000000018001c6ae f   UtilsGui:UtilsGui.dll
 0001:0001b6b4       ?FinishDialog@ExtensionMainDialogBase@@MEAAXH@Z 000000018001c6b4 f   UtilsGui:UtilsGui.dll
 0001:0001b6ba       ?DoActivate@ExtensionMainDialogBase@@MEAAXI_N@Z 000000018001c6ba f   UtilsGui:UtilsGui.dll
 0001:0001b6c0       ?DoPaint@TakionSettingTopDialog@@MEAAXAEBUtagRECT@@AEAVCDC@@@Z 000000018001c6c0 f   UtilsGui:UtilsGui.dll
 0001:0001b6c6       ?Resize@TakionSettingTopDialog@@MEAAX_N0@Z 000000018001c6c6 f   UtilsGui:UtilsGui.dll
 0001:0001b6cc       ?GetMainTabDialog@TakionSettingTopDialog@@UEBAPEBVTakionSettingTabDialog@@XZ 000000018001c6cc f   UtilsGui:UtilsGui.dll
 0001:0001b6d2       ?GetMainTabDialog@TakionSettingTopDialog@@UEAAPEAVTakionSettingTabDialog@@XZ 000000018001c6d2 f   UtilsGui:UtilsGui.dll
 0001:0001b6d8       ?GetTopDialogWidth@TakionSettingTopDialog@@UEBAHXZ 000000018001c6d8 f   UtilsGui:UtilsGui.dll
 0001:0001b6de       ?GetTopDialogHeight@TakionSettingTopDialog@@UEBAHXZ 000000018001c6de f   UtilsGui:UtilsGui.dll
 0001:0001b6e4       ?GetOkButton@TakionSettingTopDialog@@UEAAAEAVCButton@@XZ 000000018001c6e4 f   UtilsGui:UtilsGui.dll
 0001:0001b6ea       ?GetApplyButton@TakionSettingTopDialog@@UEAAAEAVCButton@@XZ 000000018001c6ea f   UtilsGui:UtilsGui.dll
 0001:0001b6f0       ?GetOnTopCheckBox@TakionSettingTopDialog@@UEAAAEAVCButton@@XZ 000000018001c6f0 f   UtilsGui:UtilsGui.dll
 0001:0001b6f6       ?GetToolTipsCheckBox@TakionSettingTopDialog@@UEAAAEAVCButton@@XZ 000000018001c6f6 f   UtilsGui:UtilsGui.dll
 0001:0001b6fc       ?GetCancelButton@TakionSettingTopDialog@@UEAAAEAVCButton@@XZ 000000018001c6fc f   UtilsGui:UtilsGui.dll
 0001:0001b702       ?GetHelpButton@TakionSettingTopDialog@@UEAAAEAVCButton@@XZ 000000018001c702 f   UtilsGui:UtilsGui.dll
 0001:0001b708       ?EnableApplyButton@TakionSettingTopDialog@@UEAAX_N@Z 000000018001c708 f   UtilsGui:UtilsGui.dll
 0001:0001b70e       ?EnableOkButton@TakionSettingTopDialog@@UEAAX_N@Z 000000018001c70e f   UtilsGui:UtilsGui.dll
 0001:0001b714       ?SetAlarm@TakionSettingTopDialog@@UEAAX_NI@Z 000000018001c714 f   UtilsGui:UtilsGui.dll
 0001:0001b71a       ?GetRightMargin@TakionSettingTopDialog@@UEBAHXZ 000000018001c71a f   UtilsGui:UtilsGui.dll
 0001:0001b720       ?isExtensionMainDialog@ExtensionMainDialogBase@@UEBA_NXZ 000000018001c720 f   UtilsGui:UtilsGui.dll
 0001:0001b726       ?isInitializedFromFile@ExtensionMainDialogBase@@UEBA_NXZ 000000018001c726 f   UtilsGui:UtilsGui.dll
 0001:0001b72c       ?GetPosRect@ExtensionMainDialogBase@@UEAAXAEAVCRect@@@Z 000000018001c72c f   UtilsGui:UtilsGui.dll
 0001:0001b732       ?ExtractIsAlwaysOnTop@ExtensionMainDialogBase@@UEBA_NXZ 000000018001c732 f   UtilsGui:UtilsGui.dll
 0001:0001b738       ?ExtractIsShowToolTips@ExtensionMainDialogBase@@UEBA_NXZ 000000018001c738 f   UtilsGui:UtilsGui.dll
 0001:0001b73e       ?SaveAlwaysOnTop@ExtensionMainDialogBase@@MEAAX_N@Z 000000018001c73e f   UtilsGui:UtilsGui.dll
 0001:0001b744       ?SaveShowToolTips@ExtensionMainDialogBase@@MEAAX_N@Z 000000018001c744 f   UtilsGui:UtilsGui.dll
 0001:0001b74a       ?PlaceButtons@ExtensionMainDialogBase@@MEAA_NXZ 000000018001c74a f   UtilsGui:UtilsGui.dll
 0001:0001b750       ?GetExtensionFilePathAndName@ExtensionMainDialogBase@@UEBAPEBDXZ 000000018001c750 f   UtilsGui:UtilsGui.dll
 0001:0001b756       ?OnMouseForcedReleaseCapture@TakionSettingTabDialog@@UEAAXXZ 000000018001c756 f   UtilsGui:UtilsGui.dll
 0001:0001b75c       ?PreCreateWindow@TakionFrame@@MEAAHAEAUtagCREATESTRUCTA@@@Z 000000018001c75c f   UtilsGui:UtilsGui.dll
 0001:0001b762       ?GetTakionInstanceHandle@TakionBaseWnd@@UEBAPEAUHINSTANCE__@@XZ 000000018001c762 f   UtilsGui:UtilsGui.dll
 0001:0001b768       ?GetHitTest@TakionResizableWnd@@UEBA_JAEBVCPoint@@@Z 000000018001c768 f   UtilsGui:UtilsGui.dll
 0001:0001b76e       ?GetInsideScreen@TakionFrame@@MEBA_NAEAVCRect@@@Z 000000018001c76e f   UtilsGui:UtilsGui.dll
 0001:0001b774       ?GetBorderGraphicsName@TakionResizableWnd@@UEBA?AV?$basic_string@DU?$char_traits@D@std@@V?$allocator@D@2@@std@@XZ 000000018001c774 f   UtilsGui:UtilsGui.dll
 0001:0001b77a       ?OnBorderResize@TakionResizableWnd@@MEAAXH@Z 000000018001c77a f   UtilsGui:UtilsGui.dll
 0001:0001b780       ?PreTranslateMessage@ExtensionMainDialog@@MEAAHPEAUtagMSG@@@Z 000000018001c780 f   TakionGui:TakionGui.dll
 0001:0001b786       ?OnOK@ExtensionMainDialog@@MEAAXXZ 000000018001c786 f   TakionGui:TakionGui.dll
 0001:0001b78c       ?TabNcDoubleClicked@ExtensionMainDialog@@UEAAXXZ 000000018001c78c f   TakionGui:TakionGui.dll
 0001:0001b792       ?CompareValue@?$TypedRowValue@VSignedPrice@@@@UEBAFAEBVSignedPrice@@@Z 000000018001c792 f   TakionGui:TakionGui.dll
 0001:0001b798       ?SetValue@?$TypedNumericRowValue@VSignedPrice@@@@UEAA_NAEBVSignedPrice@@@Z 000000018001c798 f   TakionGui:TakionGui.dll
 0001:0001b79e       ?CompareToZero@?$TypedNumericRowValue@VSignedPrice@@@@UEBAFAEBVSignedPrice@@@Z 000000018001c79e f   TakionGui:TakionGui.dll
 0001:0001b7a4       ?CalculateTick@?$TypedNumericRowValue@VSignedPrice@@@@MEAAXAEBVSignedPrice@@AEAV2@@Z 000000018001c7a4 f   TakionGui:TakionGui.dll
 0001:0001b7aa       ?AddPrint@SecurityChartRow@@UEAAXAEBVPrice@@IDE@Z 000000018001c7aa f   TakionGui:TakionGui.dll
 0001:0001b7b0       ?SetEndChartMinute@SecurityChartRow@@UEAA_NG_N@Z 000000018001c7b0 f   TakionGui:TakionGui.dll
 0001:0001b7b6       ?GetTimeFrameInSeconds@TakionTool@@UEBAGXZ 000000018001c7b6 f   TakionGui:TakionGui.dll
 0001:0001b7bc       ?SetCurrentMinute@SecurityChartRow@@UEAA_NG_N@Z 000000018001c7bc f   TakionGui:TakionGui.dll
 0001:0001b7c2       ?InitializeChart@SecurityChartRow@@UEAA_NE@Z 000000018001c7c2 f   TakionGui:TakionGui.dll
 0001:0001b7c8       ?RemoveRow@RowWindowSortable@@UEAAPEAVRowSortable@@PEAV2@@Z 000000018001c7c8 f   TakionGui:TakionGui.dll
 0001:0001b7ce       ?SetPosition@SecurityChartRow@@UEAA_NPEBVPosition@@@Z 000000018001c7ce f   TakionGui:TakionGui.dll
 0001:0001b7d4       ?SetPosition@RowValue@@UEAAXPEBVPositionData@@@Z 000000018001c7d4 f   TakionGui:TakionGui.dll
 0001:0001b7da       ?InvalidateDataAtColumn@RowWindow@@UEBAXG@Z 000000018001c7da f   TakionGui:TakionGui.dll
 0001:0001b7e0       ?NewRow@RowWindowSortable@@UEAAPEAVRow@@PEBX@Z 000000018001c7e0 f   TakionGui:TakionGui.dll
 0001:0001b7e6       ?ClearRowsTemporarily@RowWindowSortable@@MEAAXXZ 000000018001c7e6 f   TakionGui:TakionGui.dll
 0001:0001b7ec       ?UnselectAllRows@RowWindowSortable@@UEAA_N_N@Z 000000018001c7ec f   TakionGui:TakionGui.dll
 0001:0001b7f2       ?isPotential@RowSortable@@UEBA_NXZ 000000018001c7f2 f   TakionGui:TakionGui.dll
 0001:0001b7f8       ?RepaintOnPopulation@RowWindowSortable@@UEAAX_N@Z 000000018001c7f8 f   TakionGui:TakionGui.dll
 0001:0001b7fe       ?DestroyRows@RowWindowSortable@@UEAAXXZ 000000018001c7fe f   TakionGui:TakionGui.dll
 0001:0001b804       ?GetSecurity@TakionTool@@UEBAPEBVSecurity@@XZ 000000018001c804 f   TakionGui:TakionGui.dll
 0001:0001b80a       ?GetStringSymbolPtr@TakionTool@@UEBAPEBDAEAE@Z 000000018001c80a f   TakionGui:TakionGui.dll
 0001:0001b810       ?RemoveNotBelongingRows@RowWindowSortable@@UEAA_N_N@Z 000000018001c810 f   TakionGui:TakionGui.dll
 0001:0001b816       ?GetEntryPoint@TakionTool@@UEBAXAEAVCPoint@@@Z 000000018001c816 f   TakionGui:TakionGui.dll
 0001:0001b81c       ?ProcessKeyDown@TakionTool@@MEAA_NEE_NPEAVTakionFrame@@@Z 000000018001c81c f   TakionGui:TakionGui.dll
 0001:0001b822       ?AcceptText@TakionTitleTool@@MEAAXPEBDI@Z 000000018001c822 f   TakionGui:TakionGui.dll
 0001:0001b828       ?CanBeNegative@RowValue@@UEBA_NXZ 000000018001c828 f   TakionGui:TakionGui.dll
 0001:0001b82e       ?CompareValueToZero@?$TypedNumericRowValue@H@@UEBAFXZ 000000018001c82e f   TakionGui:TakionGui.dll
 0001:0001b834       ?isValueZero@?$TypedNumericRowValue@H@@UEBA_NXZ 000000018001c834 f   TakionGui:TakionGui.dll
 0001:0001b83a       ?isObjectValueZero@?$TypedNumericRowValue@H@@UEBA_NXZ 000000018001c83a f   TakionGui:TakionGui.dll
 0001:0001b840       ?UpdateValue@?$TypedRowValue@H@@UEAA_NXZ 000000018001c840 f   TakionGui:TakionGui.dll
 0001:0001b846       ?InitValue@?$TypedRowValue@H@@UEAAXXZ 000000018001c846 f   TakionGui:TakionGui.dll
 0001:0001b84c       ?InitializeValue@?$TypedRowValue@H@@MEAAXXZ 000000018001c84c f   TakionGui:TakionGui.dll
 0001:0001b852       ?isValueChanged@PositionIntInventoryRowValueNull@@UEBA_NXZ 000000018001c852 f   TakionGui:TakionGui.dll
 0001:0001b858       ?isValueChanged@?$TypedRowValue@H@@UEBA_NXZ 000000018001c858 f   TakionGui:TakionGui.dll
 0001:0001b85e       ?toString@IntRowValue@@UEBAXAEAV?$basic_string@DU?$char_traits@D@std@@V?$allocator@D@2@@std@@@Z 000000018001c85e f   TakionGui:TakionGui.dll
 0001:0001b864       ?Compare@?$TypedRowValue@H@@UEBAFAEBVRowValue@@@Z 000000018001c864 f   TakionGui:TakionGui.dll
 0001:0001b86a       ?CompareValue@?$TypedRowValue@H@@UEBAFAEBH@Z 000000018001c86a f   TakionGui:TakionGui.dll
 0001:0001b870       ?CompareAhead@?$TypedRowValue@H@@UEBAFAEBVRowValue@@@Z 000000018001c870 f   TakionGui:TakionGui.dll
 0001:0001b876       ?isValueEmpty@PositionIntInventoryRowValueNull@@UEBA_NXZ 000000018001c876 f   TakionGui:TakionGui.dll
 0001:0001b87c       ?isObjectValueEmpty@PositionIntInventoryRowValueNull@@UEBA_NXZ 000000018001c87c f   TakionGui:TakionGui.dll
 0001:0001b882       ?NullifyTick@?$TypedNumericRowValue@H@@UEAAXXZ 000000018001c882 f   TakionGui:TakionGui.dll
 0001:0001b888       ?NullifyLastDiff@?$TypedNumericRowValue@H@@UEBAXXZ 000000018001c888 f   TakionGui:TakionGui.dll
 0001:0001b88e       ?Add@?$TypedNumericRowValue@H@@UEAA_NAEBVRowValue@@@Z 000000018001c88e f   TakionGui:TakionGui.dll
 0001:0001b894       ?SetValue@?$TypedNumericRowValue@H@@UEAA_NAEBH@Z 000000018001c894 f   TakionGui:TakionGui.dll
 0001:0001b89a       ?CompareToZero@?$TypedNumericRowValue@H@@UEBAFAEBH@Z 000000018001c89a f   TakionGui:TakionGui.dll
 0001:0001b8a0       ?CalculateTick@?$TypedNumericRowValue@H@@MEAAXAEBHAEAH@Z 000000018001c8a0 f   TakionGui:TakionGui.dll
 0001:0001b8a6       ?Subtract@?$TypedNumericRowValue@H@@UEAA_NAEBVRowValue@@@Z 000000018001c8a6 f   TakionGui:TakionGui.dll
 0001:0001b8ac       ?Adjust@?$TypedNumericRowValue@H@@UEAA_NAEBVRowValue@@@Z 000000018001c8ac f   TakionGui:TakionGui.dll
 0001:0001b8b2       ?Reset@?$TypedNumericRowValue@H@@UEAAXXZ 000000018001c8b2 f   TakionGui:TakionGui.dll
 0001:0001b8b8       ?GetCount@RowValue@@UEBAIXZ 000000018001c8b8 f   TakionGui:TakionGui.dll
 0001:0001b8be       ?GetTickMillisecond@?$TypedNumericRowValue@H@@UEBAIXZ 000000018001c8be f   TakionGui:TakionGui.dll
 0001:0001b8c4       ?GetStringValue@RowValue@@UEBAPEBDXZ 000000018001c8c4 f   TakionGui:TakionGui.dll
 0001:0001b8ca       ?GetUIntValue@RowValue@@UEBAIXZ 000000018001c8ca f   TakionGui:TakionGui.dll
 0001:0001b8d0       ?GetUInt64Value@RowValue@@UEBA_KXZ 000000018001c8d0 f   TakionGui:TakionGui.dll
 0001:0001b8d6       ?GetIntValue@IntRowValue@@UEBAHXZ 000000018001c8d6 f   TakionGui:TakionGui.dll
 0001:0001b8dc       ?GetPriceValue@RowValue@@UEBA?AVPrice@@XZ 000000018001c8dc f   TakionGui:TakionGui.dll
 0001:0001b8e2       ?GetSignedPriceValue@RowValue@@UEBA?AVSignedPrice@@XZ 000000018001c8e2 f   TakionGui:TakionGui.dll
 0001:0001b8e8       ?SetPosition@PositionIntInventoryRowValue@@UEAAXPEBVPositionData@@@Z 000000018001c8e8 f   TakionGui:TakionGui.dll
 0001:0001b8ee       ?SetSecurity@RowValue@@UEAAXPEBVSecurity@@@Z 000000018001c8ee f   TakionGui:TakionGui.dll
 0001:0001b8f4       ?isComma@?$CommaRowValue@H@@UEBAPEB_NXZ 000000018001c8f4 f   TakionGui:TakionGui.dll
 0001:0001b8fa       ?SetComma@?$CommaRowValue@H@@UEAAXPEB_N@Z 000000018001c8fa f   TakionGui:TakionGui.dll
 0001:0001b900       ?GetDecDigits@RowValue@@UEBAPEBEXZ 000000018001c900 f   TakionGui:TakionGui.dll
 0001:0001b906       ?SetDecDigits@RowValue@@UEAAXPEBE@Z 000000018001c906 f   TakionGui:TakionGui.dll
 0001:0001b90c       ?isTruncate@RowValue@@UEBAPEB_NXZ 000000018001c90c f   TakionGui:TakionGui.dll
 0001:0001b912       ?SetTruncate@RowValue@@UEAAXPEB_N@Z 000000018001c912 f   TakionGui:TakionGui.dll
 0001:0001b918       ?GetLastIntDiff@RowValue@@UEBAHXZ 000000018001c918 f   TakionGui:TakionGui.dll
 0001:0001b91e       ?GetNonZeroCount@RowValue@@UEBAIXZ 000000018001c91e f   TakionGui:TakionGui.dll
 0001:0001b924       ?GetObjectValue@PositionIntInventoryRowValueNull@@UEBAAEBHXZ 000000018001c924 f   TakionGui:TakionGui.dll
 0001:0001b92a       ?GetObjectValueCopy@?$TypedRowValue@H@@UEBAHXZ 000000018001c92a f   TakionGui:TakionGui.dll
 0001:0001b930       ?SetValue@PositionIntInventoryRowValueNull@@UEAA_NAEBH@Z 000000018001c930 f   TakionGui:TakionGui.dll
 0001:0001b936       ?InitializeValue@PositionIntInventoryRowValueNull@@MEAAXXZ 000000018001c936 f   TakionGui:TakionGui.dll
 0001:0001b93c       ?CanBeNegative@?$MonetaryUnsignedRowValue@VPrice@@@@MEBA_NXZ 000000018001c93c f   TakionGui:TakionGui.dll
 0001:0001b942       ?CompareValueToZero@?$TypedUnsignedRowValue@VPrice@@@@UEBAFXZ 000000018001c942 f   TakionGui:TakionGui.dll
 0001:0001b948       ?isValueZero@?$TypedNumericRowValue@VPrice@@@@UEBA_NXZ 000000018001c948 f   TakionGui:TakionGui.dll
 0001:0001b94e       ?isObjectValueZero@?$TypedNumericRowValue@VPrice@@@@UEBA_NXZ 000000018001c94e f   TakionGui:TakionGui.dll
 0001:0001b954       ?UpdateValue@?$TypedRowValue@VPrice@@@@UEAA_NXZ 000000018001c954 f   TakionGui:TakionGui.dll
 0001:0001b95a       ?InitValue@?$TypedRowValue@VPrice@@@@UEAAXXZ 000000018001c95a f   TakionGui:TakionGui.dll
 0001:0001b960       ?InitializeValue@?$TypedRowValue@VPrice@@@@MEAAXXZ 000000018001c960 f   TakionGui:TakionGui.dll
 0001:0001b966       ?isValueChanged@?$TypedRowValue@VPrice@@@@UEBA_NXZ 000000018001c966 f   TakionGui:TakionGui.dll
 0001:0001b96c       ?toString@PriceRowValue@@UEBAXAEAV?$basic_string@DU?$char_traits@D@std@@V?$allocator@D@2@@std@@@Z 000000018001c96c f   TakionGui:TakionGui.dll
 0001:0001b972       ?isValueEmpty@?$TypedRowValue@VPrice@@@@UEBA_NXZ 000000018001c972 f   TakionGui:TakionGui.dll
 0001:0001b978       ?Compare@?$TypedRowValue@VPrice@@@@UEBAFAEBVRowValue@@@Z 000000018001c978 f   TakionGui:TakionGui.dll
 0001:0001b97e       ?CompareValue@?$TypedRowValue@VPrice@@@@UEBAFAEBVPrice@@@Z 000000018001c97e f   TakionGui:TakionGui.dll
 0001:0001b984       ?CompareAhead@?$TypedRowValue@VPrice@@@@UEBAFAEBVRowValue@@@Z 000000018001c984 f   TakionGui:TakionGui.dll
 0001:0001b98a       ?isObjectValueEmpty@?$TypedRowValue@VPrice@@@@UEBA_NXZ 000000018001c98a f   TakionGui:TakionGui.dll
 0001:0001b990       ?NullifyTick@?$TypedNumericRowValue@VPrice@@@@UEAAXXZ 000000018001c990 f   TakionGui:TakionGui.dll
 0001:0001b996       ?NullifyLastDiff@?$TypedNumericRowValue@VPrice@@@@UEBAXXZ 000000018001c996 f   TakionGui:TakionGui.dll
 0001:0001b99c       ?Add@?$TypedNumericRowValue@VPrice@@@@UEAA_NAEBVRowValue@@@Z 000000018001c99c f   TakionGui:TakionGui.dll
 0001:0001b9a2       ?SetValue@?$TypedNumericRowValue@VPrice@@@@UEAA_NAEBVPrice@@@Z 000000018001c9a2 f   TakionGui:TakionGui.dll
 0001:0001b9a8       ?CompareToZero@?$TypedNumericRowValue@VPrice@@@@UEBAFAEBVSignedPrice@@@Z 000000018001c9a8 f   TakionGui:TakionGui.dll
 0001:0001b9ae       ?Subtract@?$TypedNumericRowValue@VPrice@@@@UEAA_NAEBVRowValue@@@Z 000000018001c9ae f   TakionGui:TakionGui.dll
 0001:0001b9b4       ?Adjust@?$TypedUnsignedRowValue@VPrice@@@@UEAA_NAEBVRowValue@@@Z 000000018001c9b4 f   TakionGui:TakionGui.dll
 0001:0001b9ba       ?Reset@?$TypedNumericRowValue@VPrice@@@@UEAAXXZ 000000018001c9ba f   TakionGui:TakionGui.dll
 0001:0001b9c0       ?GetTickMillisecond@?$TypedNumericRowValue@VPrice@@@@UEBAIXZ 000000018001c9c0 f   TakionGui:TakionGui.dll
 0001:0001b9c6       ?GetIntValue@RowValue@@UEBAHXZ 000000018001c9c6 f   TakionGui:TakionGui.dll
 0001:0001b9cc       ?GetPriceValue@PriceRowValue@@UEBA?AVPrice@@XZ 000000018001c9cc f   TakionGui:TakionGui.dll
 0001:0001b9d2       ?isComma@?$CommaUnsignedRowValue@VPrice@@@@UEBAPEB_NXZ 000000018001c9d2 f   TakionGui:TakionGui.dll
 0001:0001b9d8       ?SetComma@?$CommaUnsignedRowValue@VPrice@@@@UEAAXPEB_N@Z 000000018001c9d8 f   TakionGui:TakionGui.dll
 0001:0001b9de       ?GetDecDigits@?$DecUnsignedRowValue@VPrice@@@@UEBAPEBEXZ 000000018001c9de f   TakionGui:TakionGui.dll
 0001:0001b9e4       ?SetDecDigits@?$DecUnsignedRowValue@VPrice@@@@UEAAXPEBE@Z 000000018001c9e4 f   TakionGui:TakionGui.dll
 0001:0001b9ea       ?isTruncate@?$DecUnsignedRowValue@VPrice@@@@UEBAPEB_NXZ 000000018001c9ea f   TakionGui:TakionGui.dll
 0001:0001b9f0       ?SetTruncate@?$DecUnsignedRowValue@VPrice@@@@UEAAXPEB_N@Z 000000018001c9f0 f   TakionGui:TakionGui.dll
 0001:0001b9f6       ?GetObjectValueCopy@?$TypedRowValue@VPrice@@@@UEBA?AVPrice@@XZ 000000018001c9f6 f   TakionGui:TakionGui.dll
 0001:0001b9fc       ?CalculateTick@?$TypedUnsignedRowValue@VPrice@@@@MEAAXAEBVPrice@@AEAVSignedPrice@@@Z 000000018001c9fc f   TakionGui:TakionGui.dll
 0001:0001ba02       ?CanBeNegative@?$TypedUnsignedRowValue@I@@UEBA_NXZ 000000018001ca02 f   TakionGui:TakionGui.dll
 0001:0001ba08       ?CompareValueToZero@?$TypedUnsignedRowValue@I@@UEBAFXZ 000000018001ca08 f   TakionGui:TakionGui.dll
 0001:0001ba0e       ?isValueZero@?$TypedNumericRowValue@I@@UEBA_NXZ 000000018001ca0e f   TakionGui:TakionGui.dll
 0001:0001ba14       ?isObjectValueZero@?$TypedNumericRowValue@I@@UEBA_NXZ 000000018001ca14 f   TakionGui:TakionGui.dll
 0001:0001ba1a       ?UpdateValue@?$TypedRowValue@I@@UEAA_NXZ 000000018001ca1a f   TakionGui:TakionGui.dll
 0001:0001ba20       ?InitValue@?$TypedRowValue@I@@UEAAXXZ 000000018001ca20 f   TakionGui:TakionGui.dll
 0001:0001ba26       ?InitializeValue@?$TypedRowValue@I@@MEAAXXZ 000000018001ca26 f   TakionGui:TakionGui.dll
 0001:0001ba2c       ?isValueChanged@?$TypedRowValue@I@@UEBA_NXZ 000000018001ca2c f   TakionGui:TakionGui.dll
 0001:0001ba32       ?toString@CompactPriceRowValue@@UEBAXAEAV?$basic_string@DU?$char_traits@D@std@@V?$allocator@D@2@@std@@@Z 000000018001ca32 f   TakionGui:TakionGui.dll
 0001:0001ba38       ?isValueEmpty@?$TypedRowValue@I@@UEBA_NXZ 000000018001ca38 f   TakionGui:TakionGui.dll
 0001:0001ba3e       ?Compare@?$TypedRowValue@I@@UEBAFAEBVRowValue@@@Z 000000018001ca3e f   TakionGui:TakionGui.dll
 0001:0001ba44       ?CompareValue@?$TypedRowValue@I@@UEBAFAEBI@Z 000000018001ca44 f   TakionGui:TakionGui.dll
 0001:0001ba4a       ?CompareAhead@?$TypedRowValue@I@@UEBAFAEBVRowValue@@@Z 000000018001ca4a f   TakionGui:TakionGui.dll
 0001:0001ba50       ?isObjectValueEmpty@?$TypedRowValue@I@@UEBA_NXZ 000000018001ca50 f   TakionGui:TakionGui.dll
 0001:0001ba56       ?NullifyTick@?$TypedNumericRowValue@I@@UEAAXXZ 000000018001ca56 f   TakionGui:TakionGui.dll
 0001:0001ba5c       ?NullifyLastDiff@?$TypedNumericRowValue@I@@UEBAXXZ 000000018001ca5c f   TakionGui:TakionGui.dll
 0001:0001ba62       ?Add@?$TypedNumericRowValue@I@@UEAA_NAEBVRowValue@@@Z 000000018001ca62 f   TakionGui:TakionGui.dll
 0001:0001ba68       ?SetValue@?$TypedNumericRowValue@I@@UEAA_NAEBI@Z 000000018001ca68 f   TakionGui:TakionGui.dll
 0001:0001ba6e       ?CompareToZero@?$TypedNumericRowValue@I@@UEBAFAEBH@Z 000000018001ca6e f   TakionGui:TakionGui.dll
 0001:0001ba74       ?Subtract@?$TypedNumericRowValue@I@@UEAA_NAEBVRowValue@@@Z 000000018001ca74 f   TakionGui:TakionGui.dll
 0001:0001ba7a       ?Adjust@?$TypedUnsignedRowValue@I@@UEAA_NAEBVRowValue@@@Z 000000018001ca7a f   TakionGui:TakionGui.dll
 0001:0001ba80       ?Reset@?$TypedNumericRowValue@I@@UEAAXXZ 000000018001ca80 f   TakionGui:TakionGui.dll
 0001:0001ba86       ?GetTickMillisecond@?$TypedNumericRowValue@I@@UEBAIXZ 000000018001ca86 f   TakionGui:TakionGui.dll
 0001:0001ba8c       ?GetUIntValue@UIntRowValue@@UEBAIXZ 000000018001ca8c f   TakionGui:TakionGui.dll
 0001:0001ba92       ?GetPriceValue@CompactPriceRowValue@@UEBA?AVPrice@@XZ 000000018001ca92 f   TakionGui:TakionGui.dll
 0001:0001ba98       ?isComma@?$CommaUnsignedRowValue@I@@UEBAPEB_NXZ 000000018001ca98 f   TakionGui:TakionGui.dll
 0001:0001ba9e       ?SetComma@?$CommaUnsignedRowValue@I@@UEAAXPEB_N@Z 000000018001ca9e f   TakionGui:TakionGui.dll
 0001:0001baa4       ?GetDecDigits@CompactPriceRowValue@@UEBAPEBEXZ 000000018001caa4 f   TakionGui:TakionGui.dll
 0001:0001baaa       ?SetDecDigits@CompactPriceRowValue@@UEAAXPEBE@Z 000000018001caaa f   TakionGui:TakionGui.dll
 0001:0001bab0       ?isTruncate@CompactPriceRowValue@@UEBAPEB_NXZ 000000018001cab0 f   TakionGui:TakionGui.dll
 0001:0001bab6       ?SetTruncate@CompactPriceRowValue@@UEAAXPEB_N@Z 000000018001cab6 f   TakionGui:TakionGui.dll
 0001:0001babc       ?GetObjectValueCopy@?$TypedRowValue@I@@UEBAIXZ 000000018001cabc f   TakionGui:TakionGui.dll
 0001:0001bac2       ?CalculateTick@?$TypedUnsignedRowValue@I@@MEAAXAEBIAEAH@Z 000000018001cac2 f   TakionGui:TakionGui.dll
 0001:0001bac8       ?CompareValueToZero@?$TypedNumericRowValue@VSignedPrice@@@@UEBAFXZ 000000018001cac8 f   TakionGui:TakionGui.dll
 0001:0001bace       ?InitValue@?$TypedRowValue@VSignedPrice@@@@UEAAXXZ 000000018001cace f   TakionGui:TakionGui.dll
 0001:0001bad4       ?GetObjectValue@?$TypedRowValue@VSignedPrice@@@@UEBAAEBVSignedPrice@@XZ 000000018001cad4 f   TakionGui:TakionGui.dll
 0001:0001bada       ?toString@SignedPriceRowValue@@UEBAXAEAV?$basic_string@DU?$char_traits@D@std@@V?$allocator@D@2@@std@@@Z 000000018001cada f   TakionGui:TakionGui.dll
 0001:0001bae0       ?isValueEmpty@?$TypedRowValue@VSignedPrice@@@@UEBA_NXZ 000000018001cae0 f   TakionGui:TakionGui.dll
 0001:0001bae6       ?Compare@?$TypedRowValue@VSignedPrice@@@@UEBAFAEBVRowValue@@@Z 000000018001cae6 f   TakionGui:TakionGui.dll
 0001:0001baec       ?isObjectValueEmpty@?$TypedRowValue@VSignedPrice@@@@UEBA_NXZ 000000018001caec f   TakionGui:TakionGui.dll
 0001:0001baf2       ?NullifyTick@?$TypedNumericRowValue@VSignedPrice@@@@UEAAXXZ 000000018001caf2 f   TakionGui:TakionGui.dll
 0001:0001baf8       ?NullifyLastDiff@?$TypedNumericRowValue@VSignedPrice@@@@UEBAXXZ 000000018001caf8 f   TakionGui:TakionGui.dll
 0001:0001bafe       ?Add@?$TypedNumericRowValue@VSignedPrice@@@@UEAA_NAEBVRowValue@@@Z 000000018001cafe f   TakionGui:TakionGui.dll
 0001:0001bb04       ?Subtract@?$TypedNumericRowValue@VSignedPrice@@@@UEAA_NAEBVRowValue@@@Z 000000018001cb04 f   TakionGui:TakionGui.dll
 0001:0001bb0a       ?Adjust@?$TypedNumericRowValue@VSignedPrice@@@@UEAA_NAEBVRowValue@@@Z 000000018001cb0a f   TakionGui:TakionGui.dll
 0001:0001bb10       ?Reset@?$TypedNumericRowValue@VSignedPrice@@@@UEAAXXZ 000000018001cb10 f   TakionGui:TakionGui.dll
 0001:0001bb16       ?GetTickMillisecond@?$TypedNumericRowValue@VSignedPrice@@@@UEBAIXZ 000000018001cb16 f   TakionGui:TakionGui.dll
 0001:0001bb1c       ?isComma@?$CommaRowValue@VSignedPrice@@@@UEBAPEB_NXZ 000000018001cb1c f   TakionGui:TakionGui.dll
 0001:0001bb22       ?SetComma@?$CommaRowValue@VSignedPrice@@@@UEAAXPEB_N@Z 000000018001cb22 f   TakionGui:TakionGui.dll
 0001:0001bb28       ?GetDecDigits@?$DecRowValue@VSignedPrice@@@@UEBAPEBEXZ 000000018001cb28 f   TakionGui:TakionGui.dll
 0001:0001bb2e       ?SetDecDigits@?$DecRowValue@VSignedPrice@@@@UEAAXPEBE@Z 000000018001cb2e f   TakionGui:TakionGui.dll
 0001:0001bb34       ?isTruncate@?$DecRowValue@VSignedPrice@@@@UEBAPEB_NXZ 000000018001cb34 f   TakionGui:TakionGui.dll
 0001:0001bb3a       ?SetTruncate@?$DecRowValue@VSignedPrice@@@@UEAAXPEB_N@Z 000000018001cb3a f   TakionGui:TakionGui.dll
 0001:0001bb40       ?GetObjectValueCopy@?$TypedRowValue@VSignedPrice@@@@UEBA?AVSignedPrice@@XZ 000000018001cb40 f   TakionGui:TakionGui.dll
 0001:0001bb46       ?isValueEmpty@?$TypedRowValue@H@@UEBA_NXZ 000000018001cb46 f   TakionGui:TakionGui.dll
 0001:0001bb4c       ?isObjectValueEmpty@?$TypedRowValue@H@@UEBA_NXZ 000000018001cb4c f   TakionGui:TakionGui.dll
 0001:0001bb52       ?DestroyCell@RowSortable@@UEAA_NG@Z 000000018001cb52 f   TakionGui:TakionGui.dll
 0001:0001bb58       ?PaintCell@Row@@UEBA_NAEAVCDC@@PEBVColumn@@AEAVCRect@@_NIHH@Z 000000018001cb58 f   TakionGui:TakionGui.dll
 0001:0001bb5e       ?CellToString@Row@@UEBA_NAEAV?$basic_string@DU?$char_traits@D@std@@V?$allocator@D@2@@std@@G@Z 000000018001cb5e f   TakionGui:TakionGui.dll
 0001:0001bb64       ?GetMouseCellBkAndTextColor@Row@@UEBAKGAEAK@Z 000000018001cb64 f   TakionGui:TakionGui.dll
 0001:0001bb6a       ?GetRowFont@Row@@UEBAPEAVCFont@@XZ 000000018001cb6a f   TakionGui:TakionGui.dll
 0001:0001bb70       ?GetRowAccount@Row@@UEBAPEBVAccount@@XZ 000000018001cb70 f   TakionGui:TakionGui.dll
 0001:0001bb76       ?GetRowAccountAggregator@Row@@UEBAPEBVAccountAggregator@@XZ 000000018001cb76 f   TakionGui:TakionGui.dll
 0001:0001bb7c       ?isSelected@RowSortable@@UEBA_NXZ 000000018001cb7c f   TakionGui:TakionGui.dll
 0001:0001bb82       ?isBkColorOverrideSelection@Row@@UEBA_NG@Z 000000018001cb82 f   TakionGui:TakionGui.dll
 0001:0001bb88       ?GetStringValue@Row@@UEBAPEBDG@Z 000000018001cb88 f   TakionGui:TakionGui.dll
 0001:0001bb8e       ?GetUIntValue@Row@@UEBA?BIG@Z 000000018001cb8e f   TakionGui:TakionGui.dll
 0001:0001bb94       ?GetUInt64Value@Row@@UEBA?B_KG@Z 000000018001cb94 f   TakionGui:TakionGui.dll
 0001:0001bb9a       ?GetIntValue@Row@@UEBA?BHG@Z 000000018001cb9a f   TakionGui:TakionGui.dll
 0001:0001bba0       ?GetPriceValue@Row@@UEBA?AVPrice@@G@Z 000000018001cba0 f   TakionGui:TakionGui.dll
 0001:0001bba6       ?isExpandable@Row@@UEBA_NXZ 000000018001cba6 f   TakionGui:TakionGui.dll
 0001:0001bbac       ?isExpanded@Row@@UEBA_NXZ  000000018001cbac f   TakionGui:TakionGui.dll
 0001:0001bbb2       ?SetExpanded@Row@@UEAA_N_N@Z 000000018001cbb2 f   TakionGui:TakionGui.dll
 0001:0001bbb8       ?isSecondary@Row@@UEBA_NXZ 000000018001cbb8 f   TakionGui:TakionGui.dll
 0001:0001bbbe       ?isPrimary@Row@@UEBA_NXZ   000000018001cbbe f   TakionGui:TakionGui.dll
 0001:0001bbc4       ?GetParentRow@RowSortable@@UEBAPEBVRow@@XZ 000000018001cbc4 f   TakionGui:TakionGui.dll
 0001:0001bbca       ?GetParentRow@RowSortable@@UEAAPEAVRow@@XZ 000000018001cbca f   TakionGui:TakionGui.dll
 0001:0001bbd0       ?AdjustColor@RowSortable@@MEBAXPEBVColumn@@@Z 000000018001cbd0 f   TakionGui:TakionGui.dll
 0001:0001bbd6       ?InitializeWithObject@RowSortable@@UEAAXPEBX_N@Z 000000018001cbd6 f   TakionGui:TakionGui.dll
 0001:0001bbdc       ?Strip@RowSortable@@UEAAXXZ 000000018001cbdc f   TakionGui:TakionGui.dll
 0001:0001bbe2       ?isSortValueChanged@RowSortable@@UEBA_NXZ 000000018001cbe2 f   TakionGui:TakionGui.dll
 0001:0001bbe8       ?isChainSortValueChanged@RowSortable@@UEBA_NXZ 000000018001cbe8 f   TakionGui:TakionGui.dll
 0001:0001bbee       ?Compare@RowSortable@@UEBAFAEBV1@@Z 000000018001cbee f   TakionGui:TakionGui.dll
 0001:0001bbf4       ?CompareAhead@RowSortable@@UEBAFAEBV1@@Z 000000018001cbf4 f   TakionGui:TakionGui.dll
 0001:0001bbfa       ?DefaultCompareAhead@RowSortable@@UEBAFAEBV1@@Z 000000018001cbfa f   TakionGui:TakionGui.dll
 0001:0001bc00       ?CompareChain@RowSortable@@UEBAFAEBV1@@Z 000000018001cc00 f   TakionGui:TakionGui.dll
 0001:0001bc06       ?CompareChainAhead@RowSortable@@UEBAFAEBV1@@Z 000000018001cc06 f   TakionGui:TakionGui.dll
 0001:0001bc0c       ?GetPopOrdinal@RowSortable@@UEBAAEBIXZ 000000018001cc0c f   TakionGui:TakionGui.dll
 0001:0001bc12       ?hasInventory@RowSortable@@UEBA_NXZ 000000018001cc12 f   TakionGui:TakionGui.dll
 0001:0001bc18       ?GetParentSortableRow@RowSortable@@UEBAPEBV1@XZ 000000018001cc18 f   TakionGui:TakionGui.dll
 0001:0001bc1e       ?GetParentSortableRow@RowSortable@@UEAAPEAV1@XZ 000000018001cc1e f   TakionGui:TakionGui.dll
 0001:0001bc24       ?SetParentRow@RowSortable@@UEAAXAEBQEAV1@@Z 000000018001cc24 f   TakionGui:TakionGui.dll
 0001:0001bc2a       ?GetChildRows@RowSortable@@UEBAPEBV?$unordered_set@PEAVRowSortable@@U?$hash@PEAVRowSortable@@@std@@U?$equal_to@PEAVRowSortable@@@3@V?$allocator@PEAVRowSortable@@@3@@std@@XZ 000000018001cc2a f   TakionGui:TakionGui.dll
 0001:0001bc30       ?GetChildRows@RowSortable@@UEAAPEAV?$unordered_set@PEAVRowSortable@@U?$hash@PEAVRowSortable@@@std@@U?$equal_to@PEAVRowSortable@@@3@V?$allocator@PEAVRowSortable@@@3@@std@@XZ 000000018001cc30 f   TakionGui:TakionGui.dll
 0001:0001bc36       ?GetChildRowCount@RowSortable@@UEBAIXZ 000000018001cc36 f   TakionGui:TakionGui.dll
 0001:0001bc3c       ?HasChildRows@RowSortable@@UEBA_NXZ 000000018001cc3c f   TakionGui:TakionGui.dll
 0001:0001bc42       ?PrepareForModification@RowSortable@@UEAAXXZ 000000018001cc42 f   TakionGui:TakionGui.dll
 0001:0001bc48       ?UnprepareForModification@RowSortable@@UEAAXXZ 000000018001cc48 f   TakionGui:TakionGui.dll
 0001:0001bc4e       ?NullifyParentRow@RowSortable@@MEAAXXZ 000000018001cc4e f   TakionGui:TakionGui.dll
 0001:0001bc54       ?AddChildRow@RowSortable@@MEAA_NPEAV1@@Z 000000018001cc54 f   TakionGui:TakionGui.dll
 0001:0001bc5a       ?RemoveChildRow@RowSortable@@MEAA_NPEAV1@@Z 000000018001cc5a f   TakionGui:TakionGui.dll
 0001:0001bc60       ?ClearChildRows@RowSortable@@MEAA_NPEAV1@@Z 000000018001cc60 f   TakionGui:TakionGui.dll
 0001:0001bc66       ?isHiLo@SecurityChartRow@@UEBA_NXZ 000000018001cc66 f   TakionGui:TakionGui.dll
 0001:0001bc6c       ?isUseOddLotPrints@SecurityChartRow@@UEBA_NXZ 000000018001cc6c f   TakionGui:TakionGui.dll
 0001:0001bc72       ?SetSecurity@SecurityChartRow@@UEAA_NPEBVSecurity@@@Z 000000018001cc72 f   TakionGui:TakionGui.dll
 0001:0001bc78       ?SetTimeFrame@SecurityChartRow@@UEAA_NGG@Z 000000018001cc78 f   TakionGui:TakionGui.dll
 0001:0001bc7e       ?InvalidateRsiMhCellIfVisible@SecurityChartRow@@UEBAXXZ 000000018001cc7e f   TakionGui:TakionGui.dll
 0001:0001bc84       ?InvalidateRsiDaysCellIfVisible@SecurityChartRow@@UEBAXXZ 000000018001cc84 f   TakionGui:TakionGui.dll
 0001:0001bc8a       ?NextDayReset@SecurityChartRow@@UEAAXXZ 000000018001cc8a f   TakionGui:TakionGui.dll
 0001:0001bc90       ?IncrementHiCount@SecurityChartRow@@MEAAXXZ 000000018001cc90 f   TakionGui:TakionGui.dll
 0001:0001bc96       ?DecrementHiCount@SecurityChartRow@@MEAAXXZ 000000018001cc96 f   TakionGui:TakionGui.dll
 0001:0001bc9c       ?IncrementLoCount@SecurityChartRow@@MEAAXXZ 000000018001cc9c f   TakionGui:TakionGui.dll
 0001:0001bca2       ?DecrementLoCount@SecurityChartRow@@MEAAXXZ 000000018001cca2 f   TakionGui:TakionGui.dll
 0001:0001bca8       ?LowReached@SecurityChartRow@@MEAAX_N@Z 000000018001cca8 f   TakionGui:TakionGui.dll
 0001:0001bcae       ?HighReached@SecurityChartRow@@MEAAX_N@Z 000000018001ccae f   TakionGui:TakionGui.dll
 0001:0001bcb4       ?PreTranslateMessage@RowWindowSortableAccount@@MEAAHPEAUtagMSG@@@Z 000000018001ccb4 f   TakionGui:TakionGui.dll
 0001:0001bcba       ?DrawMenuItem@RowWindowSortableAccount@@MEAAXPEAUtagDRAWITEMSTRUCT@@@Z 000000018001ccba f   TakionGui:TakionGui.dll
 0001:0001bcc0       ?MeasureMenuItem@RowWindowSortableAccount@@MEAA_NPEAUtagMEASUREITEMSTRUCT@@@Z 000000018001ccc0 f   TakionGui:TakionGui.dll
 0001:0001bcc6       ?OnMouseForcedReleaseCapture@RowWindowSortable@@MEAAXXZ 000000018001ccc6 f   TakionGui:TakionGui.dll
 0001:0001bccc       ?GetTitleColorActive@RowWindow@@UEBAKXZ 000000018001cccc f   TakionGui:TakionGui.dll
 0001:0001bcd2       ?GetTitleColorInactive@RowWindow@@UEBAKXZ 000000018001ccd2 f   TakionGui:TakionGui.dll
 0001:0001bcd8       ?GetTitleColorTextActive@RowWindow@@UEBAKXZ 000000018001ccd8 f   TakionGui:TakionGui.dll
 0001:0001bcde       ?GetTitleColorTextInactive@RowWindow@@UEBAKXZ 000000018001ccde f   TakionGui:TakionGui.dll
 0001:0001bce4       ?GetWindowName@TakionTool@@UEBAPEBDXZ 000000018001cce4 f   TakionGui:TakionGui.dll
 0001:0001bcea       ?GetCurrentFontParams@RowWindowSortable@@UEBA_NAEAV?$basic_string@DU?$char_traits@D@std@@V?$allocator@D@2@@std@@AEAVFontDescription@@1AEA_NAEAI@Z 000000018001ccea f   TakionGui:TakionGui.dll
 0001:0001bcf0       ?SetCustomFont@RowWindowSortable@@UEAAXAEBVFontDescription@@_NI@Z 000000018001ccf0 f   TakionGui:TakionGui.dll
 0001:0001bcf6       ?SetCustomColors@RowWindowSortable@@UEAAXPEBVGraphics@@PEAVGraphicsColorCollection@@PEBKG_NAEBVFilterStringAsNumberArray@@@Z 000000018001ccf6 f   TakionGui:TakionGui.dll
 0001:0001bcfc       ?CreateTakionWnd@TakionTool@@UEAA_NPEBVCRect@@_N@Z 000000018001ccfc f   TakionGui:TakionGui.dll
 0001:0001bd02       ?GetSettingsTabPath@TakionTool@@UEBAPEBDAEBVCPoint@@@Z 000000018001cd02 f   TakionGui:TakionGui.dll
 0001:0001bd08       ?GetSettingsTabInitInfo@TakionTool@@UEBAPEBXAEBVCPoint@@@Z 000000018001cd08 f   TakionGui:TakionGui.dll
 0001:0001bd0e       ?GetGraphicsTabInitInfo@RowWindowSortable@@UEBAPEBXAEBVCPoint@@@Z 000000018001cd0e f   TakionGui:TakionGui.dll
 0001:0001bd14       ?SetTakionNamedFilter@RowWindow@@UEAAXPEAVTakionFilter@@AEBV?$basic_string@DU?$char_traits@D@std@@V?$allocator@D@2@@std@@@Z 000000018001cd14 f   TakionGui:TakionGui.dll
 0001:0001bd1a       ?NullifyNamedFilter@RowWindow@@UEAAXXZ 000000018001cd1a f   TakionGui:TakionGui.dll
 0001:0001bd20       ?GetTakionNamedFilter@RowWindow@@UEBAPEBVTakionFilter@@XZ 000000018001cd20 f   TakionGui:TakionGui.dll
 0001:0001bd26       ?GetNormalRect@TakionTool@@UEBAAEBVCRect@@XZ 000000018001cd26 f   TakionGui:TakionGui.dll
 0001:0001bd2c       ?GetInitialWidth@TakionTool@@UEBAHXZ 000000018001cd2c f   TakionGui:TakionGui.dll
 0001:0001bd32       ?GetInitialHeight@TakionTool@@UEBAHXZ 000000018001cd32 f   TakionGui:TakionGui.dll
 0001:0001bd38       ?GetSysMenu@TakionTool@@UEBAPEAVCMenu@@XZ 000000018001cd38 f   TakionGui:TakionGui.dll
 0001:0001bd3e       ?GetScrollHorizontalOffset@RowWindow@@UEBAHXZ 000000018001cd3e f   TakionGui:TakionGui.dll
 0001:0001bd44       ?GetScrollVerticalOffset@RowWindow@@UEBAHXZ 000000018001cd44 f   TakionGui:TakionGui.dll
 0001:0001bd4a       ?ToggleMaximized@TakionTool@@UEAA_NXZ 000000018001cd4a f   TakionGui:TakionGui.dll
 0001:0001bd50       ?isRemoved@TakionTool@@UEBA_NXZ 000000018001cd50 f   TakionGui:TakionGui.dll
 0001:0001bd56       ?isTool@TakionTool@@UEBA_NXZ 000000018001cd56 f   TakionGui:TakionGui.dll
 0001:0001bd5c       ?GetToolOrdinal@TakionTool@@UEBAAEBIXZ 000000018001cd5c f   TakionGui:TakionGui.dll
 0001:0001bd62       ?isCommandTool@TakionTool@@UEBA_NXZ 000000018001cd62 f   TakionGui:TakionGui.dll
 0001:0001bd68       ?isHidden@TakionTool@@UEBA_NXZ 000000018001cd68 f   TakionGui:TakionGui.dll
 0001:0001bd6e       ?GetWorkspace@TakionTool@@UEBAIXZ 000000018001cd6e f   TakionGui:TakionGui.dll
 0001:0001bd74       ?GetLayer@TakionTool@@UEBAIXZ 000000018001cd74 f   TakionGui:TakionGui.dll
 0001:0001bd7a       ?CalculateTop@TakionTool@@UEBAHXZ 000000018001cd7a f   TakionGui:TakionGui.dll
 0001:0001bd80       ?SetFrameRect@TakionTool@@MEAAXAEBVCRect@@@Z 000000018001cd80 f   TakionGui:TakionGui.dll
 0001:0001bd86       ?AddToVisibleTools@TakionTool@@MEAAXXZ 000000018001cd86 f   TakionGui:TakionGui.dll
 0001:0001bd8c       ?RemoveFromVisibleTools@TakionTool@@MEAA_NXZ 000000018001cd8c f   TakionGui:TakionGui.dll
 0001:0001bd92       ?AfterCloning@TakionTool@@MEAAXXZ 000000018001cd92 f   TakionGui:TakionGui.dll
 0001:0001bd98       ?AfterPasting@TakionTool@@MEAAXXZ 000000018001cd98 f   TakionGui:TakionGui.dll
 0001:0001bd9e       ?AddToToolCollection@TakionTool@@UEAA_NXZ 000000018001cd9e f   TakionGui:TakionGui.dll
 0001:0001bda4       ?DoApplyFilter@RowWindow@@MEAAXAEBVTakionFilter@@_N@Z 000000018001cda4 f   TakionGui:TakionGui.dll
 0001:0001bdaa       ?DisplayClientMenu@RowWindow@@MEAAXIVCPoint@@@Z 000000018001cdaa f   TakionGui:TakionGui.dll
 0001:0001bdb0       ?PreAddMenuItems@RowWindowSortableAccount@@MEAAXAEAVCMenu@@@Z 000000018001cdb0 f   TakionGui:TakionGui.dll
 0001:0001bdb6       ?ResizeMouseArea@RowWindow@@MEAA_NAEBVCPoint@@_N@Z 000000018001cdb6 f   TakionGui:TakionGui.dll
 0001:0001bdbc       ?UpdateResizeCursor@RowWindow@@MEAAEAEBVCPoint@@_N@Z 000000018001cdbc f   TakionGui:TakionGui.dll
 0001:0001bdc2       ?AfterDestroy@RowWindow@@MEAAXXZ 000000018001cdc2 f   TakionGui:TakionGui.dll
 0001:0001bdc8       ?DoActivate@RowWindow@@MEAAXI_N@Z 000000018001cdc8 f   TakionGui:TakionGui.dll
 0001:0001bdce       ?MouseLeft@RowWindow@@MEAAXXZ 000000018001cdce f   TakionGui:TakionGui.dll
 0001:0001bdd4       ?ClientSetCursor@RowWindowSortable@@MEAA_NXZ 000000018001cdd4 f   TakionGui:TakionGui.dll
 0001:0001bdda       ?DoPaint@RowWindow@@MEAAXAEBUtagRECT@@AEAVCDC@@@Z 000000018001cdda f   TakionGui:TakionGui.dll
 0001:0001bde0       ?DoSize@TakionTool@@MEAAXIHHHH@Z 000000018001cde0 f   TakionGui:TakionGui.dll
 0001:0001bde6       ?PreSuccessfulCreate@RowWindow@@MEAAXXZ 000000018001cde6 f   TakionGui:TakionGui.dll
 0001:0001bdec       ?OnTitleResize@RowWindowSortable@@MEAAXXZ 000000018001cdec f   TakionGui:TakionGui.dll
 0001:0001bdf2       ?TitleFontChanged@RowWindowSortable@@MEAAXXZ 000000018001cdf2 f   TakionGui:TakionGui.dll
 0001:0001bdf8       ?ResizeBorder@RowWindow@@MEAA_NH@Z 000000018001cdf8 f   TakionGui:TakionGui.dll
 0001:0001bdfe       ?UpdateTitleRects@RowWindowSortable@@MEAAXXZ 000000018001cdfe f   TakionGui:TakionGui.dll
 0001:0001be04       ?GetCurrentAccount@TakionTool@@UEBAPEBVAccount@@XZ 000000018001ce04 f   TakionGui:TakionGui.dll
 0001:0001be0a       ?isTimeFrameInMinutes@TakionTool@@UEBA_NXZ 000000018001ce0a f   TakionGui:TakionGui.dll
 0001:0001be10       ?GetLinkedWindows@TakionTool@@UEAAPEAV?$PtrCollection@VTakionTool@@V?$unordered_set@PEAVTakionTool@@U?$hash@PEAVTakionTool@@@std@@U?$equal_to@PEAVTakionTool@@@3@V?$allocator@PEAVTakionTool@@@3@@std@@@@XZ 000000018001ce10 f   TakionGui:TakionGui.dll
 0001:0001be16       ?SetToDrawLine@TakionTool@@UEAAXE@Z 000000018001ce16 f   TakionGui:TakionGui.dll
 0001:0001be1c       ?ClearDrawType@TakionTool@@UEAAXEE@Z 000000018001ce1c f   TakionGui:TakionGui.dll
 0001:0001be22       ?RefreshWindow@TakionTool@@UEAAXXZ 000000018001ce22 f   TakionGui:TakionGui.dll
 0001:0001be28       ?GetFullMarketCategoryFilter@TakionTool@@UEBAIXZ 000000018001ce28 f   TakionGui:TakionGui.dll
 0001:0001be2e       ?ShowOrderDialog@TakionTool@@UEAA_NPEAVCustomDialogOrderCommand@@@Z 000000018001ce2e f   TakionGui:TakionGui.dll
 0001:0001be34       ?GetEcnBid@TakionTool@@UEBAAEBVPrice@@XZ 000000018001ce34 f   TakionGui:TakionGui.dll
 0001:0001be3a       ?GetEcnAsk@TakionTool@@UEBAAEBVPrice@@XZ 000000018001ce3a f   TakionGui:TakionGui.dll
 0001:0001be40       ?GetFirstQuote@TakionTool@@UEBAPEBVQuote@@_N0@Z 000000018001ce40 f   TakionGui:TakionGui.dll
 0001:0001be46       ?GetBorrowSize@TakionTool@@UEBAIXZ 000000018001ce46 f   TakionGui:TakionGui.dll
 0001:0001be4c       ?GetTierSize@TakionTool@@UEBAIXZ 000000018001ce4c f   TakionGui:TakionGui.dll
 0001:0001be52       ?ResetStockIterator@TakionTool@@UEBAXXZ 000000018001ce52 f   TakionGui:TakionGui.dll
 0001:0001be58       ?GetNextSecurity@TakionTool@@UEBAPEBVSecurity@@W4BasketSecurityType@@AEAIAEAHAEAVPrice@@3AEAPEBVPosition@@_N@Z 000000018001ce58 f   TakionGui:TakionGui.dll
 0001:0001be5e       ?isBasketNoTrading@TakionTool@@UEBA_NXZ 000000018001ce5e f   TakionGui:TakionGui.dll
 0001:0001be64       ?isBasketPassiveOnly@TakionTool@@UEBA_NXZ 000000018001ce64 f   TakionGui:TakionGui.dll
 0001:0001be6a       ?isBasketClosingOnly@TakionTool@@UEBA_NXZ 000000018001ce6a f   TakionGui:TakionGui.dll
 0001:0001be70       ?GetStockRoundLot@TakionTool@@UEBAAEBIXZ 000000018001ce70 f   TakionGui:TakionGui.dll
 0001:0001be76       ?GetLevel1Bid@TakionTool@@UEBAAEBVPrice@@XZ 000000018001ce76 f   TakionGui:TakionGui.dll
 0001:0001be7c       ?GetLevel1Ask@TakionTool@@UEBAAEBVPrice@@XZ 000000018001ce7c f   TakionGui:TakionGui.dll
 0001:0001be82       ?GetLevel2Bid@TakionTool@@UEBAAEBVPrice@@XZ 000000018001ce82 f   TakionGui:TakionGui.dll
 0001:0001be88       ?GetLevel2Ask@TakionTool@@UEBAAEBVPrice@@XZ 000000018001ce88 f   TakionGui:TakionGui.dll
 0001:0001be8e       ?GetImbExNear@TakionTool@@UEBAAEBVPrice@@XZ 000000018001ce8e f   TakionGui:TakionGui.dll
 0001:0001be94       ?GetLuldLow@TakionTool@@UEBAAEBVPrice@@XZ 000000018001ce94 f   TakionGui:TakionGui.dll
 0001:0001be9a       ?GetLuldHigh@TakionTool@@UEBAAEBVPrice@@XZ 000000018001ce9a f   TakionGui:TakionGui.dll
 0001:0001bea0       ?isConsolidated@TakionTool@@UEBA_NXZ 000000018001cea0 f   TakionGui:TakionGui.dll
 0001:0001bea6       ?isVertical@TakionTool@@UEBA_NXZ 000000018001cea6 f   TakionGui:TakionGui.dll
 0001:0001beac       ?GetPositionSize@TakionTool@@UEBAHXZ 000000018001ceac f   TakionGui:TakionGui.dll
 0001:0001beb2       ?isDialogOrderBarVisible@TakionTool@@UEBA_NXZ 000000018001ceb2 f   TakionGui:TakionGui.dll
 0001:0001beb8       ?HasPrints@TakionTool@@UEBA_NXZ 000000018001ceb8 f   TakionGui:TakionGui.dll
 0001:0001bebe       ?isBasket@TakionTool@@UEBA_NXZ 000000018001cebe f   TakionGui:TakionGui.dll
 0001:0001bec4       ?GetOrderModuleLimitPriceOffset@TakionTool@@UEBA_NAEAVSignedPrice@@@Z 000000018001cec4 f   TakionGui:TakionGui.dll
 0001:0001beca       ?GetOrderModuleLimitPrice@TakionTool@@UEBA_NAEAVPrice@@@Z 000000018001ceca f   TakionGui:TakionGui.dll
 0001:0001bed0       ?GetOrderModuleAbsoluteStopOrLimitCompactPrice@TakionTool@@UEBAIXZ 000000018001ced0 f   TakionGui:TakionGui.dll
 0001:0001bed6       ?ExpandSelectedRows@RowWindow@@UEAAX_N@Z 000000018001ced6 f   TakionGui:TakionGui.dll
 0001:0001bedc       ?ExpandAllRows@RowWindow@@UEAAX_N@Z 000000018001cedc f   TakionGui:TakionGui.dll
 0001:0001bee2       ?ToggleExpandedSelectedRow@RowWindow@@UEAAXXZ 000000018001cee2 f   TakionGui:TakionGui.dll
 0001:0001bee8       ?RemoveSelectedStocks@TakionTool@@UEAAXXZ 000000018001cee8 f   TakionGui:TakionGui.dll
 0001:0001beee       ?RemoveActiveStock@TakionTool@@UEAAXXZ 000000018001ceee f   TakionGui:TakionGui.dll
 0001:0001bef4       ?CancelSelectedOrder@TakionTool@@UEAAXXZ 000000018001cef4 f   TakionGui:TakionGui.dll
 0001:0001befa       ?CancelSelectedAlert@TakionTool@@UEAA_NXZ 000000018001cefa f   TakionGui:TakionGui.dll
 0001:0001bf00       ?ExecuteSelectedOrderInSimulation@TakionTool@@UEAAXXZ 000000018001cf00 f   TakionGui:TakionGui.dll
 0001:0001bf06       ?SetHistoricalChartParams@TakionTool@@UEAAXIED@Z 000000018001cf06 f   TakionGui:TakionGui.dll
 0001:0001bf0c       ?SetTodaysChartBounds@TakionTool@@UEAAX_NGGGE@Z 000000018001cf0c f   TakionGui:TakionGui.dll
 0001:0001bf12       ?SetTodaysChartMinMinutesInNode@TakionTool@@UEAAXG@Z 000000018001cf12 f   TakionGui:TakionGui.dll
 0001:0001bf18       ?Center@TakionTool@@UEAAXXZ 000000018001cf18 f   TakionGui:TakionGui.dll
 0001:0001bf1e       ?ForceCenter@TakionTool@@UEAAXXZ 000000018001cf1e f   TakionGui:TakionGui.dll
 0001:0001bf24       ?FillCommandToolBasketSymbols@TakionTool@@UEBA_NAEAV?$CMap@_KAEB_KEAEBE@@@Z 000000018001cf24 f   TakionGui:TakionGui.dll
 0001:0001bf2a       ?GetCommandToolBasketSymbolsPtr@TakionTool@@UEBAPEBV?$CMap@_KAEB_KEAEBE@@XZ 000000018001cf2a f   TakionGui:TakionGui.dll
 0001:0001bf30       ?SetCommandToolStockBasketMap@RowWindowSortableAccount@@UEAAXPEBV?$CMap@_KAEB_KEAEBE@@@Z 000000018001cf30 f   TakionGui:TakionGui.dll
 0001:0001bf36       ?StockAddedToCommandToolBasket@RowWindowSortableAccount@@UEAAXAEB_K@Z 000000018001cf36 f   TakionGui:TakionGui.dll
 0001:0001bf3c       ?StockRemovedFromCommandToolBasket@RowWindowSortableAccount@@UEAAXAEB_K@Z 000000018001cf3c f   TakionGui:TakionGui.dll
 0001:0001bf42       ?StocksClearedFromCommandToolBasket@RowWindowSortableAccount@@UEAAXXZ 000000018001cf42 f   TakionGui:TakionGui.dll
 0001:0001bf48       ?CanColorScrollBar@TakionTool@@UEBA_NXZ 000000018001cf48 f   TakionGui:TakionGui.dll
 0001:0001bf4e       ?hasSymbolFont@TakionTool@@UEBA_NXZ 000000018001cf4e f   TakionGui:TakionGui.dll
 0001:0001bf54       ?PropagateTempTierSize@TakionTool@@UEAAXI@Z 000000018001cf54 f   TakionGui:TakionGui.dll
 0001:0001bf5a       ?CanLinkToSpecificExternalWindow@TakionTool@@UEBA_NPEAUHWND__@@PEBVLinkExternal@@@Z 000000018001cf5a f   TakionGui:TakionGui.dll
 0001:0001bf60       ?isSaveableToLayout@TakionTool@@UEBA_NXZ 000000018001cf60 f   TakionGui:TakionGui.dll
 0001:0001bf66       ?OnSecurityDoubleClicked@TakionTool@@UEAAXAEBV?$basic_string@DU?$char_traits@D@std@@V?$allocator@D@2@@std@@@Z 000000018001cf66 f   TakionGui:TakionGui.dll
 0001:0001bf6c       ?isOptionView@TakionTool@@UEBA_NXZ 000000018001cf6c f   TakionGui:TakionGui.dll
 0001:0001bf72       ?GetOptionKey@RowWindowSortableAccount@@UEBA_KXZ 000000018001cf72 f   TakionGui:TakionGui.dll
 0001:0001bf78       ?OnOptionDoubleClicked@TakionTool@@UEAAXPEBVSecurity@@@Z 000000018001cf78 f   TakionGui:TakionGui.dll
 0001:0001bf7e       ?SetStockOptionByParams@TakionTool@@UEAAXAEB_KAEBVOptionKey@@E_N@Z 000000018001cf7e f   TakionGui:TakionGui.dll
 0001:0001bf84       ?SetStockOption@TakionTool@@UEAAXPEBVSecurity@@E_N@Z 000000018001cf84 f   TakionGui:TakionGui.dll
 0001:0001bf8a       ?GetContractSize@TakionTool@@UEBAIXZ 000000018001cf8a f   TakionGui:TakionGui.dll
 0001:0001bf90       ?GetUnderlierSecurity@TakionTool@@UEBAPEBVSecurity@@XZ 000000018001cf90 f   TakionGui:TakionGui.dll
 0001:0001bf96       ?LoggedToFutureExecutor@RowWindowSortableAccount@@UEAAXXZ 000000018001cf96 f   TakionGui:TakionGui.dll
 0001:0001bf9c       ?UpdateTitleLabelGraphics@TakionTool@@UEAAXPEBVGraphics@@@Z 000000018001cf9c f   TakionGui:TakionGui.dll
 0001:0001bfa2       ?UpdateTitleValueGraphics@TakionTool@@UEAAXPEBVGraphics@@@Z 000000018001cfa2 f   TakionGui:TakionGui.dll
 0001:0001bfa8       ?isCommandToolDefaultExternalLink@TakionTool@@UEBA_NXZ 000000018001cfa8 f   TakionGui:TakionGui.dll
 0001:0001bfae       ?GetExternalLinkMask@TakionTool@@UEBA_KXZ 000000018001cfae f   TakionGui:TakionGui.dll
 0001:0001bfb4       ?GetSecuritySymbolPtr@TakionTool@@UEBAPEBDXZ 000000018001cfb4 f   TakionGui:TakionGui.dll
 0001:0001bfba       ?GetLastSecuritySymbol@TakionTool@@UEBA_NAEAV?$basic_string@DU?$char_traits@D@std@@V?$allocator@D@2@@std@@@Z 000000018001cfba f   TakionGui:TakionGui.dll
 0001:0001bfc0       ?GetAdditionalTitleInfo@RowWindow@@UEBAXAEAV?$basic_string@DU?$char_traits@D@std@@V?$allocator@D@2@@std@@@Z 000000018001cfc0 f   TakionGui:TakionGui.dll
 0001:0001bfc6       ?AppendWindowMenuInfo@RowWindowSortableAccount@@UEBAXAEAV?$basic_string@DU?$char_traits@D@std@@V?$allocator@D@2@@std@@@Z 000000018001cfc6 f   TakionGui:TakionGui.dll
 0001:0001bfcc       ?PostAppendWindowMenuInfo@TakionTool@@UEBAXAEAV?$basic_string@DU?$char_traits@D@std@@V?$allocator@D@2@@std@@@Z 000000018001cfcc f   TakionGui:TakionGui.dll
 0001:0001bfd2       ?GetPosition@RowWindowSortableAccount@@UEBAPEBVPosition@@XZ 000000018001cfd2 f   TakionGui:TakionGui.dll
 0001:0001bfd8       ?SetOneEcnBookQuoteFilter@TakionTool@@UEAAXI_N@Z 000000018001cfd8 f   TakionGui:TakionGui.dll
 0001:0001bfde       ?ToggleOneEcnBookQuoteFilter@TakionTool@@UEAAXI@Z 000000018001cfde f   TakionGui:TakionGui.dll
 0001:0001bfe4       ?CloseOrderBoxIfDisplayed@TakionTool@@UEAAXXZ 000000018001cfe4 f   TakionGui:TakionGui.dll
 0001:0001bfea       ?ActivateOrderBoxIfDisplayed@TakionTool@@UEAAXXZ 000000018001cfea f   TakionGui:TakionGui.dll
 0001:0001bff0       ?GetCommandToolObjects@TakionTool@@UEBA_NAEA_NAEAV?$basic_string@DU?$char_traits@D@std@@V?$allocator@D@2@@std@@AEAPEBVSecurity@@AEAPEBVAccount@@AEAPEBVPosition@@@Z 000000018001cff0 f   TakionGui:TakionGui.dll
 0001:0001bff6       ?AreAllRowsSelected@RowWindowSortable@@UEBA_NXZ 000000018001cff6 f   TakionGui:TakionGui.dll
 0001:0001bffc       ?SelectAllRows@RowWindowSortable@@UEAAX_N@Z 000000018001cffc f   TakionGui:TakionGui.dll
 0001:0001c002       ?CharStartsEnteringSymbol@TakionTool@@UEBA_NEE@Z 000000018001d002 f   TakionGui:TakionGui.dll
 0001:0001c008       ?IncludeSecurity@TakionTool@@UEAAXPEBVSecurity@@@Z 000000018001d008 f   TakionGui:TakionGui.dll
 0001:0001c00e       ?ExcludeSecurity@TakionTool@@UEAAXPEBVSecurity@@@Z 000000018001d00e f   TakionGui:TakionGui.dll
 0001:0001c014       ?UnIncludeSecurity@TakionTool@@UEAAXPEBVSecurity@@@Z 000000018001d014 f   TakionGui:TakionGui.dll
 0001:0001c01a       ?UnExcludeSecurity@TakionTool@@UEAAXPEBVSecurity@@@Z 000000018001d01a f   TakionGui:TakionGui.dll
 0001:0001c020       ?AddSecurityToBasket@TakionTool@@UEAAXPEBVSecurity@@@Z 000000018001d020 f   TakionGui:TakionGui.dll
 0001:0001c026       ?RemoveSecurityFromBasket@TakionTool@@UEAAXPEBVSecurity@@@Z 000000018001d026 f   TakionGui:TakionGui.dll
 0001:0001c02c       ?ScrollLine@RowWindow@@UEAAX_NE@Z 000000018001d02c f   TakionGui:TakionGui.dll
 0001:0001c032       ?ScrollPage@RowWindow@@UEAAX_NE@Z 000000018001d032 f   TakionGui:TakionGui.dll
 0001:0001c038       ?ScrollToExtreme@RowWindow@@UEAAX_NE@Z 000000018001d038 f   TakionGui:TakionGui.dll
 0001:0001c03e       ?ScrollHorizontally@RowWindow@@UEAAX_NE@Z 000000018001d03e f   TakionGui:TakionGui.dll
 0001:0001c044       ?CopySelection@RowWindow@@UEBAXXZ 000000018001d044 f   TakionGui:TakionGui.dll
 0001:0001c04a       ?isFontMenu@TakionTool@@UEBA_NAEBVCPoint@@@Z 000000018001d04a f   TakionGui:TakionGui.dll
 0001:0001c050       ?isColorMenu@TakionTool@@UEBA_NAEBVCPoint@@@Z 000000018001d050 f   TakionGui:TakionGui.dll
 0001:0001c056       ?HasMaxFontSize@TakionTool@@UEBA_NAEBVCPoint@@@Z 000000018001d056 f   TakionGui:TakionGui.dll
 0001:0001c05c       ?UpdateSecurityTitleValueGraphicsColorsCustom@TakionTool@@UEAA_NPEBVGraphicsColorCollection@@@Z 000000018001d05c f   TakionGui:TakionGui.dll
 0001:0001c062       ?UpdateSecurityTitleValueGraphicsColors@TakionTool@@UEAA_NPEBVGraphics@@PEBVGraphicsColorCollection@@@Z 000000018001d062 f   TakionGui:TakionGui.dll
 0001:0001c068       ?UpdateSecurityTitleLabelGraphicsColorsCustom@TakionTool@@UEAA_NPEBVGraphicsColorCollection@@@Z 000000018001d068 f   TakionGui:TakionGui.dll
 0001:0001c06e       ?UpdateSecurityTitleLabelGraphicsColors@TakionTool@@UEAA_NPEBVGraphics@@PEBVGraphicsColorCollection@@@Z 000000018001d06e f   TakionGui:TakionGui.dll
 0001:0001c074       ?GetSecurityTitleTopOffset@TakionTool@@UEBAHXZ 000000018001d074 f   TakionGui:TakionGui.dll
 0001:0001c07a       ?GetSecurityTitleLeftOffset@TakionTool@@UEBAHXZ 000000018001d07a f   TakionGui:TakionGui.dll
 0001:0001c080       ?GetSecurityTitleRightOffset@TakionTool@@UEBAHXZ 000000018001d080 f   TakionGui:TakionGui.dll
 0001:0001c086       ?GetSecurityTitleBottomOffset@TakionTool@@UEBAHXZ 000000018001d086 f   TakionGui:TakionGui.dll
 0001:0001c08c       ?UpdateAlignTitleValues@TakionTool@@UEAAX_N@Z 000000018001d08c f   TakionGui:TakionGui.dll
 0001:0001c092       ?DragWindow@TakionTool@@UEAAXHH@Z 000000018001d092 f   TakionGui:TakionGui.dll
 0001:0001c098       ?CurrentAccountChanged@RowWindowSortableAccount@@UEAAXPEBVAccount@@@Z 000000018001d098 f   TakionGui:TakionGui.dll
 0001:0001c09e       ?AccountLoaded@RowWindowSortableAccount@@UEAAXPEBVAccount@@@Z 000000018001d09e f   TakionGui:TakionGui.dll
 0001:0001c0a4       ?AllAccountsLoaded@RowWindowSortableAccount@@UEAAXXZ 000000018001d0a4 f   TakionGui:TakionGui.dll
 0001:0001c0aa       ?LoggedToExecutor@RowWindowSortableAccount@@UEAAXXZ 000000018001d0aa f   TakionGui:TakionGui.dll
 0001:0001c0b0       ?AccountDeleted@RowWindowSortableAccount@@UEAAXPEBVAccount@@@Z 000000018001d0b0 f   TakionGui:TakionGui.dll
 0001:0001c0b6       ?NewAccount@RowWindowSortableAccount@@UEAAXPEBVAccount@@@Z 000000018001d0b6 f   TakionGui:TakionGui.dll
 0001:0001c0bc       ?RepaintDefaultOnlyTradingAllowed@TakionTool@@UEAAXXZ 000000018001d0bc f   TakionGui:TakionGui.dll
 0001:0001c0c2       ?ConnectionDisconnected@RowWindowSortableAccount@@UEAAXIGIGEPEBD@Z 000000018001d0c2 f   TakionGui:TakionGui.dll
 0001:0001c0c8       ?ConnectionConnected@RowWindowSortableAccount@@UEAAXIGIGEPEBD@Z 000000018001d0c8 f   TakionGui:TakionGui.dll
 0001:0001c0ce       ?ConnectionLogged@TakionTool@@UEAAXI@Z 000000018001d0ce f   TakionGui:TakionGui.dll
 0001:0001c0d4       ?PrependLinkMenuItems@TakionTool@@UEAAXAEAVCMenu@@@Z 000000018001d0d4 f   TakionGui:TakionGui.dll
 0001:0001c0da       ?UpdateShowTooltips@RowWindow@@UEAAXXZ 000000018001d0da f   TakionGui:TakionGui.dll
 0001:0001c0e0       ?isTabbable@TakionTool@@UEBA_NXZ 000000018001d0e0 f   TakionGui:TakionGui.dll
 0001:0001c0e6       ?DecrementCommandToolOrdinal@TakionTool@@UEAAXXZ 000000018001d0e6 f   TakionGui:TakionGui.dll
 0001:0001c0ec       ?AddToSpecificToolCollection@RowWindow@@UEAAXXZ 000000018001d0ec f   TakionGui:TakionGui.dll
 0001:0001c0f2       ?UpdateGraphics@RowWindowSortable@@UEAAXXZ 000000018001d0f2 f   TakionGui:TakionGui.dll
 0001:0001c0f8       ?UpdateTitleGraphics@RowWindowSortable@@UEAAXPEBVGraphics@@@Z 000000018001d0f8 f   TakionGui:TakionGui.dll
 0001:0001c0fe       ?UpdateTitleGraphicsColorsCustom@TakionTool@@UEAA_NPEBVGraphicsColorCollection@@@Z 000000018001d0fe f   TakionGui:TakionGui.dll
 0001:0001c104       ?UpdateTitleGraphicsColors@TakionTool@@UEAA_NPEBVGraphics@@PEBVGraphicsColorCollection@@@Z 000000018001d104 f   TakionGui:TakionGui.dll
 0001:0001c10a       ?UpdateBorderGraphics@TakionTool@@UEAAXPEBVGraphics@@@Z 000000018001d10a f   TakionGui:TakionGui.dll
 0001:0001c110       ?GetTitleGraphicsName@TakionTool@@UEBA?AV?$basic_string@DU?$char_traits@D@std@@V?$allocator@D@2@@std@@XZ 000000018001d110 f   TakionGui:TakionGui.dll
 0001:0001c116       ?ExecuteDebuggingCommand@RowWindowSortable@@UEAAXXZ 000000018001d116 f   TakionGui:TakionGui.dll
 0001:0001c11c       ?EstablishAllExternalLinks@TakionTool@@UEAAX_N@Z 000000018001d11c f   TakionGui:TakionGui.dll
 0001:0001c122       ?ExternalLinkEstablished@TakionTool@@UEAA_NPEAVLinkExternal@@@Z 000000018001d122 f   TakionGui:TakionGui.dll
 0001:0001c128       ?SetEquityNumericSymbol@RowWindowSortableAccount@@UEAAXAEB_KE_N1@Z 000000018001d128 f   TakionGui:TakionGui.dll
 0001:0001c12e       ?SetEquitySymbol@RowWindowSortableAccount@@UEAAXPEBDE_N1@Z 000000018001d12e f   TakionGui:TakionGui.dll
 0001:0001c134       ?CanDragClient@RowWindowSortable@@UEBA_NIVCPoint@@@Z 000000018001d134 f   TakionGui:TakionGui.dll
 0001:0001c13a       ?CanLink@TakionTool@@UEBA_NXZ 000000018001d13a f   TakionGui:TakionGui.dll
 0001:0001c140       ?AddLinkedWnd@TakionTool@@UEAAXPEAV1@@Z 000000018001d140 f   TakionGui:TakionGui.dll
 0001:0001c146       ?RemoveLinkedWnd@TakionTool@@UEAAXPEAV1@@Z 000000018001d146 f   TakionGui:TakionGui.dll
 0001:0001c14c       ?CanLinkToOtherTakion@TakionTool@@UEBA_NXZ 000000018001d14c f   TakionGui:TakionGui.dll
 0001:0001c152       ?OnUnlink@RowWindowSortableAccount@@UEAAXXZ 000000018001d152 f   TakionGui:TakionGui.dll
 0001:0001c158       ?CommandRemoved@TakionTool@@UEAAXPEAVCommand@@@Z 000000018001d158 f   TakionGui:TakionGui.dll
 0001:0001c15e       ?HasLastSymbolCommands@TakionTool@@UEBA_NXZ 000000018001d15e f   TakionGui:TakionGui.dll
 0001:0001c164       ?isIncludeStockActive@TakionTool@@UEBA_NXZ 000000018001d164 f   TakionGui:TakionGui.dll
 0001:0001c16a       ?SetIncludeStockActive@TakionTool@@UEAAX_N@Z 000000018001d16a f   TakionGui:TakionGui.dll
 0001:0001c170       ?isExcludeStockActive@TakionTool@@UEBA_NXZ 000000018001d170 f   TakionGui:TakionGui.dll
 0001:0001c176       ?SetExcludeStockActive@TakionTool@@UEAAX_N@Z 000000018001d176 f   TakionGui:TakionGui.dll
 0001:0001c17c       ?GetTitleMaxBottom@TakionTool@@UEAAHXZ 000000018001d17c f   TakionGui:TakionGui.dll
 0001:0001c182       ?GetEsignalLinkGroup@TakionTool@@UEBAEXZ 000000018001d182 f   TakionGui:TakionGui.dll
 0001:0001c188       ?GetBloombergLinkGroup@TakionTool@@UEBAEXZ 000000018001d188 f   TakionGui:TakionGui.dll
 0001:0001c18e       ?SetQuotePage@TakionTool@@UEAA_NI_N@Z 000000018001d18e f   TakionGui:TakionGui.dll
 0001:0001c194       ?IncrementQuotePage@TakionTool@@UEAA_N_NI@Z 000000018001d194 f   TakionGui:TakionGui.dll
 0001:0001c19a       ?PasteStocksFromClipboard@RowWindow@@UEAA_N_N@Z 000000018001d19a f   TakionGui:TakionGui.dll
 0001:0001c1a0       ?CopySelectedStocksToClipboard@RowWindowSortable@@UEBAXXZ 000000018001d1a0 f   TakionGui:TakionGui.dll
 0001:0001c1a6       ?CopyAllStocksToClipboard@RowWindowSortable@@UEBAXXZ 000000018001d1a6 f   TakionGui:TakionGui.dll
 0001:0001c1ac       ?CreateNewBasketTradingWindow@TakionTool@@UEBAXXZ 000000018001d1ac f   TakionGui:TakionGui.dll
 0001:0001c1b2       ?CopyRowsToClipboard@RowWindow@@UEBAX_N@Z 000000018001d1b2 f   TakionGui:TakionGui.dll
 0001:0001c1b8       ?SelectPositionRows@TakionTool@@UEAAXI@Z 000000018001d1b8 f   TakionGui:TakionGui.dll
 0001:0001c1be       ?CanClearSymbols@TakionTool@@UEBA_NXZ 000000018001d1be f   TakionGui:TakionGui.dll
 0001:0001c1c4       ?ClearSymbols@TakionTool@@UEAAXXZ 000000018001d1c4 f   TakionGui:TakionGui.dll
 0001:0001c1ca       ?CanShowTime@TakionTitleTool@@UEBA_NXZ 000000018001d1ca f   TakionGui:TakionGui.dll
 0001:0001c1d0       ?isShowTime@TakionTitleTool@@UEBA_NXZ 000000018001d1d0 f   TakionGui:TakionGui.dll
 0001:0001c1d6       ?ToggleShowTime@TakionTitleTool@@UEAAXXZ 000000018001d1d6 f   TakionGui:TakionGui.dll
 0001:0001c1dc       ?CanShowPrefixOnly@TakionTitleTool@@UEBA_NXZ 000000018001d1dc f   TakionGui:TakionGui.dll
 0001:0001c1e2       ?isShowPrefixOnly@TakionTitleTool@@UEBA_NXZ 000000018001d1e2 f   TakionGui:TakionGui.dll
 0001:0001c1e8       ?TogglePrefixOnly@TakionTitleTool@@UEAAXXZ 000000018001d1e8 f   TakionGui:TakionGui.dll
 0001:0001c1ee       ?CanShowRowCount@RowWindow@@UEBA_NXZ 000000018001d1ee f   TakionGui:TakionGui.dll
 0001:0001c1f4       ?isShowRowCount@TakionTitleTool@@UEBA_NXZ 000000018001d1f4 f   TakionGui:TakionGui.dll
 0001:0001c1fa       ?ToggleRowCount@TakionTitleTool@@UEAAXXZ 000000018001d1fa f   TakionGui:TakionGui.dll
 0001:0001c200       ?CanShowTotalCount@RowWindowSortable@@UEBA_NXZ 000000018001d200 f   TakionGui:TakionGui.dll
 0001:0001c206       ?isShowTotalCount@TakionTitleTool@@UEBA_NXZ 000000018001d206 f   TakionGui:TakionGui.dll
 0001:0001c20c       ?ToggleTotalCount@TakionTitleTool@@UEAAXXZ 000000018001d20c f   TakionGui:TakionGui.dll
 0001:0001c212       ?UnuseUnselectedColumns@RowWindow@@UEAAXXZ 000000018001d212 f   TakionGui:TakionGui.dll
 0001:0001c218       ?UnuseUnselectedSecondaryColumns@RowWindow@@UEAAXXZ 000000018001d218 f   TakionGui:TakionGui.dll
 0001:0001c21e       ?OnKeyMenu@TakionTool@@UEAAXXZ 000000018001d21e f   TakionGui:TakionGui.dll
 0001:0001c224       ?AltKeyDown@TakionTool@@UEAAX_N@Z 000000018001d224 f   TakionGui:TakionGui.dll
 0001:0001c22a       ?ClearConfig@RowWindowSortable@@MEAAXXZ 000000018001d22a f   TakionGui:TakionGui.dll
 0001:0001c230       ?isAffectedByOddLotPrints@TakionTool@@UEBA_NXZ 000000018001d230 f   TakionGui:TakionGui.dll
 0001:0001c236       ?isUseOddLotPrints@TakionTool@@UEBA_NXZ 000000018001d236 f   TakionGui:TakionGui.dll
 0001:0001c23c       ?hasInventoryView@TakionTool@@UEBA_NXZ 000000018001d23c f   TakionGui:TakionGui.dll
 0001:0001c242       ?SecurityNoteAdded@TakionTool@@UEAAXAEB_KAEBV?$basic_string@DU?$char_traits@D@std@@V?$allocator@D@2@@std@@@Z 000000018001d242 f   TakionGui:TakionGui.dll
 0001:0001c248       ?SecurityNoteRemoved@TakionTool@@UEAAXAEB_K@Z 000000018001d248 f   TakionGui:TakionGui.dll
 0001:0001c24e       ?SecurityNotesCleared@TakionTool@@UEAAXXZ 000000018001d24e f   TakionGui:TakionGui.dll
 0001:0001c254       ?SecurityNotesClearDone@TakionTool@@UEAAXXZ 000000018001d254 f   TakionGui:TakionGui.dll
 0001:0001c25a       ?SecurityNotesReplaced@TakionTool@@UEAAXAEBV?$map@_KV?$basic_string@DU?$char_traits@D@std@@V?$allocator@D@2@@std@@U?$lessUIntAsStr@_K@@V?$allocator@U?$pair@$$CB_KV?$basic_string@DU?$char_traits@D@std@@V?$allocator@D@2@@std@@@std@@@2@@std@@_N@Z 000000018001d25a f   TakionGui:TakionGui.dll
 0001:0001c260       ?SecurityNotesReplacementDone@TakionTool@@UEAAXXZ 000000018001d260 f   TakionGui:TakionGui.dll
 0001:0001c266       ?ExternalManualLinkRemoved@TakionTool@@UEAAXPEAVLinkExternal@@@Z 000000018001d266 f   TakionGui:TakionGui.dll
 0001:0001c26c       ?UpdateColorsCustom@RowWindowSortable@@UEAAXPEBVGraphicsColorCollection@@@Z 000000018001d26c f   TakionGui:TakionGui.dll
 0001:0001c272       ?GetGraphicsAt@RowWindowSortable@@UEBAPEBVGraphics@@I@Z 000000018001d272 f   TakionGui:TakionGui.dll
 0001:0001c278       ?isClipChildren@TakionTool@@UEBA_NXZ 000000018001d278 f   TakionGui:TakionGui.dll
 0001:0001c27e       ?HasNamedFiltering@RowWindow@@UEBA_NXZ 000000018001d27e f   TakionGui:TakionGui.dll
 0001:0001c284       ?GetNativeFilterType@RowWindow@@UEBAEXZ 000000018001d284 f   TakionGui:TakionGui.dll
 0001:0001c28a       ?NamedFilterAdded@RowWindow@@MEAAXPEAVSymbolFilter@@AEBV?$basic_string@DU?$char_traits@D@std@@V?$allocator@D@2@@std@@@Z 000000018001d28a f   TakionGui:TakionGui.dll
 0001:0001c290       ?NamedFilterChanged@RowWindow@@MEAAXPEAVSymbolFilter@@@Z 000000018001d290 f   TakionGui:TakionGui.dll
 0001:0001c296       ?NamedFilterRenamed@RowWindow@@MEAAXPEAVSymbolFilter@@AEBV?$basic_string@DU?$char_traits@D@std@@V?$allocator@D@2@@std@@@Z 000000018001d296 f   TakionGui:TakionGui.dll
 0001:0001c29c       ?NamedFilterDeleted@RowWindow@@MEAAXPEAVSymbolFilter@@@Z 000000018001d29c f   TakionGui:TakionGui.dll
 0001:0001c2a2       ?AllNamedFiltersDeleted@RowWindow@@MEAAXXZ 000000018001d2a2 f   TakionGui:TakionGui.dll
 0001:0001c2a8       ?RefreshNamedFilters@RowWindow@@MEAAXXZ 000000018001d2a8 f   TakionGui:TakionGui.dll
 0001:0001c2ae       ?GetBidCount@TakionTool@@UEBAIXZ 000000018001d2ae f   TakionGui:TakionGui.dll
 0001:0001c2b4       ?GetAskCount@TakionTool@@UEBAIXZ 000000018001d2b4 f   TakionGui:TakionGui.dll
 0001:0001c2ba       ?GetTemporaryTierColor@TakionTool@@UEBAKXZ 000000018001d2ba f   TakionGui:TakionGui.dll
 0001:0001c2c0       ?GetTemporaryTierSize@TakionTool@@UEBAIXZ 000000018001d2c0 f   TakionGui:TakionGui.dll
 0001:0001c2c6       ?GetVerticalBestBid@TakionTool@@UEBAAEBVPrice@@XZ 000000018001d2c6 f   TakionGui:TakionGui.dll
 0001:0001c2cc       ?GetVerticalBestAsk@TakionTool@@UEBAAEBVPrice@@XZ 000000018001d2cc f   TakionGui:TakionGui.dll
 0001:0001c2d2       ?GetVerticalBestQuote@TakionTool@@UEBAAEBVPrice@@AEB_N@Z 000000018001d2d2 f   TakionGui:TakionGui.dll
 0001:0001c2d8       ?isShowButtonGroup@TakionTool@@UEBA_NE@Z 000000018001d2d8 f   TakionGui:TakionGui.dll
 0001:0001c2de       ?GetHotButtonGroupVector@TakionTool@@UEBAPEBV?$VectorSetting@VHotButtonGroupSetting@@$09@@XZ 000000018001d2de f   TakionGui:TakionGui.dll
 0001:0001c2e4       ?GetHotButtonGroupCount@TakionTool@@UEBAEXZ 000000018001d2e4 f   TakionGui:TakionGui.dll
 0001:0001c2ea       ?isHotButtonGroupVertical@TakionTool@@UEBA_NE@Z 000000018001d2ea f   TakionGui:TakionGui.dll
 0001:0001c2f0       ?GetHotButtonGroupBuddyId@TakionTool@@UEBAEE@Z 000000018001d2f0 f   TakionGui:TakionGui.dll
 0001:0001c2f6       ?RefreshClientRects@TakionTool@@UEAAXXZ 000000018001d2f6 f   TakionGui:TakionGui.dll
 0001:0001c2fc       ?GetFontDescriptionHotButton@TakionTool@@UEBAPEBVFontDescription@@XZ 000000018001d2fc f   TakionGui:TakionGui.dll
 0001:0001c302       ?SetFontDescriptionHotButton@TakionTool@@UEAA_NAEBVFontDescription@@@Z 000000018001d302 f   TakionGui:TakionGui.dll
 0001:0001c308       ?GetFontDescriptionHotButtonCustom@TakionTool@@UEBAPEBVFontDescription@@XZ 000000018001d308 f   TakionGui:TakionGui.dll
 0001:0001c30e       ?SetFontDescriptionHotButtonCustom@TakionTool@@UEAA_NAEBVFontDescription@@@Z 000000018001d30e f   TakionGui:TakionGui.dll
 0001:0001c314       ?isFontHotButtonCustom@TakionTool@@UEBA_NXZ 000000018001d314 f   TakionGui:TakionGui.dll
 0001:0001c31a       ?GetOrderBoxBase@TakionTool@@UEBAPEAVDialogOrderBase@@XZ 000000018001d31a f   TakionGui:TakionGui.dll
 0001:0001c320       ?UpdateButtonToolTips@TakionTool@@UEAAXXZ 000000018001d320 f   TakionGui:TakionGui.dll
 0001:0001c326       ?GetTierSizeDivider@TakionTool@@UEBAIXZ 000000018001d326 f   TakionGui:TakionGui.dll
 0001:0001c32c       ?AssignSymbol@TakionTool@@UEAAXPEBD@Z 000000018001d32c f   TakionGui:TakionGui.dll
 0001:0001c332       ?ActiveToolAppActivated@RowWindow@@UEAAX_N@Z 000000018001d332 f   TakionGui:TakionGui.dll
 0001:0001c338       ?ActiveToolMainWndActivated@TakionTool@@MEAAX_N@Z 000000018001d338 f   TakionGui:TakionGui.dll
 0001:0001c33e       ?SetFutureMarketDataConnected@TakionTool@@MEAAX_N@Z 000000018001d33e f   TakionGui:TakionGui.dll
 0001:0001c344       ?SetFutureMarketDataLogged@TakionTool@@MEAAX_N@Z 000000018001d344 f   TakionGui:TakionGui.dll
 0001:0001c34a       ?NextFutureSessionStarted@TakionTool@@MEAAXXZ 000000018001d34a f   TakionGui:TakionGui.dll
 0001:0001c350       ?OnLinkChanged@TakionTool@@MEAAXXZ 000000018001d350 f   TakionGui:TakionGui.dll
 0001:0001c356       ?UseOddLotPrintsChanged@TakionTool@@MEAAXXZ 000000018001d356 f   TakionGui:TakionGui.dll
 0001:0001c35c       ?SystemTimeChanged@TakionTool@@MEAAXIIII@Z 000000018001d35c f   TakionGui:TakionGui.dll
 0001:0001c362       ?WriteInitialLayoutInfoToString@TakionTool@@MEBAXAEAV?$basic_string@DU?$char_traits@D@std@@V?$allocator@D@2@@std@@I@Z 000000018001d362 f   TakionGui:TakionGui.dll
 0001:0001c368       ?ReadInitialLayoutInfoFromString@TakionTool@@MEAAXAEAPEBD_K_NI@Z 000000018001d368 f   TakionGui:TakionGui.dll
 0001:0001c36e       ?LinkToSpecificExternalWindowSet@TakionTool@@MEAAXPEAVLinkExternal@@@Z 000000018001d36e f   TakionGui:TakionGui.dll
 0001:0001c374       ?AddManualExternalLink@TakionTool@@MEAAXPEAVLinkExternal@@@Z 000000018001d374 f   TakionGui:TakionGui.dll
 0001:0001c37a       ?Unlink@TakionTool@@MEAAXXZ 000000018001d37a f   TakionGui:TakionGui.dll
 0001:0001c380       ?ScrollOnTitleResize@RowWindow@@MEAAXH@Z 000000018001d380 f   TakionGui:TakionGui.dll
 0001:0001c386       ?ScrollOnTopResize@TakionTool@@MEAAXH@Z 000000018001d386 f   TakionGui:TakionGui.dll
 0001:0001c38c       ?AddInventoryMenuItems@RowWindowSortable@@MEAAXAEAVCMenu@@@Z 000000018001d38c f   TakionGui:TakionGui.dll
 0001:0001c392       ?AddRowPropertiesMenuItems@RowWindowSortable@@MEAAXAEAVCMenu@@@Z 000000018001d392 f   TakionGui:TakionGui.dll
 0001:0001c398       ?PostAddRowPropertiesMenuItems@RowWindowSortable@@MEAAXAEAVCMenu@@@Z 000000018001d398 f   TakionGui:TakionGui.dll
 0001:0001c39e       ?ToolShown@TakionTool@@MEAAXXZ 000000018001d39e f   TakionGui:TakionGui.dll
 0001:0001c3a4       ?DoPaintTitle@RowWindowSortable@@MEAAXAEBUtagRECT@@AEAVCDC@@@Z 000000018001d3a4 f   TakionGui:TakionGui.dll
 0001:0001c3aa       ?DoPaintClient@RowWindowSortable@@MEAAXAEBUtagRECT@@AEAVCDC@@@Z 000000018001d3aa f   TakionGui:TakionGui.dll
 0001:0001c3b0       ?OnSetActiveTool@RowWindow@@MEAAXXZ 000000018001d3b0 f   TakionGui:TakionGui.dll
 0001:0001c3b6       ?OnSetActiveCommandTool@TakionTool@@MEAAXXZ 000000018001d3b6 f   TakionGui:TakionGui.dll
 0001:0001c3bc       ?OnSetDefaultCommandTool@TakionTool@@MEAAXXZ 000000018001d3bc f   TakionGui:TakionGui.dll
 0001:0001c3c2       ?SizeHorizontal@RowWindowSortable@@MEAAXHHHH@Z 000000018001d3c2 f   TakionGui:TakionGui.dll
 0001:0001c3c8       ?SizeVertical@RowWindowSortable@@MEAAXHHHH@Z 000000018001d3c8 f   TakionGui:TakionGui.dll
 0001:0001c3ce       ?ActiveStockChosen@TakionTool@@MEAAXPEBD@Z 000000018001d3ce f   TakionGui:TakionGui.dll
 0001:0001c3d4       ?OnTopResized@RowWindow@@MEAAXXZ 000000018001d3d4 f   TakionGui:TakionGui.dll
 0001:0001c3da       ?OnTopResizing@RowWindow@@MEAAXH@Z 000000018001d3da f   TakionGui:TakionGui.dll
 0001:0001c3e0       ?OnLevel1Updated@TakionTool@@MEAAXXZ 000000018001d3e0 f   TakionGui:TakionGui.dll
 0001:0001c3e6       ?OnLevel2Updated@TakionTool@@MEAAXXZ 000000018001d3e6 f   TakionGui:TakionGui.dll
 0001:0001c3ec       ?ClientBeginsDragging@TakionTool@@MEAAXXZ 000000018001d3ec f   TakionGui:TakionGui.dll
 0001:0001c3f2       ?UpdateInventoryView@RowWindowSortable@@MEAAXXZ 000000018001d3f2 f   TakionGui:TakionGui.dll
 0001:0001c3f8       ?SetPrefix@TakionTitleTool@@UEAAXPEBD@Z 000000018001d3f8 f   TakionGui:TakionGui.dll
 0001:0001c3fe       ?CanHavePrefix@RowWindow@@UEBA_NXZ 000000018001d3fe f   TakionGui:TakionGui.dll
 0001:0001c404       ?GetHourRectLeft@RowWindow@@UEBAHXZ 000000018001d404 f   TakionGui:TakionGui.dll
 0001:0001c40a       ?DoUpdateTitle@RowWindowSortableAccount@@MEAAXXZ 000000018001d40a f   TakionGui:TakionGui.dll
 0001:0001c410       ?PrefixChanging@TakionTitleTool@@MEBAXPEBD@Z 000000018001d410 f   TakionGui:TakionGui.dll
 0001:0001c416       ?OnTimeRectUpdated@RowWindow@@MEAAXXZ 000000018001d416 f   TakionGui:TakionGui.dll
 0001:0001c41c       ?hasSecurityColumns@RowWindow@@UEBA_NXZ 000000018001d41c f   TakionGui:TakionGui.dll
 0001:0001c422       ?hasUnderlierColumns@RowWindow@@UEBA_NXZ 000000018001d422 f   TakionGui:TakionGui.dll
 0001:0001c428       ?RowToString@RowWindow@@UEBAXAEAV?$basic_string@DU?$char_traits@D@std@@V?$allocator@D@2@@std@@PEBVRow@@@Z 000000018001d428 f   TakionGui:TakionGui.dll
 0001:0001c42e       ?CellToString@RowWindow@@UEBA_NAEAV?$basic_string@DU?$char_traits@D@std@@V?$allocator@D@2@@std@@PEBVRow@@G@Z 000000018001d42e f   TakionGui:TakionGui.dll
 0001:0001c434       ?UpdateDataGraphics@RowWindowSortable@@UEAAXPEBVGraphics@@@Z 000000018001d434 f   TakionGui:TakionGui.dll
 0001:0001c43a       ?isUseBasketColors@RowWindow@@UEBA_NXZ 000000018001d43a f   TakionGui:TakionGui.dll
 0001:0001c440       ?GetColumnIdOffsetForSavedVersion@RowWindow@@UEBAGG@Z 000000018001d440 f   TakionGui:TakionGui.dll
 0001:0001c446       ?GetAdjustedAdditionalColumnId@RowWindow@@UEBAGGGAEB_K@Z 000000018001d446 f   TakionGui:TakionGui.dll
 0001:0001c44c       ?ShouldRepaintTitleOnScroll@RowWindow@@UEBA_NH@Z 000000018001d44c f   TakionGui:TakionGui.dll
 0001:0001c452       ?isVerticallyScrolled@RowWindow@@UEBA_NXZ 000000018001d452 f   TakionGui:TakionGui.dll
 0001:0001c458       ?UpdateDataGraphicsColorsCustom@RowWindowSortable@@UEAA_NPEBVGraphicsColorCollection@@@Z 000000018001d458 f   TakionGui:TakionGui.dll
 0001:0001c45e       ?UpdateDataGraphicsColors@RowWindowSortable@@UEAA_NPEBVGraphics@@PEBVGraphicsColorCollection@@@Z 000000018001d45e f   TakionGui:TakionGui.dll
 0001:0001c464       ?FindComment@RowWindow@@UEBAPEBV?$basic_string@DU?$char_traits@D@std@@V?$allocator@D@2@@std@@AEB_K@Z 000000018001d464 f   TakionGui:TakionGui.dll
 0001:0001c46a       ?ClearAll@RowWindow@@UEAAXXZ 000000018001d46a f   TakionGui:TakionGui.dll
 0001:0001c470       ?StockToString@RowWindow@@UEBA_NAEAV?$basic_string@DU?$char_traits@D@std@@V?$allocator@D@2@@std@@PEBVRow@@@Z 000000018001d470 f   TakionGui:TakionGui.dll
 0001:0001c476       ?GetSymbolColumn@RowWindow@@UEBAGXZ 000000018001d476 f   TakionGui:TakionGui.dll
 0001:0001c47c       ?GetAdditionalColumnCount@RowWindow@@UEBAGXZ 000000018001d47c f   TakionGui:TakionGui.dll
 0001:0001c482       ?GetNoOptionBuiltInColumnCount@RowWindow@@UEBAGXZ 000000018001d482 f   TakionGui:TakionGui.dll
 0001:0001c488       ?ApplyStringValueScrollable@RowWindow@@UEAAXIPEBDG0@Z 000000018001d488 f   TakionGui:TakionGui.dll
 0001:0001c48e       ?InvalidateTotalRowRect@RowWindowSortable@@UEBAXXZ 000000018001d48e f   TakionGui:TakionGui.dll
 0001:0001c494       ?InvalidateTotalRowSubRect@RowWindowSortable@@UEBAXHH@Z 000000018001d494 f   TakionGui:TakionGui.dll
 0001:0001c49a       ?GetTotalRowRectPtr@RowWindowSortable@@UEBAPEBVCRect@@XZ 000000018001d49a f   TakionGui:TakionGui.dll
 0001:0001c4a0       ?SortData@RowWindowSortable@@UEAAX_N@Z 000000018001d4a0 f   TakionGui:TakionGui.dll
 0001:0001c4a6       ?GetRowAt@RowWindowSortable@@UEBAPEAVRow@@_K@Z 000000018001d4a6 f   TakionGui:TakionGui.dll
 0001:0001c4ac       ?FindRow@RowWindowSortable@@UEBA_KPEBVRow@@@Z 000000018001d4ac f   TakionGui:TakionGui.dll
 0001:0001c4b2       ?GetRowCount@RowWindowSortable@@UEBA_KXZ 000000018001d4b2 f   TakionGui:TakionGui.dll
 0001:0001c4b8       ?GetDisplayedRowCount@RowWindow@@UEBA_KXZ 000000018001d4b8 f   TakionGui:TakionGui.dll
 0001:0001c4be       ?GetPotentialRowCount@RowWindowSortable@@UEBA_KXZ 000000018001d4be f   TakionGui:TakionGui.dll
 0001:0001c4c4       ?GetSelectedOrAllRowCount@RowWindowSortable@@UEBA_KXZ 000000018001d4c4 f   TakionGui:TakionGui.dll
 0001:0001c4ca       ?GetSelectedRowCount@RowWindowSortable@@UEBA_KXZ 000000018001d4ca f   TakionGui:TakionGui.dll
 0001:0001c4d0       ?GetSingleSelectedRow@RowWindowSortable@@UEBAPEAVRow@@XZ 000000018001d4d0 f   TakionGui:TakionGui.dll
 0001:0001c4d6       ?GetRowFirstVisibleOrd@RowWindow@@UEBA_KXZ 000000018001d4d6 f   TakionGui:TakionGui.dll
 0001:0001c4dc       ?GetRowLastVisibleOrd@RowWindowSortable@@UEBA_KXZ 000000018001d4dc f   TakionGui:TakionGui.dll
 0001:0001c4e2       ?isMultiSelect@RowWindowSortable@@UEBA_NXZ 000000018001d4e2 f   TakionGui:TakionGui.dll
 0001:0001c4e8       ?isShowSizeInShares@RowWindow@@UEBAPEB_NXZ 000000018001d4e8 f   TakionGui:TakionGui.dll
 0001:0001c4ee       ?GetInvalidColor@RowWindow@@UEBAAEBKXZ 000000018001d4ee f   TakionGui:TakionGui.dll
 0001:0001c4f4       ?GetColorVeryGood@RowWindow@@UEBAKXZ 000000018001d4f4 f   TakionGui:TakionGui.dll
 0001:0001c4fa       ?GetColorVeryBad@RowWindow@@UEBAKXZ 000000018001d4fa f   TakionGui:TakionGui.dll
 0001:0001c500       ?GetColorVeryGoodBk@RowWindow@@UEBAKXZ 000000018001d500 f   TakionGui:TakionGui.dll
 0001:0001c506       ?GetColorVeryBadBk@RowWindow@@UEBAKXZ 000000018001d506 f   TakionGui:TakionGui.dll
 0001:0001c50c       ?GetThermographRedColors@RowWindow@@UEBAPEBKXZ 000000018001d50c f   TakionGui:TakionGui.dll
 0001:0001c512       ?GetThermographGreenColors@RowWindow@@UEBAPEBKXZ 000000018001d512 f   TakionGui:TakionGui.dll
 0001:0001c518       ?PaintTick@RowWindowSortable@@UEBAXAEAVCDC@@PEBVColumn@@PEBVRowValue@@AEBVCRect@@@Z 000000018001d518 f   TakionGui:TakionGui.dll
 0001:0001c51e       ?HasDoubleClickAction@RowWindow@@UEBA_NXZ 000000018001d51e f   TakionGui:TakionGui.dll
 0001:0001c524       ?RowHasSecuritySymbol@RowWindow@@UEBA_NXZ 000000018001d524 f   TakionGui:TakionGui.dll
 0001:0001c52a       ?HasTopActiveMenu@RowWindow@@UEBA_NXZ 000000018001d52a f   TakionGui:TakionGui.dll
 0001:0001c530       ?HasPriceColumns@RowWindow@@UEBA_NXZ 000000018001d530 f   TakionGui:TakionGui.dll
 0001:0001c536       ?HasSizeColumns@RowWindow@@UEBA_NXZ 000000018001d536 f   TakionGui:TakionGui.dll
 0001:0001c53c       ?HasMoneyColumns@RowWindow@@UEBA_NXZ 000000018001d53c f   TakionGui:TakionGui.dll
 0001:0001c542       ?HasVolumeColumns@RowWindow@@UEBA_NXZ 000000018001d542 f   TakionGui:TakionGui.dll
 0001:0001c548       ?HasMillisecondColumns@RowWindow@@UEBA_NXZ 000000018001d548 f   TakionGui:TakionGui.dll
 0001:0001c54e       ?InvalidateDataAndExpandRect@RowWindowSortable@@UEAAXXZ 000000018001d54e f   TakionGui:TakionGui.dll
 0001:0001c554       ?CreateRowIterator@RowWindowSortable@@UEBAPEAVTakionIterator@@XZ 000000018001d554 f   TakionGui:TakionGui.dll
 0001:0001c55a       ?GetNextRow@RowWindowSortable@@UEBAPEAVRow@@PEAVTakionIterator@@@Z 000000018001d55a f   TakionGui:TakionGui.dll
 0001:0001c560       ?CreateSelectedRowIterator@RowWindowSortable@@UEBAPEAVTakionIterator@@XZ 000000018001d560 f   TakionGui:TakionGui.dll
 0001:0001c566       ?GetNextSelectedRow@RowWindowSortable@@UEBAPEAVRow@@PEAVTakionIterator@@@Z 000000018001d566 f   TakionGui:TakionGui.dll
 0001:0001c56c       ?CreateDefaultRowIterator@RowWindowSortable@@UEBAPEAVTakionIterator@@XZ 000000018001d56c f   TakionGui:TakionGui.dll
 0001:0001c572       ?GetDefaultNextRow@RowWindowSortable@@UEBAPEAVRow@@PEAVTakionIterator@@@Z 000000018001d572 f   TakionGui:TakionGui.dll
 0001:0001c578       ?CanScrollVertically@RowWindow@@UEBA_NXZ 000000018001d578 f   TakionGui:TakionGui.dll
 0001:0001c57e       ?CanPlayNewLineSound@RowWindowSortableAccount@@UEBA_NXZ 000000018001d57e f   TakionGui:TakionGui.dll
 0001:0001c584       ?DoUpdateColumnUse@RowWindowSortable@@UEAA_NAEBV?$set@GU?$less@G@std@@V?$allocator@G@2@@std@@0_N@Z 000000018001d584 f   TakionGui:TakionGui.dll
 0001:0001c58a       ?hasSecondarySecurityColumns@RowWindow@@UEBA_NXZ 000000018001d58a f   TakionGui:TakionGui.dll
 0001:0001c590       ?hasSecondaryUnderlierColumns@RowWindow@@UEBA_NXZ 000000018001d590 f   TakionGui:TakionGui.dll
 0001:0001c596       ?InvalidatePrimaryOrSecondaryRows@RowWindowSortable@@UEBAX_K_NG@Z 000000018001d596 f   TakionGui:TakionGui.dll
 0001:0001c59c       ?isSecondaryColumnEntitlable@RowWindow@@UEBA_NG@Z 000000018001d59c f   TakionGui:TakionGui.dll
 0001:0001c5a2       ?DestroySecondaryRows@RowWindowSortable@@UEAAXXZ 000000018001d5a2 f   TakionGui:TakionGui.dll
 0001:0001c5a8       ?RemoveNotBelongingSecondaryRows@RowWindowSortable@@UEAA_N_N@Z 000000018001d5a8 f   TakionGui:TakionGui.dll
 0001:0001c5ae       ?PopulateSecondaryRows@RowWindowSortable@@UEAAX_N@Z 000000018001d5ae f   TakionGui:TakionGui.dll
 0001:0001c5b4       ?ExpandRow@RowWindow@@UEAA_NPEAVRow@@@Z 000000018001d5b4 f   TakionGui:TakionGui.dll
 0001:0001c5ba       ?CollapseRow@RowWindowSortable@@UEAA_NPEAVRow@@@Z 000000018001d5ba f   TakionGui:TakionGui.dll
 0001:0001c5c0       ?GetSecondaryToolId@RowWindow@@UEBAPEBDXZ 000000018001d5c0 f   TakionGui:TakionGui.dll
 0001:0001c5c6       ?UpdateSecondaryDataGraphics@RowWindow@@UEAAXPEBVGraphics@@@Z 000000018001d5c6 f   TakionGui:TakionGui.dll
 0001:0001c5cc       ?GetSecondaryAdditionalColumnCount@RowWindow@@UEBAGXZ 000000018001d5cc f   TakionGui:TakionGui.dll
 0001:0001c5d2       ?GetSecondaryBuiltInColumnCount@RowWindow@@UEBAGXZ 000000018001d5d2 f   TakionGui:TakionGui.dll
 0001:0001c5d8       ?GetSecondaryNoOptionBuiltInColumnCount@RowWindow@@UEBAGXZ 000000018001d5d8 f   TakionGui:TakionGui.dll
 0001:0001c5de       ?GetSecondaryColumnIdOffsetForSavedVersion@RowWindow@@UEBAGG@Z 000000018001d5de f   TakionGui:TakionGui.dll
 0001:0001c5e4       ?GetSecondaryColumnHighlightColor@RowWindow@@UEBAKG@Z 000000018001d5e4 f   TakionGui:TakionGui.dll
 0001:0001c5ea       ?GetFilterCopy@RowWindow@@UEBAPEAVSymbolFilter@@XZ 000000018001d5ea f   TakionGui:TakionGui.dll
 0001:0001c5f0       ?HasMouseHighlightableCells@RowWindow@@UEBA_NXZ 000000018001d5f0 f   TakionGui:TakionGui.dll
 0001:0001c5f6       ?LinesWheeled@RowWindow@@MEAAXH@Z 000000018001d5f6 f   TakionGui:TakionGui.dll
 0001:0001c5fc       ?SortColumnsChanged@RowWindow@@MEAAX_N@Z 000000018001d5fc f   TakionGui:TakionGui.dll
 0001:0001c602       ?BackgroundColorChanged@RowWindowSortable@@MEAAXXZ 000000018001d602 f   TakionGui:TakionGui.dll
 0001:0001c608       ?PasteStocksFromString@RowWindow@@MEAAXPEBD_K_N@Z 000000018001d608 f   TakionGui:TakionGui.dll
 0001:0001c60e       ?BeforeRowsScrolled@RowWindowSortable@@MEAAXH@Z 000000018001d60e f   TakionGui:TakionGui.dll
 0001:0001c614       ?RowsScrolled@RowWindowSortable@@MEAAXH@Z 000000018001d614 f   TakionGui:TakionGui.dll
 0001:0001c61a       ?LineRightSelected@RowWindowSortable@@MEAAXXZ 000000018001d61a f   TakionGui:TakionGui.dll
 0001:0001c620       ?DataRightUpdated@RowWindowSortable@@MEAAX_N@Z 000000018001d620 f   TakionGui:TakionGui.dll
 0001:0001c626       ?DoPaintData@RowWindowSortable@@MEBA_KAEAVCDC@@_K1AEBV?$_Tree_const_iterator@V?$_Tree_val@U?$_Tree_simple_types@U?$pair@$$CBV?$PointLocator@H@@PEAVColumn@@@std@@@std@@@std@@@std@@2HH_N_N@Z 000000018001d626 f   TakionGui:TakionGui.dll
 0001:0001c62c       ?DrawDataAdditional@RowWindowSortable@@MEAAXAEBVCRect@@AEAVCDC@@@Z 000000018001d62c f   TakionGui:TakionGui.dll
 0001:0001c632       ?CreateAdditionalColumns@RowWindow@@MEAAXXZ 000000018001d632 f   TakionGui:TakionGui.dll
 0001:0001c638       ?UpdateRowsFit@RowWindow@@MEAAXXZ 000000018001d638 f   TakionGui:TakionGui.dll
 0001:0001c63e       ?RowsFitChanged@RowWindow@@MEAAXXZ 000000018001d63e f   TakionGui:TakionGui.dll
 0001:0001c644       ?HorizontalScrollVisibilityChanged@RowWindowSortable@@MEAAXXZ 000000018001d644 f   TakionGui:TakionGui.dll
 0001:0001c64a       ?ShowMillisecondsChanged@RowWindow@@MEAAXXZ 000000018001d64a f   TakionGui:TakionGui.dll
 0001:0001c650       ?InvalidateShowMilliseconds@RowWindow@@MEBAXXZ 000000018001d650 f   TakionGui:TakionGui.dll
 0001:0001c656       ?InvalidateCommaPriceColums@RowWindow@@MEBAXXZ 000000018001d656 f   TakionGui:TakionGui.dll
 0001:0001c65c       ?InvalidateCommaSizeColums@RowWindow@@MEBAXXZ 000000018001d65c f   TakionGui:TakionGui.dll
 0001:0001c662       ?InvalidateCommaMoneyColums@RowWindow@@MEBAXXZ 000000018001d662 f   TakionGui:TakionGui.dll
 0001:0001c668       ?InvalidateCommaVolumeColums@RowWindow@@MEBAXXZ 000000018001d668 f   TakionGui:TakionGui.dll
 0001:0001c66e       ?RowLeftClicked@RowWindowSortable@@MEAAXPEAVRow@@_KAEBVCPoint@@@Z 000000018001d66e f   TakionGui:TakionGui.dll
 0001:0001c674       ?RowDoubleClicked@RowWindow@@MEAAXPEAVRow@@_KAEBVCPoint@@@Z 000000018001d674 f   TakionGui:TakionGui.dll
 0001:0001c67a       ?RowExpandLeftPrssed@RowWindow@@MEAAXPEAVRow@@_KAEBVCPoint@@@Z 000000018001d67a f   TakionGui:TakionGui.dll
 0001:0001c680       ?SecurityDoubleClicked@RowWindow@@MEAAXIAEBVCPoint@@@Z 000000018001d680 f   TakionGui:TakionGui.dll
 0001:0001c686       ?UpdateTotalRectOnResizeSecondaryColumn@RowWindowSortable@@MEAAXXZ 000000018001d686 f   TakionGui:TakionGui.dll
 0001:0001c68c       ?RowFontChanged@RowWindow@@MEAAXXZ 000000018001d68c f   TakionGui:TakionGui.dll
 0001:0001c692       ?SecondaryRowFontChanged@RowWindow@@MEAAXXZ 000000018001d692 f   TakionGui:TakionGui.dll
 0001:0001c698       ?CreateSecondaryAdditionalColumns@RowWindow@@MEAAXXZ 000000018001d698 f   TakionGui:TakionGui.dll
 0001:0001c69e       ?DoUpdateSecondaryDataGraphicsColorsCustom@RowWindow@@MEAAXPEBVGraphicsColorCollection@@@Z 000000018001d69e f   TakionGui:TakionGui.dll
 0001:0001c6a4       ?DoUpdateSecondaryDataGraphicsColors@RowWindow@@MEAAXPEBVGraphics@@@Z 000000018001d6a4 f   TakionGui:TakionGui.dll
 0001:0001c6aa       ?UpdateSecondaryRowColors@RowWindowSortable@@MEAAXXZ 000000018001d6aa f   TakionGui:TakionGui.dll
 0001:0001c6b0       ?AddSecondaryRowMenuItems@RowWindow@@MEAAXAEAVCMenu@@@Z 000000018001d6b0 f   TakionGui:TakionGui.dll
 0001:0001c6b6       ?ScrollPrimaryAndSecondaryDataHorizontally@RowWindowSortable@@MEBAX_KHAEAVCRect@@PEBV2@12@Z 000000018001d6b6 f   TakionGui:TakionGui.dll
 0001:0001c6bc       ?ScrollPrimaryOrSecondaryDataHorizontally@RowWindowSortable@@MEBAX_KHAEAVCRect@@PEBV2@PEAV2@_N@Z 000000018001d6bc f   TakionGui:TakionGui.dll
 0001:0001c6c2       ?FlashRowTicks@RowWindowSortable@@MEAAX_K@Z 000000018001d6c2 f   TakionGui:TakionGui.dll
 0001:0001c6c8       ?ScrollTotalRowHorizontally@RowWindowSortable@@MEBAXHAEAVCRect@@PEBV2@PEAV2@@Z 000000018001d6c8 f   TakionGui:TakionGui.dll
 0001:0001c6ce       ?OnSecondaryVisibilityChange@RowWindow@@MEAAX_N@Z 000000018001d6ce f   TakionGui:TakionGui.dll
 0001:0001c6d4       ?AddRow@RowWindowSortable@@UEAAPEAVRowSortable@@PEAV2@_N1@Z 000000018001d6d4 f   TakionGui:TakionGui.dll
 0001:0001c6da       ?NewSecondaryRow@RowWindowSortable@@UEAAPEAVRow@@PEBXPEAVRowSortable@@@Z 000000018001d6da f   TakionGui:TakionGui.dll
 0001:0001c6e0       ?CreateSecondaryRow@RowWindowSortable@@UEAAPEAVRowSortable@@PEBX_NPEAV2@@Z 000000018001d6e0 f   TakionGui:TakionGui.dll
 0001:0001c6e6       ?SecondaryObjectPotentiallyBelongs@RowWindowSortable@@UEBA_NPEBX@Z 000000018001d6e6 f   TakionGui:TakionGui.dll
 0001:0001c6ec       ?SecondaryRowFiltersIn@RowWindowSortable@@UEBA_NPEBVRowSortable@@@Z 000000018001d6ec f   TakionGui:TakionGui.dll
 0001:0001c6f2       ?SecondaryRowBelongs@RowWindowSortable@@UEBAEPEBVRowSortable@@@Z 000000018001d6f2 f   TakionGui:TakionGui.dll
 0001:0001c6f8       ?SecondaryExistingRowBelongs@RowWindowSortable@@UEBAEPEBVRowSortable@@@Z 000000018001d6f8 f   TakionGui:TakionGui.dll
 0001:0001c6fe       ?RemoveObject@RowWindowSortable@@UEAAPEAVRowSortable@@PEBX@Z 000000018001d6fe f   TakionGui:TakionGui.dll
 0001:0001c704       ?SetMultiSelect@RowWindowSortable@@UEAA_N_N@Z 000000018001d704 f   TakionGui:TakionGui.dll
 0001:0001c70a       ?isTickable@RowWindowSortable@@UEBA_NXZ 000000018001d70a f   TakionGui:TakionGui.dll
 0001:0001c710       ?ApplyUIntValue@RowWindowSortable@@UEAAXIAEAV?$set@PEAVRowSortable@@U?$less@PEAVRowSortable@@@std@@V?$allocator@PEAVRowSortable@@@3@@std@@GI_N@Z 000000018001d710 f   TakionGui:TakionGui.dll
 0001:0001c716       ?ApplyIntValue@RowWindowSortable@@UEAAXIAEAV?$set@PEAVRowSortable@@U?$less@PEAVRowSortable@@@std@@V?$allocator@PEAVRowSortable@@@3@@std@@GH_N@Z 000000018001d716 f   TakionGui:TakionGui.dll
 0001:0001c71c       ?ApplyPriceValue@RowWindowSortable@@UEAAXIAEAV?$set@PEAVRowSortable@@U?$less@PEAVRowSortable@@@std@@V?$allocator@PEAVRowSortable@@@3@@std@@GAEBVPrice@@_N@Z 000000018001d71c f   TakionGui:TakionGui.dll
 0001:0001c722       ?ApplyStringValue@RowWindowSortable@@UEAAXIAEAV?$set@PEAVRowSortable@@U?$less@PEAVRowSortable@@@std@@V?$allocator@PEAVRowSortable@@@3@@std@@GPEBD_N@Z 000000018001d722 f   TakionGui:TakionGui.dll
 0001:0001c728       ?CopySelectedStocksToStr@RowWindowSortable@@UEBAXAEAV?$basic_string@DU?$char_traits@D@std@@V?$allocator@D@2@@std@@@Z 000000018001d728 f   TakionGui:TakionGui.dll
 0001:0001c72e       ?SetTopActive@RowWindowSortable@@UEAAX_N@Z 000000018001d72e f   TakionGui:TakionGui.dll
 0001:0001c734       ?CanHaveTotal@RowWindowSortable@@UEBA_NXZ 000000018001d734 f   TakionGui:TakionGui.dll
 0001:0001c73a       ?GetPopOrdinalColumnId@RowWindowSortable@@UEBAGXZ 000000018001d73a f   TakionGui:TakionGui.dll
 0001:0001c740       ?GetPositionBuiltInColumnCount@RowWindowSortable@@UEBAGXZ 000000018001d740 f   TakionGui:TakionGui.dll
 0001:0001c746       ?GetMergedPositions@RowWindowSortable@@UEBAPEBVPositionGroupCollection@@XZ 000000018001d746 f   TakionGui:TakionGui.dll
 0001:0001c74c       ?CanSeeFirmPositions@RowWindowSortable@@UEBAAEB_NXZ 000000018001d74c f   TakionGui:TakionGui.dll
 0001:0001c752       ?GetColorFlat@RowWindowSortable@@UEBAAEBKXZ 000000018001d752 f   TakionGui:TakionGui.dll
 0001:0001c758       ?GetColorLong@RowWindowSortable@@UEBAAEBKXZ 000000018001d758 f   TakionGui:TakionGui.dll
 0001:0001c75e       ?GetColorShort@RowWindowSortable@@UEBAAEBKXZ 000000018001d75e f   TakionGui:TakionGui.dll
 0001:0001c764       ?GetOrderBuiltInColumnCount@RowWindowSortable@@UEBAGXZ 000000018001d764 f   TakionGui:TakionGui.dll
 0001:0001c76a       ?GetBuyColor@RowWindowSortable@@UEBAAEBKXZ 000000018001d76a f   TakionGui:TakionGui.dll
 0001:0001c770       ?GetSellColor@RowWindowSortable@@UEBAAEBKXZ 000000018001d770 f   TakionGui:TakionGui.dll
 0001:0001c776       ?GetShortColor@RowWindowSortable@@UEBAAEBKXZ 000000018001d776 f   TakionGui:TakionGui.dll
 0001:0001c77c       ?GetBustedBuyColor@RowWindowSortable@@UEBAAEBKXZ 000000018001d77c f   TakionGui:TakionGui.dll
 0001:0001c782       ?GetBustedSellColor@RowWindowSortable@@UEBAAEBKXZ 000000018001d782 f   TakionGui:TakionGui.dll
 0001:0001c788       ?GetBuyOpenColor@RowWindowSortable@@UEBAAEBKXZ 000000018001d788 f   TakionGui:TakionGui.dll
 0001:0001c78e       ?GetBuyClosedColor@RowWindowSortable@@UEBAAEBKXZ 000000018001d78e f   TakionGui:TakionGui.dll
 0001:0001c794       ?GetShortOpenColor@RowWindowSortable@@UEBAAEBKXZ 000000018001d794 f   TakionGui:TakionGui.dll
 0001:0001c79a       ?GetSellClosedColor@RowWindowSortable@@UEBAAEBKXZ 000000018001d79a f   TakionGui:TakionGui.dll
 0001:0001c7a0       ?isUseOrderSecurityColors@RowWindowSortable@@UEBA_NXZ 000000018001d7a0 f   TakionGui:TakionGui.dll
 0001:0001c7a6       ?isUseExecutionSecurityColors@RowWindowSortable@@UEBA_NXZ 000000018001d7a6 f   TakionGui:TakionGui.dll
 0001:0001c7ac       ?GetExecutionStockColor@RowWindowSortable@@UEBAAEBKXZ 000000018001d7ac f   TakionGui:TakionGui.dll
 0001:0001c7b2       ?GetExecutionOptionColor@RowWindowSortable@@UEBAAEBKXZ 000000018001d7b2 f   TakionGui:TakionGui.dll
 0001:0001c7b8       ?GetExecutionFutureColor@RowWindowSortable@@UEBAAEBKXZ 000000018001d7b8 f   TakionGui:TakionGui.dll
 0001:0001c7be       ?GetOrderStockColor@RowWindowSortable@@UEBAAEBKXZ 000000018001d7be f   TakionGui:TakionGui.dll
 0001:0001c7c4       ?GetOrderOptionColor@RowWindowSortable@@UEBAAEBKXZ 000000018001d7c4 f   TakionGui:TakionGui.dll
 0001:0001c7ca       ?GetOrderFutureColor@RowWindowSortable@@UEBAAEBKXZ 000000018001d7ca f   TakionGui:TakionGui.dll
 0001:0001c7d0       ?GetColorPendingBuy@RowWindowSortable@@UEBAAEBKXZ 000000018001d7d0 f   TakionGui:TakionGui.dll
 0001:0001c7d6       ?GetColorPendingSell@RowWindowSortable@@UEBAAEBKXZ 000000018001d7d6 f   TakionGui:TakionGui.dll
 0001:0001c7dc       ?GetColorPendingShort@RowWindowSortable@@UEBAAEBKXZ 000000018001d7dc f   TakionGui:TakionGui.dll
 0001:0001c7e2       ?GetColorPendingFilledBuy@RowWindowSortable@@UEBAAEBKXZ 000000018001d7e2 f   TakionGui:TakionGui.dll
 0001:0001c7e8       ?GetColorPendingFilledSell@RowWindowSortable@@UEBAAEBKXZ 000000018001d7e8 f   TakionGui:TakionGui.dll
 0001:0001c7ee       ?GetColorPendingFilledShort@RowWindowSortable@@UEBAAEBKXZ 000000018001d7ee f   TakionGui:TakionGui.dll
 0001:0001c7f4       ?GetColorUnacknowledged@RowWindowSortable@@UEBAAEBKXZ 000000018001d7f4 f   TakionGui:TakionGui.dll
 0001:0001c7fa       ?GetColorNotSent@RowWindowSortable@@UEBAAEBKXZ 000000018001d7fa f   TakionGui:TakionGui.dll
 0001:0001c800       ?GetColorFilled@RowWindowSortable@@UEBAAEBKXZ 000000018001d800 f   TakionGui:TakionGui.dll
 0001:0001c806       ?GetColorPartialFilled@RowWindowSortable@@UEBAAEBKXZ 000000018001d806 f   TakionGui:TakionGui.dll
 0001:0001c80c       ?GetColorKicked@RowWindowSortable@@UEBAAEBKXZ 000000018001d80c f   TakionGui:TakionGui.dll
 0001:0001c812       ?GetColorBlocked@RowWindowSortable@@UEBAAEBKXZ 000000018001d812 f   TakionGui:TakionGui.dll
 0001:0001c818       ?GetColorCanceled@RowWindowSortable@@UEBAAEBKXZ 000000018001d818 f   TakionGui:TakionGui.dll
 0001:0001c81e       ?GetColorCanceling@RowWindowSortable@@UEBAAEBKXZ 000000018001d81e f   TakionGui:TakionGui.dll
 0001:0001c824       ?GetColorReplacing@RowWindowSortable@@UEBAAEBKXZ 000000018001d824 f   TakionGui:TakionGui.dll
 0001:0001c82a       ?GetColorPostponed@RowWindowSortable@@UEBAAEBKXZ 000000018001d82a f   TakionGui:TakionGui.dll
 0001:0001c830       ?GetColorWaiting@RowWindowSortable@@UEBAAEBKXZ 000000018001d830 f   TakionGui:TakionGui.dll
 0001:0001c836       ?GetColorOco@RowWindowSortable@@UEBAAEBKXZ 000000018001d836 f   TakionGui:TakionGui.dll
 0001:0001c83c       ?GetOrderBuyColor@RowWindowSortable@@UEBAAEBKXZ 000000018001d83c f   TakionGui:TakionGui.dll
 0001:0001c842       ?GetOrderSellColor@RowWindowSortable@@UEBAAEBKXZ 000000018001d842 f   TakionGui:TakionGui.dll
 0001:0001c848       ?GetOrderShortColor@RowWindowSortable@@UEBAAEBKXZ 000000018001d848 f   TakionGui:TakionGui.dll
 0001:0001c84e       ?isFiltered@RowWindowSortable@@UEBA_NXZ 000000018001d84e f   TakionGui:TakionGui.dll
 0001:0001c854       ?MoveRowsToPool@RowWindowSortable@@MEAAXXZ 000000018001d854 f   TakionGui:TakionGui.dll
 0001:0001c85a       ?AddRowToPool@RowWindowSortable@@MEAA_NPEAVRowSortable@@@Z 000000018001d85a f   TakionGui:TakionGui.dll
 0001:0001c860       ?ResetMinMaxValues@RowWindowSortable@@MEAAXXZ 000000018001d860 f   TakionGui:TakionGui.dll
 0001:0001c866       ?Populate@RowWindowSortable@@MEAA_N_N@Z 000000018001d866 f   TakionGui:TakionGui.dll
 0001:0001c86c       ?AddNewRows@RowWindowSortable@@MEAAXXZ 000000018001d86c f   TakionGui:TakionGui.dll
 0001:0001c872       ?RemoveRowFromRowMap@RowWindowSortable@@MEAAXPEBX@Z 000000018001d872 f   TakionGui:TakionGui.dll
 0001:0001c878       ?RemoveAllObjectsBelongingToAccount@RowWindowSortable@@MEAA_NPEBVAccount@@@Z 000000018001d878 f   TakionGui:TakionGui.dll
 0001:0001c87e       ?RemoveAllObjectsBelongingToAccountAggregator@RowWindowSortable@@MEAA_NPEBVAccountAggregator@@@Z 000000018001d87e f   TakionGui:TakionGui.dll
 0001:0001c884       ?HideSelectedPositions@RowWindowSortable@@MEAAX_N@Z 000000018001d884 f   TakionGui:TakionGui.dll
 0001:0001c88a       ?HandleSelectedInventory@RowWindowSortable@@MEAAXE@Z 000000018001d88a f   TakionGui:TakionGui.dll
 0001:0001c890       ?GetInventorySettingsTabInitInfo@RowWindowSortable@@MEBAPEBXAEBVCPoint@@@Z 000000018001d890 f   TakionGui:TakionGui.dll
 0001:0001c896       ?RowInserted@RowWindowSortable@@MEAAXPEAVRowSortable@@@Z 000000018001d896 f   TakionGui:TakionGui.dll
 0001:0001c89c       ?RowRemoved@RowWindowSortable@@MEAAXPEAVRowSortable@@@Z 000000018001d89c f   TakionGui:TakionGui.dll
 0001:0001c8a2       ?BeforeRowInsertion@RowWindowSortable@@MEAAIPEAVRowSortable@@@Z 000000018001d8a2 f   TakionGui:TakionGui.dll
 0001:0001c8a8       ?RevertRowInsertion@RowWindowSortable@@MEAAXPEAVRowSortable@@I@Z 000000018001d8a8 f   TakionGui:TakionGui.dll
 0001:0001c8ae       ?CreateRowTotal@RowWindowSortable@@MEAAPEAVRowTotal@@XZ 000000018001d8ae f   TakionGui:TakionGui.dll
 0001:0001c8b4       ?MoveRow@RowWindowSortable@@EEAA_NPEAVRow@@_K1@Z 000000018001d8b4 f   TakionGui:TakionGui.dll
 0001:0001c8ba       ?CanShowAllAccounts@RowWindowSortableAccount@@UEBA_NXZ 000000018001d8ba f   TakionGui:TakionGui.dll
 0001:0001c8c0       ?CanFilterBySymbol@RowWindowSortableAccount@@UEBA_NXZ 000000018001d8c0 f   TakionGui:TakionGui.dll
 0001:0001c8c6       ?AppendTitleInfo@RowWindowSortableAccount@@UEBAXAEAV?$basic_string@DU?$char_traits@D@std@@V?$allocator@D@2@@std@@@Z 000000018001d8c6 f   TakionGui:TakionGui.dll
 0001:0001c8cc       ?isContentsChangeOnAccountChange@RowWindowSortableAccount@@UEBA_NXZ 000000018001d8cc f   TakionGui:TakionGui.dll
 0001:0001c8d2       ?AddAccountMergeMenu@RowWindowSortableAccount@@UEAAXAEAVCMenu@@@Z 000000018001d8d2 f   TakionGui:TakionGui.dll
 0001:0001c8d8       ?AllAccountsModeChanged@RowWindowSortableAccount@@MEAAXXZ 000000018001d8d8 f   TakionGui:TakionGui.dll
 0001:0001c8de       ?ViewAllAccountsChanged@RowWindowSortableAccount@@MEAAX_N@Z 000000018001d8de f   TakionGui:TakionGui.dll
 0001:0001c8e4       ?UpdateHistoryLoadBkColor@RowWindowSortableAccount@@MEAA_NXZ 000000018001d8e4 f   TakionGui:TakionGui.dll
 0001:0001c8ea       ?isColumnEntitlable@Columns@@UEBA_NG@Z 000000018001d8ea f   TakionGui:TakionGui.dll
 0001:0001c8f0       ?InvalidateColumnRect@RowWindow@@UEBAXAEBV?$_Tree_iterator@V?$_Tree_val@U?$_Tree_simple_types@U?$pair@$$CBV?$PointLocator@H@@PEAVColumn@@@std@@@std@@@std@@@std@@@Z 000000018001d8f0 f   TakionGui:TakionGui.dll
 0001:0001c8f6       ?isSortable@RowWindowSortable@@UEBA_NXZ 000000018001d8f6 f   TakionGui:TakionGui.dll
 0001:0001c8fc       ?isScrollable@Columns@@UEBA_NXZ 000000018001d8fc f   TakionGui:TakionGui.dll
 0001:0001c902       ?UpdateColumnUsage@RowWindow@@UEAA_NAEBV?$set@GU?$less@G@std@@V?$allocator@G@2@@std@@0@Z 000000018001d902 f   TakionGui:TakionGui.dll
 0001:0001c908       ?AssignDefaultSortColumn@RowWindow@@MEAAX_N@Z 000000018001d908 f   TakionGui:TakionGui.dll
 0001:0001c90e       ?GetTotalRowHeight@RowWindow@@UEBAHXZ 000000018001d90e f   TakionGui:TakionGui.dll
 0001:0001c914       ?GetTotalRowHeightMax@RowWindow@@UEBAHXZ 000000018001d914 f   TakionGui:TakionGui.dll
 0001:0001c91a       ?InvalidateInventoryColumns@RowWindow@@UEBAXXZ 000000018001d91a f   TakionGui:TakionGui.dll
 0001:0001c920       ?SetColumnIndentation@RowWindowSortable@@UEAA_NH@Z 000000018001d920 f   TakionGui:TakionGui.dll
 0001:0001c926       ?GetRowWindow@RowWindow@@UEBAPEBV1@XZ 000000018001d926 f   TakionGui:TakionGui.dll
 0001:0001c92c       ?GetRowWindow@RowWindow@@UEAAPEAV1@XZ 000000018001d92c f   TakionGui:TakionGui.dll
 0001:0001c932       ?SetShowPlusMinusColor@RowWindow@@UEAAX_N@Z 000000018001d932 f   TakionGui:TakionGui.dll
 0001:0001c938       ?isShowPlusMinusColor@RowWindow@@UEBAAEB_N_N@Z 000000018001d938 f   TakionGui:TakionGui.dll
 0001:0001c93e       ?isSecondary@Columns@@UEBA_NXZ 000000018001d93e f   TakionGui:TakionGui.dll
 0001:0001c944       ?isPlusMinusable@Columns@@UEBA_NXZ 000000018001d944 f   TakionGui:TakionGui.dll
 0001:0001c94a       ?HasSecondarySecurityColors@Columns@@UEBA_NXZ 000000018001d94a f   TakionGui:TakionGui.dll
 0001:0001c950       ?GetColumnHighlightColor@Columns@@UEBAKG@Z 000000018001d950 f   TakionGui:TakionGui.dll
 0001:0001c956       ?OnSetUseSecurityColors@Columns@@MEAAXXZ 000000018001d956 f   TakionGui:TakionGui.dll
 0001:0001c95c       ?HasFullEntitlement@Columns@@MEBA_NXZ 000000018001d95c f   TakionGui:TakionGui.dll
 0001:0001c962       ?ResizeColumn@RowWindowSortable@@UEAAHH@Z 000000018001d962 f   TakionGui:TakionGui.dll
 0001:0001c968       ?ScrollHorizontalThumbTrack@Columns@@MEAA_NAEAV?$_Tree_iterator@V?$_Tree_val@U?$_Tree_simple_types@U?$pair@$$CBV?$PointLocator@H@@PEAVColumn@@@std@@@std@@@std@@@std@@GG@Z 000000018001d968 f   TakionGui:TakionGui.dll
 0001:0001c96e       ?UpdateColumnRect@RowWindowSortable@@UEAA_NHH@Z 000000018001d96e f   TakionGui:TakionGui.dll
 0001:0001c974       ?GetPaintTextInfo@Row@@UEBA_NGAEAV?$basic_string@DU?$char_traits@D@std@@V?$allocator@D@2@@std@@AEAK@Z 000000018001d974 f   TakionGui:TakionGui.dll
 0001:0001c97a       ?RowBelongs@RowWindowSortable@@UEBAEPEBVRowSortable@@@Z 000000018001d97a f   TakionGui:TakionGui.dll
 0001:0001c980       ?isValueChanged@PositionIntRowValueNull@@UEBA_NXZ 000000018001d980 f   TakionGui:TakionGui.dll
 0001:0001c986       ?isValueEmpty@PositionIntRowValueNull@@UEBA_NXZ 000000018001d986 f   TakionGui:TakionGui.dll
 0001:0001c98c       ?isObjectValueEmpty@PositionIntRowValueNull@@UEBA_NXZ 000000018001d98c f   TakionGui:TakionGui.dll
 0001:0001c992       ?SetPosition@PositionIntRowValue@@UEAAXPEBVPositionData@@@Z 000000018001d992 f   TakionGui:TakionGui.dll
 0001:0001c998       ?GetObjectValue@PositionIntRowValueNull@@UEBAAEBHXZ 000000018001d998 f   TakionGui:TakionGui.dll
 0001:0001c99e       ?SetValue@PositionIntRowValueNull@@UEAA_NAEBH@Z 000000018001d99e f   TakionGui:TakionGui.dll
 0001:0001c9a4       ?InitializeValue@PositionIntRowValueNull@@MEAAXXZ 000000018001d9a4 f   TakionGui:TakionGui.dll
 0001:0001c9aa       ?GetObjectValue@PositionSecurityCompactPriceRowValue@@UEBAAEBIXZ 000000018001d9aa f   TakionGui:TakionGui.dll
 0001:0001c9b0       ?isValueZero@?$TypedNumericRowValue@VSignedPrice@@@@UEBA_NXZ 000000018001d9b0 f   TakionGui:TakionGui.dll
 0001:0001c9b6       ?isObjectValueZero@?$TypedNumericRowValue@VSignedPrice@@@@UEBA_NXZ 000000018001d9b6 f   TakionGui:TakionGui.dll
 0001:0001c9bc       ?GetRowNumericSymbol@Row@@UEBAAEB_KXZ 000000018001d9bc f   TakionGui:TakionGui.dll
 0001:0001c9c2       ?GetRowPosition@Row@@UEBAPEBVPositionData@@PEBVCPoint@@@Z 000000018001d9c2 f   TakionGui:TakionGui.dll
 0001:0001c9c8       ?CompareFunction@RowSortable@@UEBA_NAEBV1@GAEAF@Z 000000018001d9c8 f   TakionGui:TakionGui.dll
 0001:0001c9ce       ?CompareFunctionAhead@RowSortable@@UEBA_NAEBV1@GAEAF@Z 000000018001d9ce f   TakionGui:TakionGui.dll
 0001:0001c9d4       ?PreCompare@RowSortable@@UEBAFAEBV1@@Z 000000018001d9d4 f   TakionGui:TakionGui.dll
 0001:0001c9da       ?GetSelectedSecurity@SecurityChartRow@@UEBAPEBVSecurity@@XZ 000000018001d9da f   TakionGui:TakionGui.dll
 0001:0001c9e0       ?AddDoubleClickActionMenuItems@RowWindow@@MEAAXAEAVCMenu@@@Z 000000018001d9e0 f   TakionGui:TakionGui.dll
 0001:0001c9e6       ?ObjectPotentiallyBelongs@RowWindowSortable@@UEBA_NPEBX@Z 000000018001d9e6 f   TakionGui:TakionGui.dll
 0001:0001c9ec       ?RowFiltersIn@RowWindowSortable@@UEBA_NPEBVRowSortable@@@Z 000000018001d9ec f   TakionGui:TakionGui.dll
 0001:0001c9f2       ?ExistingRowBelongs@RowWindowSortable@@UEBAEPEBVRowSortable@@@Z 000000018001d9f2 f   TakionGui:TakionGui.dll
 0001:0001c9f8       ?isRowActiveSymbol@RowWindowSortable@@UEBA_NPEBVRowSortable@@@Z 000000018001d9f8 f   TakionGui:TakionGui.dll
 0001:0001c9fe       ?FindRowActiveSymbol@RowWindowSortable@@UEBAPEAVRowSortable@@AEB_K0@Z 000000018001d9fe f   TakionGui:TakionGui.dll
 0001:0001ca04       ?Repopulate@RowWindowSortable@@MEAAXXZ 000000018001da04 f   TakionGui:TakionGui.dll
 0001:0001ca0a       ?ActiveSymbolAboutToChange@RowWindowSortable@@MEAAXAEB_K0@Z 000000018001da0a f   TakionGui:TakionGui.dll
 0001:0001ca10       ?ActiveSymbolChanged@RowWindowSortable@@MEAA_NXZ 000000018001da10 f   TakionGui:TakionGui.dll
 0001:0001ca16       ??3@YAXPEAX@Z              000000018001da16 f   mfc140:mfc140.dll
 0001:0001ca1c       ??2@YAPEAX_K@Z             000000018001da1c f   mfc140:mfc140.dll
 0001:0001ca22       ?GetRuntimeClass@CDialog@@UEBAPEAUCRuntimeClass@@XZ 000000018001da22 f   mfc140:mfc140.dll
 0001:0001ca28       ?OnCmdMsg@CDialog@@UEAAHIHPEAXPEAUAFX_CMDHANDLERINFO@@@Z 000000018001da28 f   mfc140:mfc140.dll
 0001:0001ca2e       ?OnFinalRelease@CWnd@@UEAAXXZ 000000018001da2e f   mfc140:mfc140.dll
 0001:0001ca34       ?IsInvokeAllowed@CCmdTarget@@UEAAHJ@Z 000000018001da34 f   mfc140:mfc140.dll
 0001:0001ca3a       ?GetDispatchIID@CCmdTarget@@UEAAHPEAU_GUID@@@Z 000000018001da3a f   mfc140:mfc140.dll
 0001:0001ca40       ?GetTypeInfoCount@CCmdTarget@@UEAAIXZ 000000018001da40 f   mfc140:mfc140.dll
 0001:0001ca46       ?GetTypeLibCache@CCmdTarget@@UEAAPEAVCTypeLibCache@@XZ 000000018001da46 f   mfc140:mfc140.dll
 0001:0001ca4c       ?GetTypeLib@CCmdTarget@@UEAAJKPEAPEAUITypeLib@@@Z 000000018001da4c f   mfc140:mfc140.dll
 0001:0001ca52       ?GetCommandMap@CCmdTarget@@MEBAPEBUAFX_OLECMDMAP@@XZ 000000018001da52 f   mfc140:mfc140.dll
 0001:0001ca58       ?GetDispatchMap@CCmdTarget@@MEBAPEBUAFX_DISPMAP@@XZ 000000018001da58 f   mfc140:mfc140.dll
 0001:0001ca5e       ?GetConnectionMap@CCmdTarget@@MEBAPEBUAFX_CONNECTIONMAP@@XZ 000000018001da5e f   mfc140:mfc140.dll
 0001:0001ca64       ?GetInterfaceMap@CWnd@@MEBAPEBUAFX_INTERFACEMAP@@XZ 000000018001da64 f   mfc140:mfc140.dll
 0001:0001ca6a       ?GetEventSinkMap@CCmdTarget@@MEBAPEBUAFX_EVENTSINKMAP@@XZ 000000018001da6a f   mfc140:mfc140.dll
 0001:0001ca70       ?OnCreateAggregates@CCmdTarget@@UEAAHXZ 000000018001da70 f   mfc140:mfc140.dll
 0001:0001ca76       ?GetInterfaceHook@CCmdTarget@@UEAAPEAUIUnknown@@PEBX@Z 000000018001da76 f   mfc140:mfc140.dll
 0001:0001ca7c       ?GetExtraConnectionPoints@CCmdTarget@@MEAAHPEAVCPtrArray@@@Z 000000018001da7c f   mfc140:mfc140.dll
 0001:0001ca82       ?GetConnectionHook@CCmdTarget@@MEAAPEAUIConnectionPoint@@AEBU_GUID@@@Z 000000018001da82 f   mfc140:mfc140.dll
 0001:0001ca88       ?PreSubclassWindow@CWnd@@UEAAXXZ 000000018001da88 f   mfc140:mfc140.dll
 0001:0001ca8e       ?Create@CWnd@@UEAAHPEBD0KAEBUtagRECT@@PEAV1@IPEAUCCreateContext@@@Z 000000018001da8e f   mfc140:mfc140.dll
 0001:0001ca94       ?CreateEx@CWnd@@UEAAHKPEBD0KAEBUtagRECT@@PEAV1@IPEAX@Z 000000018001da94 f   mfc140:mfc140.dll
 0001:0001ca9a       ?CreateEx@CWnd@@UEAAHKPEBD0KHHHHPEAUHWND__@@PEAUHMENU__@@PEAX@Z 000000018001da9a f   mfc140:mfc140.dll
 0001:0001caa0       ?DestroyWindow@CWnd@@UEAAHXZ 000000018001daa0 f   mfc140:mfc140.dll
 0001:0001caa6       ?PreCreateWindow@CWnd@@UEAAHAEAUtagCREATESTRUCTA@@@Z 000000018001daa6 f   mfc140:mfc140.dll
 0001:0001caac       ?CalcWindowRect@CWnd@@UEAAXPEAUtagRECT@@I@Z 000000018001daac f   mfc140:mfc140.dll
 0001:0001cab2       ?GetMenu@CWnd@@UEBAPEAVCMenu@@XZ 000000018001dab2 f   mfc140:mfc140.dll
 0001:0001cab8       ?SetMenu@CWnd@@UEAAHPEAVCMenu@@@Z 000000018001dab8 f   mfc140:mfc140.dll
 0001:0001cabe       ?OnToolHitTest@CWnd@@UEBA_JVCPoint@@PEAUtagTOOLINFOA@@@Z 000000018001dabe f   mfc140:mfc140.dll
 0001:0001cac4       ?GetScrollBarCtrl@CWnd@@UEBAPEAVCScrollBar@@H@Z 000000018001dac4 f   mfc140:mfc140.dll
 0001:0001caca       ?WinHelpA@CWnd@@UEAAX_KI@Z 000000018001daca f   mfc140:mfc140.dll
 0001:0001cad0       ?HtmlHelpA@CWnd@@UEAAX_KI@Z 000000018001dad0 f   mfc140:mfc140.dll
 0001:0001cad6       ?WinHelpInternal@CWnd@@UEAAX_KI@Z 000000018001dad6 f   mfc140:mfc140.dll
 0001:0001cadc       ?ContinueModal@CWnd@@UEAAHXZ 000000018001dadc f   mfc140:mfc140.dll
 0001:0001cae2       ?EndModalLoop@CWnd@@UEAAXH@Z 000000018001dae2 f   mfc140:mfc140.dll
 0001:0001cae8       ?OnDrawIconicThumbnailOrLivePreview@CWnd@@UEAAXAEAVCDC@@VCRect@@VCSize@@HAEAH@Z 000000018001dae8 f   mfc140:mfc140.dll
 0001:0001caee       ?EnsureStdObj@CWnd@@UEAAJXZ 000000018001daee f   mfc140:mfc140.dll
 0001:0001caf4       ?get_accParent@CWnd@@UEAAJPEAPEAUIDispatch@@@Z 000000018001daf4 f   mfc140:mfc140.dll
 0001:0001cafa       ?get_accChildCount@CWnd@@UEAAJPEAJ@Z 000000018001dafa f   mfc140:mfc140.dll
 0001:0001cb00       ?get_accChild@CWnd@@UEAAJUtagVARIANT@@PEAPEAUIDispatch@@@Z 000000018001db00 f   mfc140:mfc140.dll
 0001:0001cb06       ?get_accName@CWnd@@UEAAJUtagVARIANT@@PEAPEA_W@Z 000000018001db06 f   mfc140:mfc140.dll
 0001:0001cb0c       ?get_accValue@CWnd@@UEAAJUtagVARIANT@@PEAPEA_W@Z 000000018001db0c f   mfc140:mfc140.dll
 0001:0001cb12       ?get_accDescription@CWnd@@UEAAJUtagVARIANT@@PEAPEA_W@Z 000000018001db12 f   mfc140:mfc140.dll
 0001:0001cb18       ?get_accRole@CWnd@@UEAAJUtagVARIANT@@PEAU2@@Z 000000018001db18 f   mfc140:mfc140.dll
 0001:0001cb1e       ?get_accState@CWnd@@UEAAJUtagVARIANT@@PEAU2@@Z 000000018001db1e f   mfc140:mfc140.dll
 0001:0001cb24       ?get_accHelp@CWnd@@UEAAJUtagVARIANT@@PEAPEA_W@Z 000000018001db24 f   mfc140:mfc140.dll
 0001:0001cb2a       ?get_accHelpTopic@CWnd@@UEAAJPEAPEA_WUtagVARIANT@@PEAJ@Z 000000018001db2a f   mfc140:mfc140.dll
 0001:0001cb30       ?get_accKeyboardShortcut@CWnd@@UEAAJUtagVARIANT@@PEAPEA_W@Z 000000018001db30 f   mfc140:mfc140.dll
 0001:0001cb36       ?get_accFocus@CWnd@@UEAAJPEAUtagVARIANT@@@Z 000000018001db36 f   mfc140:mfc140.dll
 0001:0001cb3c       ?get_accSelection@CWnd@@UEAAJPEAUtagVARIANT@@@Z 000000018001db3c f   mfc140:mfc140.dll
 0001:0001cb42       ?get_accDefaultAction@CWnd@@UEAAJUtagVARIANT@@PEAPEA_W@Z 000000018001db42 f   mfc140:mfc140.dll
 0001:0001cb48       ?accSelect@CWnd@@UEAAJJUtagVARIANT@@@Z 000000018001db48 f   mfc140:mfc140.dll
 0001:0001cb4e       ?accLocation@CWnd@@UEAAJPEAJ000UtagVARIANT@@@Z 000000018001db4e f   mfc140:mfc140.dll
 0001:0001cb54       ?accNavigate@CWnd@@UEAAJJUtagVARIANT@@PEAU2@@Z 000000018001db54 f   mfc140:mfc140.dll
 0001:0001cb5a       ?accHitTest@CWnd@@UEAAJJJPEAUtagVARIANT@@@Z 000000018001db5a f   mfc140:mfc140.dll
 0001:0001cb60       ?accDoDefaultAction@CWnd@@UEAAJUtagVARIANT@@@Z 000000018001db60 f   mfc140:mfc140.dll
 0001:0001cb66       ?put_accName@CWnd@@UEAAJUtagVARIANT@@PEA_W@Z 000000018001db66 f   mfc140:mfc140.dll
 0001:0001cb6c       ?put_accValue@CWnd@@UEAAJUtagVARIANT@@PEA_W@Z 000000018001db6c f   mfc140:mfc140.dll
 0001:0001cb72       ?SetProxy@CWnd@@UEAAJPEAUIAccessibleProxy@@@Z 000000018001db72 f   mfc140:mfc140.dll
 0001:0001cb78       ?CreateAccessibleProxy@CWnd@@UEAAJ_K_JPEA_J@Z 000000018001db78 f   mfc140:mfc140.dll
 0001:0001cb7e       ?OnCommand@CWnd@@MEAAH_K_J@Z 000000018001db7e f   mfc140:mfc140.dll
 0001:0001cb84       ?GetSuperWndProcAddr@CWnd@@MEAAPEAP6A_JPEAUHWND__@@I_K_J@ZXZ 000000018001db84 f   mfc140:mfc140.dll
 0001:0001cb8a       ?OnAmbientProperty@CWnd@@UEAAHPEAVCOleControlSite@@JPEAUtagVARIANT@@@Z 000000018001db8a f   mfc140:mfc140.dll
 0001:0001cb90       ?WindowProc@CWnd@@MEAA_JI_K_J@Z 000000018001db90 f   mfc140:mfc140.dll
 0001:0001cb96       ?OnWndMsg@CWnd@@MEAAHI_K_JPEA_J@Z 000000018001db96 f   mfc140:mfc140.dll
 0001:0001cb9c       ?DefWindowProcA@CWnd@@MEAA_JI_K_J@Z 000000018001db9c f   mfc140:mfc140.dll
 0001:0001cba2       ?PostNcDestroy@CWnd@@MEAAXXZ 000000018001dba2 f   mfc140:mfc140.dll
 0001:0001cba8       ?OnChildNotify@CWnd@@MEAAHI_K_JPEA_J@Z 000000018001dba8 f   mfc140:mfc140.dll
 0001:0001cbae       ?OnTouchInputs@CWnd@@MEAAHIPEAUtagTOUCHINPUT@@@Z 000000018001dbae f   mfc140:mfc140.dll
 0001:0001cbb4       ?OnTouchInput@CWnd@@MEAAHVCPoint@@HHPEAUtagTOUCHINPUT@@@Z 000000018001dbb4 f   mfc140:mfc140.dll
 0001:0001cbba       ?GetGestureStatus@CWnd@@MEAAKVCPoint@@@Z 000000018001dbba f   mfc140:mfc140.dll
 0001:0001cbc0       ?OnGestureZoom@CWnd@@MEAAHVCPoint@@J@Z 000000018001dbc0 f   mfc140:mfc140.dll
 0001:0001cbc6       ?OnGesturePan@CWnd@@MEAAHVCPoint@@0@Z 000000018001dbc6 f   mfc140:mfc140.dll
 0001:0001cbcc       ?OnGestureRotate@CWnd@@MEAAHVCPoint@@N@Z 000000018001dbcc f   mfc140:mfc140.dll
 0001:0001cbd2       ?OnGestureTwoFingerTap@CWnd@@MEAAHVCPoint@@@Z 000000018001dbd2 f   mfc140:mfc140.dll
 0001:0001cbd8       ?OnGesturePressAndTap@CWnd@@MEAAHVCPoint@@J@Z 000000018001dbd8 f   mfc140:mfc140.dll
 0001:0001cbde       ?ResizeDynamicLayout@CWnd@@MEAAXXZ 000000018001dbde f   mfc140:mfc140.dll
 0001:0001cbe4       ?CheckAutoCenter@CDialog@@UEAAHXZ 000000018001dbe4 f   mfc140:mfc140.dll
 0001:0001cbea       ?IsFrameWnd@CWnd@@UEBAHXZ  000000018001dbea f   mfc140:mfc140.dll
 0001:0001cbf0       ?CreateControlContainer@CWnd@@MEAAHPEAPEAVCOleControlContainer@@@Z 000000018001dbf0 f   mfc140:mfc140.dll
 0001:0001cbf6       ?CreateControlSite@CWnd@@MEAAHPEAVCOleControlContainer@@PEAPEAVCOleControlSite@@IAEBU_GUID@@@Z 000000018001dbf6 f   mfc140:mfc140.dll
 0001:0001cbfc       ?SetOccDialogInfo@CDialog@@MEAAHPEAU_AFX_OCC_DIALOG_INFO@@@Z 000000018001dbfc f   mfc140:mfc140.dll
 0001:0001cc02       ?GetOccDialogInfo@CDialog@@MEAAPEAU_AFX_OCC_DIALOG_INFO@@XZ 000000018001dc02 f   mfc140:mfc140.dll
 0001:0001cc08       ?Create@CDialog@@UEAAHPEBDPEAVCWnd@@@Z 000000018001dc08 f   mfc140:mfc140.dll
 0001:0001cc0e       ?CreateIndirect@CDialog@@UEAAHPEAXPEAVCWnd@@@Z 000000018001dc0e f   mfc140:mfc140.dll
 0001:0001cc14       ?CreateIndirect@CDialog@@UEAAHPEBUDLGTEMPLATE@@PEAVCWnd@@PEAX@Z 000000018001dc14 f   mfc140:mfc140.dll
 0001:0001cc1a       ?OnSetFont@CDialog@@UEAAXPEAVCFont@@@Z 000000018001dc1a f   mfc140:mfc140.dll
 0001:0001cc20       ?PreInitDialog@CDialog@@MEAAXXZ 000000018001dc20 f   mfc140:mfc140.dll
 0001:0001cc26       ?DrawItem@CStatic@@UEAAXPEAUtagDRAWITEMSTRUCT@@@Z 000000018001dc26 f   mfc140:mfc140.dll
 0001:0001cc2c       ?Create@CStatic@@UEAAHPEBDKAEBUtagRECT@@PEAVCWnd@@I@Z 000000018001dc2c f   mfc140:mfc140.dll
 0001:0001cc32       ?GetOccDialogInfo@CWnd@@MEAAPEAU_AFX_OCC_DIALOG_INFO@@XZ 000000018001dc32 f   mfc140:mfc140.dll
 0001:0001cc38       ?SetOccDialogInfo@CWnd@@MEAAHPEAU_AFX_OCC_DIALOG_INFO@@@Z 000000018001dc38 f   mfc140:mfc140.dll
 0001:0001cc3e       ?CheckAutoCenter@CWnd@@UEAAHXZ 000000018001dc3e f   mfc140:mfc140.dll
 0001:0001cc44       ?OnChildNotify@CStatic@@MEAAHI_K_JPEA_J@Z 000000018001dc44 f   mfc140:mfc140.dll
 0001:0001cc4a       ?PreTranslateMessage@CWnd@@UEAAHPEAUtagMSG@@@Z 000000018001dc4a f   mfc140:mfc140.dll
 0001:0001cc50       ?OnNotify@CWnd@@MEAAH_K_JPEA_J@Z 000000018001dc50 f   mfc140:mfc140.dll
 0001:0001cc56       ?GetMessageMap@CWnd@@MEBAPEBUAFX_MSGMAP@@XZ 000000018001dc56 f   mfc140:mfc140.dll
 0001:0001cc5c       ?OnCmdMsg@CCmdTarget@@UEAAHIHPEAXPEAUAFX_CMDHANDLERINFO@@@Z 000000018001dc5c f   mfc140:mfc140.dll
 0001:0001cc62       ?GetRuntimeClass@CStatic@@UEBAPEAUCRuntimeClass@@XZ 000000018001dc62 f   mfc140:mfc140.dll
 0001:0001cc68       ?GetRuntimeClass@CWnd@@UEBAPEAUCRuntimeClass@@XZ 000000018001dc68 f   mfc140:mfc140.dll
 0001:0001cc6e       ?DrawItem@CButton@@UEAAXPEAUtagDRAWITEMSTRUCT@@@Z 000000018001dc6e f   mfc140:mfc140.dll
 0001:0001cc74       ?Create@CButton@@UEAAHPEBDKAEBUtagRECT@@PEAVCWnd@@I@Z 000000018001dc74 f   mfc140:mfc140.dll
 0001:0001cc7a       ?OnChildNotify@CButton@@MEAAHI_K_JPEA_J@Z 000000018001dc7a f   mfc140:mfc140.dll
 0001:0001cc80       ?GetRuntimeClass@CButton@@UEBAPEAUCRuntimeClass@@XZ 000000018001dc80 f   mfc140:mfc140.dll
 0001:0001cc86       ?GetRuntimeClass@CWinApp@@UEBAPEAUCRuntimeClass@@XZ 000000018001dc86 f   mfc140:mfc140.dll
 0001:0001cc8c       ?OnFinalRelease@CCmdTarget@@UEAAXXZ 000000018001dc8c f   mfc140:mfc140.dll
 0001:0001cc92       ?GetMessageMap@CWinApp@@MEBAPEBUAFX_MSGMAP@@XZ 000000018001dc92 f   mfc140:mfc140.dll
 0001:0001cc98       ?GetInterfaceMap@CCmdTarget@@MEBAPEBUAFX_INTERFACEMAP@@XZ 000000018001dc98 f   mfc140:mfc140.dll
 0001:0001cc9e       ?Run@CWinApp@@UEAAHXZ      000000018001dc9e f   mfc140:mfc140.dll
 0001:0001cca4       ?PreTranslateMessage@CWinThread@@UEAAHPEAUtagMSG@@@Z 000000018001dca4 f   mfc140:mfc140.dll
 0001:0001ccaa       ?PumpMessage@CWinThread@@UEAAHXZ 000000018001dcaa f   mfc140:mfc140.dll
 0001:0001ccb0       ?OnIdle@CWinApp@@UEAAHJ@Z  000000018001dcb0 f   mfc140:mfc140.dll
 0001:0001ccb6       ?IsIdleMessage@CWinThread@@UEAAHPEAUtagMSG@@@Z 000000018001dcb6 f   mfc140:mfc140.dll
 0001:0001ccbc       ?ProcessWndProcException@CWinApp@@UEAA_JPEAVCException@@PEBUtagMSG@@@Z 000000018001dcbc f   mfc140:mfc140.dll
 0001:0001ccc2       ?ProcessMessageFilter@CWinThread@@UEAAHHPEAUtagMSG@@@Z 000000018001dcc2 f   mfc140:mfc140.dll
 0001:0001ccc8       ?GetMainWnd@CWinThread@@UEAAPEAVCWnd@@XZ 000000018001dcc8 f   mfc140:mfc140.dll
 0001:0001ccce       ?Delete@CWinThread@@UEAAXXZ 000000018001dcce f   mfc140:mfc140.dll
 0001:0001ccd4       ?GetProfileIntA@CWinApp@@UEAAIPEBD0H@Z 000000018001dcd4 f   mfc140:mfc140.dll
 0001:0001ccda       ?WriteProfileInt@CWinApp@@UEAAHPEBD0H@Z 000000018001dcda f   mfc140:mfc140.dll
 0001:0001cce0       ?GetProfileStringA@CWinApp@@UEAA?AV?$CStringT@DV?$StrTraitMFC_DLL@DV?$ChTraitsCRT@D@ATL@@@@@ATL@@PEBD00@Z 000000018001dce0 f   mfc140:mfc140.dll
 0001:0001cce6       ?WriteProfileStringA@CWinApp@@UEAAHPEBD00@Z 000000018001dce6 f   mfc140:mfc140.dll
 0001:0001ccec       ?GetProfileBinary@CWinApp@@UEAAHPEBD0PEAPEAEPEAI@Z 000000018001dcec f   mfc140:mfc140.dll
 0001:0001ccf2       ?WriteProfileBinary@CWinApp@@UEAAHPEBD0PEAEI@Z 000000018001dcf2 f   mfc140:mfc140.dll
 0001:0001ccf8       ?InitLibId@CWinApp@@UEAAXXZ 000000018001dcf8 f   mfc140:mfc140.dll
 0001:0001ccfe       ?Register@CWinApp@@UEAAHXZ 000000018001dcfe f   mfc140:mfc140.dll
 0001:0001cd04       ?Unregister@CWinApp@@UEAAHXZ 000000018001dd04 f   mfc140:mfc140.dll
 0001:0001cd0a       ?OpenDocumentFile@CWinApp@@UEAAPEAVCDocument@@PEBDH@Z 000000018001dd0a f   mfc140:mfc140.dll
 0001:0001cd10       ?OpenDocumentFile@CWinApp@@UEAAPEAVCDocument@@PEBD@Z 000000018001dd10 f   mfc140:mfc140.dll
 0001:0001cd16       ?AddToRecentFileList@CWinApp@@UEAAXPEBD@Z 000000018001dd16 f   mfc140:mfc140.dll
 0001:0001cd1c       ?InitApplication@CWinApp@@UEAAHXZ 000000018001dd1c f   mfc140:mfc140.dll
 0001:0001cd22       ?SaveAllModified@CWinApp@@UEAAHXZ 000000018001dd22 f   mfc140:mfc140.dll
 0001:0001cd28       ?DoMessageBox@CWinApp@@UEAAHPEBDII@Z 000000018001dd28 f   mfc140:mfc140.dll
 0001:0001cd2e       ?DoWaitCursor@CWinApp@@UEAAXH@Z 000000018001dd2e f   mfc140:mfc140.dll
 0001:0001cd34       ?OnDDECommand@CWinApp@@UEAAHPEAD@Z 000000018001dd34 f   mfc140:mfc140.dll
 0001:0001cd3a       ?WinHelpA@CWinApp@@UEAAX_KI@Z 000000018001dd3a f   mfc140:mfc140.dll
 0001:0001cd40       ?HtmlHelpA@CWinApp@@UEAAX_KI@Z 000000018001dd40 f   mfc140:mfc140.dll
 0001:0001cd46       ?WinHelpInternal@CWinApp@@UEAAX_KI@Z 000000018001dd46 f   mfc140:mfc140.dll
 0001:0001cd4c       ?RegisterWithRestartManager@CWinApp@@UEAAJPEB_WKP6AKPEAX@Z1KK@Z 000000018001dd4c f   mfc140:mfc140.dll
 0001:0001cd52       ?RegisterWithRestartManager@CWinApp@@UEAAJHAEBV?$CStringT@DV?$StrTraitMFC_DLL@DV?$ChTraitsCRT@D@ATL@@@@@ATL@@@Z 000000018001dd52 f   mfc140:mfc140.dll
 0001:0001cd58       ?ApplicationRecoveryCallback@CWinApp@@UEAAKPEAX@Z 000000018001dd58 f   mfc140:mfc140.dll
 0001:0001cd5e       ?GetDataRecoveryHandler@CWinApp@@UEAAPEAVCDataRecoveryHandler@@XZ 000000018001dd5e f   mfc140:mfc140.dll
 0001:0001cd64       ?IsTaskbarInteractionEnabled@CWinApp@@UEAAHXZ 000000018001dd64 f   mfc140:mfc140.dll
 0001:0001cd6a       ?RestartInstance@CWinApp@@UEAAHXZ 000000018001dd6a f   mfc140:mfc140.dll
 0001:0001cd70       ?LoadAppLangResourceDLL@CWinApp@@UEAAPEAUHINSTANCE__@@XZ 000000018001dd70 f   mfc140:mfc140.dll
 0001:0001cd76       ?LoadSysPolicies@CWinApp@@UEAAHXZ 000000018001dd76 f   mfc140:mfc140.dll
 0001:0001cd7c       ?MeasureItem@CMenu@@UEAAXPEAUtagMEASUREITEMSTRUCT@@@Z 000000018001dd7c f   mfc140:mfc140.dll
 0001:0001cd82       ?DrawItem@CMenu@@UEAAXPEAUtagDRAWITEMSTRUCT@@@Z 000000018001dd82 f   mfc140:mfc140.dll
 0001:0001cd88       ?GetRuntimeClass@CMenu@@UEBAPEAUCRuntimeClass@@XZ 000000018001dd88 f   mfc140:mfc140.dll
 0001:0001cd8e       ?GetRuntimeClass@CObject@@UEBAPEAUCRuntimeClass@@XZ 000000018001dd8e f   mfc140:mfc140.dll
 0001:0001cd94       RawDllMain                 000000018001dd94 f   mfcs140:dllmodul.obj
 0001:0001cdf0       ??_G_AFX_DLL_MODULE_STATE@@UEAAPEAXI@Z 000000018001ddf0 f i mfcs140:dllmodul.obj
 0001:0001cdf0       ??_E_AFX_DLL_MODULE_STATE@@UEAAPEAXI@Z 000000018001ddf0 f i mfcs140:dllmodul.obj
 0001:0001ce34       ?AfxWndProcDllStatic@@YA_JPEAUHWND__@@I_K_J@Z 000000018001de34 f   mfcs140:dllmodul.obj
 0001:0001cea8       DllMain                    000000018001dea8 f   mfcs140:dllmodul.obj
 0001:0001cef0       InternalDllMain            000000018001def0 f   mfcs140:dllmodul.obj
 0001:0001d09c       ?AfxGetApp@@YAPEAVCWinApp@@XZ 000000018001e09c f i mfcs140:dllmodulx.obj
 0001:0001d0c0       __security_check_cookie    000000018001e0c0 f   msvcrt:_amdsecgs_.obj
 0001:0001d0e4       __raise_securityfailure    000000018001e0e4 f   msvcrt:gs_report.obj
 0001:0001d118       __report_gsfailure         000000018001e118 f   msvcrt:gs_report.obj
 0001:0001d260       ??_Etype_info@@UEAAPEAXI@Z 000000018001e260 f i msvcrt:std_type_info_static.obj
 0001:0001d260       ??_Gtype_info@@UEAAPEAXI@Z 000000018001e260 f i msvcrt:std_type_info_static.obj
 0001:0001d400       _Init_thread_footer        000000018001e400 f   msvcrt:thread_safe_statics.obj
 0001:0001d460       _Init_thread_header        000000018001e460 f   msvcrt:thread_safe_statics.obj
 0001:0001d4c8       _Init_thread_notify        000000018001e4c8 f   msvcrt:thread_safe_statics.obj
 0001:0001d524       _Init_thread_wait          000000018001e524 f   msvcrt:thread_safe_statics.obj
 0001:0001d5bc       ??3@YAXPEAX_K@Z            000000018001e5bc f   msvcrt:delete_scalar_size.obj
 0001:0001d5c4       __scrt_acquire_startup_lock 000000018001e5c4 f   msvcrt:utility.obj
 0001:0001d600       __scrt_dllmain_after_initialize_c 000000018001e600 f   msvcrt:utility.obj
 0001:0001d634       __scrt_dllmain_before_initialize_c 000000018001e634 f   msvcrt:utility.obj
 0001:0001d64c       __scrt_dllmain_crt_thread_attach 000000018001e64c f   msvcrt:utility.obj
 0001:0001d674       __scrt_dllmain_crt_thread_detach 000000018001e674 f   msvcrt:utility.obj
 0001:0001d68c       __scrt_dllmain_exception_filter 000000018001e68c f   msvcrt:utility.obj
 0001:0001d6f0       __scrt_dllmain_uninitialize_c 000000018001e6f0 f   msvcrt:utility.obj
 0001:0001d720       __scrt_dllmain_uninitialize_critical 000000018001e720 f   msvcrt:utility.obj
 0001:0001d734       __scrt_initialize_crt      000000018001e734 f   msvcrt:utility.obj
 0001:0001d780       __scrt_initialize_onexit_tables 000000018001e780 f   msvcrt:utility.obj
 0001:0001d860       __scrt_is_nonwritable_in_current_image 000000018001e860 f   msvcrt:utility.obj
 0001:0001d8fc       __scrt_release_startup_lock 000000018001e8fc f   msvcrt:utility.obj
 0001:0001d920       __scrt_uninitialize_crt    000000018001e920 f   msvcrt:utility.obj
 0001:0001d94c       _onexit                    000000018001e94c f   msvcrt:utility.obj
 0001:0001d99c       atexit                     000000018001e99c f   msvcrt:utility.obj
 0001:0001dcf0       _DllMainCRTStartup         000000018001ecf0 f   msvcrt:dll_dllmain.obj
 0001:0001dd30       _guard_check_icall         000000018001ed30 f i msvcrt:checkcfg.obj
 0001:0001dd38       __scrt_fastfail            000000018001ed38 f   msvcrt:utility_desktop.obj
 0001:0001de80       __isa_available_init       000000018001ee80 f   msvcrt:_cpu_disp_.obj
 0001:0001e03c       __scrt_is_ucrt_dll_in_use  000000018001f03c f   msvcrt:ucrt_detection.obj
 0001:0001e048       __security_init_cookie     000000018001f048 f   msvcrt:gs_support.obj
 0001:0001e0f4       ?__scrt_initialize_type_info@@YAXXZ 000000018001f0f4 f   msvcrt:tncleanup.obj
 0001:0001e104       ?__scrt_uninitialize_type_info@@YAXXZ 000000018001f104 f   msvcrt:tncleanup.obj
 0001:0001e110       __local_stdio_printf_options 000000018001f110 f i msvcrt:default_local_stdio_options.obj
 0001:0001e118       __local_stdio_scanf_options 000000018001f118 f i msvcrt:default_local_stdio_options.obj
 0001:0001e120       __scrt_initialize_default_local_stdio_options 000000018001f120 f   msvcrt:default_local_stdio_options.obj
 0001:0001e13c       __scrt_get_dyn_tls_init_callback 000000018001f13c f   msvcrt:dyn_tls_init.obj
 0001:0001e144       _RTC_Initialize            000000018001f144 f   msvcrt:_initsect_.obj
 0001:0001e190       _RTC_Terminate             000000018001f190 f   msvcrt:_initsect_.obj
 0001:0001e1dc       __GSHandlerCheck           000000018001f1dc f   msvcrt:_gshandler_.obj
 0001:0001e1fc       __GSHandlerCheckCommon     000000018001f1fc f   msvcrt:_gshandler_.obj
 0001:0001e260       IsProcessorFeaturePresent  000000018001f260 f   kernel32:KERNEL32.dll
 0001:0001e268       ??0CAtlBaseModule@ATL@@QEAA@XZ 000000018001f268 f   atls:atlbase.obj
 0001:0001e310       ??1CAtlBaseModule@ATL@@QEAA@XZ 000000018001f310 f   atls:atlbase.obj
 0001:0001e344       ??_G_Fac_node@std@@QEAAPEAXI@Z 000000018001f344 f i msvcprt:locale0_implib.obj
 0001:0001e3d0       ?_Facet_Register@std@@YAXPEAV_Facet_base@1@@Z 000000018001f3d0 f   msvcprt:locale0_implib.obj
 0001:0001e408       ?xsputn@?$basic_streambuf@DU?$char_traits@D@std@@@std@@MEAA_JPEBD_J@Z 000000018001f408 f   msvcprt:MSVCP140.dll
 0001:0001e40e       ?showmanyc@?$basic_streambuf@DU?$char_traits@D@std@@@std@@MEAA_JXZ 000000018001f40e f   msvcprt:MSVCP140.dll
 0001:0001e414       ?xsgetn@?$basic_streambuf@DU?$char_traits@D@std@@@std@@MEAA_JPEAD_J@Z 000000018001f414 f   msvcprt:MSVCP140.dll
 0001:0001e41a       __CxxFrameHandler3         000000018001f41a f   vcruntime:VCRUNTIME140.dll
 0001:0001e420       __std_terminate            000000018001f420 f   vcruntime:VCRUNTIME140.dll
 0001:0001e426       _purecall                  000000018001f426 f   vcruntime:VCRUNTIME140.dll
 0001:0001e42c       memset                     000000018001f42c f   vcruntime:VCRUNTIME140.dll
 0001:0001e432       __C_specific_handler       000000018001f432 f   vcruntime:VCRUNTIME140.dll
 0001:0001e438       __vcrt_InitializeCriticalSectionEx 000000018001f438 f   vcruntime:VCRUNTIME140.dll
 0001:0001e43e       __std_type_info_destroy_list 000000018001f43e f   vcruntime:VCRUNTIME140.dll
 0001:0001e444       free                       000000018001f444 f   ucrt:api-ms-win-crt-heap-l1-1-0.dll
 0001:0001e44a       _seh_filter_dll            000000018001f44a f   ucrt:api-ms-win-crt-runtime-l1-1-0.dll
 0001:0001e450       _configure_narrow_argv     000000018001f450 f   ucrt:api-ms-win-crt-runtime-l1-1-0.dll
 0001:0001e456       _initialize_narrow_environment 000000018001f456 f   ucrt:api-ms-win-crt-runtime-l1-1-0.dll
 0001:0001e45c       _initialize_onexit_table   000000018001f45c f   ucrt:api-ms-win-crt-runtime-l1-1-0.dll
 0001:0001e462       _register_onexit_function  000000018001f462 f   ucrt:api-ms-win-crt-runtime-l1-1-0.dll
 0001:0001e468       _execute_onexit_table      000000018001f468 f   ucrt:api-ms-win-crt-runtime-l1-1-0.dll
 0001:0001e46e       _crt_atexit                000000018001f46e f   ucrt:api-ms-win-crt-runtime-l1-1-0.dll
 0001:0001e474       _cexit                     000000018001f474 f   ucrt:api-ms-win-crt-runtime-l1-1-0.dll
 0001:0001e47a       _initterm                  000000018001f47a f   ucrt:api-ms-win-crt-runtime-l1-1-0.dll
 0001:0001e480       _initterm_e                000000018001f480 f   ucrt:api-ms-win-crt-runtime-l1-1-0.dll
 0001:0001e486       ?Delete@CException@@QEAAXXZ 000000018001f486 f   mfc140:mfc140.dll
 0001:0001e48c       ??3CNoTrackObject@@SAXPEAX@Z 000000018001f48c f   mfc140:mfc140.dll
 0001:0001e492       ??0AFX_MODULE_STATE@@QEAA@HP6A_JPEAUHWND__@@I_K_J@ZKH@Z 000000018001f492 f   mfc140:mfc140.dll
 0001:0001e498       ??1AFX_MODULE_STATE@@UEAA@XZ 000000018001f498 f   mfc140:mfc140.dll
 0001:0001e49e       ?AfxSetModuleState@@YAPEAVAFX_MODULE_STATE@@PEAV1@@Z 000000018001f49e f   mfc140:mfc140.dll
 0001:0001e4a4       ?AfxGetModuleState@@YAPEAVAFX_MODULE_STATE@@XZ 000000018001f4a4 f   mfc140:mfc140.dll
 0001:0001e4aa       ??0AFX_MAINTAIN_STATE2@@QEAA@PEAVAFX_MODULE_STATE@@@Z 000000018001f4aa f   mfc140:mfc140.dll
 0001:0001e4b0       ??1AFX_MAINTAIN_STATE2@@QEAA@XZ 000000018001f4b0 f   mfc140:mfc140.dll
 0001:0001e4b6       ?AfxWinInit@@YAHPEAUHINSTANCE__@@0PEADH@Z 000000018001f4b6 f   mfc140:mfc140.dll
 0001:0001e4bc       ?AfxWndProc@@YA_JPEAUHWND__@@I_K_J@Z 000000018001f4bc f   mfc140:mfc140.dll
 0001:0001e4c2       ?AfxTermThread@@YAXPEAUHINSTANCE__@@@Z 000000018001f4c2 f   mfc140:mfc140.dll
 0001:0001e4c8       ?AfxWinTerm@@YAXXZ         000000018001f4c8 f   mfc140:mfc140.dll
 0001:0001e4ce       ??0CDynLinkLibrary@@QEAA@AEAUAFX_EXTENSION_MODULE@@H@Z 000000018001f4ce f   mfc140:mfc140.dll
 0001:0001e4d4       ?AfxInitExtensionModule@@YAHAEAUAFX_EXTENSION_MODULE@@PEAUHINSTANCE__@@@Z 000000018001f4d4 f   mfc140:mfc140.dll
 0001:0001e4da       ?AfxTermExtensionModule@@YAXAEAUAFX_EXTENSION_MODULE@@H@Z 000000018001f4da f   mfc140:mfc140.dll
 0001:0001e4e0       ?AfxCoreInitModule@@YAXXZ  000000018001f4e0 f   mfc140:mfc140.dll
 0001:0001e4e6       ?AfxLockTempMaps@@YAXXZ    000000018001f4e6 f   mfc140:mfc140.dll
 0001:0001e4ec       ?AfxUnlockTempMaps@@YAHH@Z 000000018001f4ec f   mfc140:mfc140.dll
 0001:0001e4f4       _RawDllMainProxy           000000018001f4f4 f   mfcs140:rawdllmainproxy.obj
 0001:0001e5fc       __GSHandlerCheck_EH        000000018001f5fc f   msvcrt:gshandlereh.obj
 0001:0001e67c       _CxxThrowException         000000018001f67c f   vcruntime:VCRUNTIME140.dll
 0001:0001e682       memcmp                     000000018001f682 f   vcruntime:VCRUNTIME140.dll
 0001:0001e688       memcpy                     000000018001f688 f   vcruntime:VCRUNTIME140.dll
 0001:0001e68e       strcmp                     000000018001f68e f   ucrt:api-ms-win-crt-string-l1-1-0.dll
 0001:0001e6b0       _guard_dispatch_icall_nop  000000018001f6b0 f   msvcrt:_guard_dispatch_.obj
 0002:00000000       __imp_LeaveCriticalSection 0000000180021000     kernel32:KERNEL32.dll
 0002:00000008       __imp_EnterCriticalSection 0000000180021008     kernel32:KERNEL32.dll
 0002:00000010       __imp_DeleteCriticalSection 0000000180021010     kernel32:KERNEL32.dll
 0002:00000018       __imp_InitializeCriticalSectionEx 0000000180021018     kernel32:KERNEL32.dll
 0002:00000020       __imp_GetLastError         0000000180021020     kernel32:KERNEL32.dll
 0002:00000028       __imp_LocalAlloc           0000000180021028     kernel32:KERNEL32.dll
 0002:00000030       __imp_LocalFree            0000000180021030     kernel32:KERNEL32.dll
 0002:00000038       __imp_RtlCaptureContext    0000000180021038     kernel32:KERNEL32.dll
 0002:00000040       __imp_RtlLookupFunctionEntry 0000000180021040     kernel32:KERNEL32.dll
 0002:00000048       __imp_RtlVirtualUnwind     0000000180021048     kernel32:KERNEL32.dll
 0002:00000050       __imp_UnhandledExceptionFilter 0000000180021050     kernel32:KERNEL32.dll
 0002:00000058       __imp_SetUnhandledExceptionFilter 0000000180021058     kernel32:KERNEL32.dll
 0002:00000060       __imp_GetCurrentProcess    0000000180021060     kernel32:KERNEL32.dll
 0002:00000068       __imp_TerminateProcess     0000000180021068     kernel32:KERNEL32.dll
 0002:00000070       __imp_IsProcessorFeaturePresent 0000000180021070     kernel32:KERNEL32.dll
 0002:00000078       __imp_CloseHandle          0000000180021078     kernel32:KERNEL32.dll
 0002:00000080       __imp_SetEvent             0000000180021080     kernel32:KERNEL32.dll
 0002:00000088       __imp_ResetEvent           0000000180021088     kernel32:KERNEL32.dll
 0002:00000090       __imp_WaitForSingleObjectEx 0000000180021090     kernel32:KERNEL32.dll
 0002:00000098       __imp_CreateEventW         0000000180021098     kernel32:KERNEL32.dll
 0002:000000a0       __imp_GetModuleHandleW     00000001800210a0     kernel32:KERNEL32.dll
 0002:000000a8       __imp_OutputDebugStringW   00000001800210a8     kernel32:KERNEL32.dll
 0002:000000b0       __imp_QueryPerformanceCounter 00000001800210b0     kernel32:KERNEL32.dll
 0002:000000b8       __imp_GetCurrentProcessId  00000001800210b8     kernel32:KERNEL32.dll
 0002:000000c0       __imp_GetCurrentThreadId   00000001800210c0     kernel32:KERNEL32.dll
 0002:000000c8       __imp_GetSystemTimeAsFileTime 00000001800210c8     kernel32:KERNEL32.dll
 0002:000000d0       __imp_InitializeSListHead  00000001800210d0     kernel32:KERNEL32.dll
 0002:000000d8       __imp_GetTickCount         00000001800210d8     kernel32:KERNEL32.dll
 0002:000000e0       __imp_IsDebuggerPresent    00000001800210e0     kernel32:KERNEL32.dll
 0002:000000e8       __imp_GetProcAddress       00000001800210e8     kernel32:KERNEL32.dll
 0002:000000f0       \177KERNEL32_NULL_THUNK_DATA 00000001800210f0     kernel32:KERNEL32.dll
 0002:000000f8       __imp_??0?$basic_ios@DU?$char_traits@D@std@@@std@@IEAA@XZ 00000001800210f8     msvcprt:MSVCP140.dll
 0002:00000100       __imp_?setstate@?$basic_ios@DU?$char_traits@D@std@@@std@@QEAAXH_N@Z 0000000180021100     msvcprt:MSVCP140.dll
 0002:00000108       __imp_?unshift@?$codecvt@DDU_Mbstatet@@@std@@QEBAHAEAU_Mbstatet@@PEAD1AEAPEAD@Z 0000000180021108     msvcprt:MSVCP140.dll
 0002:00000110       __imp_?_Osfx@?$basic_ostream@DU?$char_traits@D@std@@@std@@QEAAXXZ 0000000180021110     msvcprt:MSVCP140.dll
 0002:00000118       __imp_??0?$basic_streambuf@DU?$char_traits@D@std@@@std@@IEAA@XZ 0000000180021118     msvcprt:MSVCP140.dll
 0002:00000120       __imp_?clear@?$basic_ios@DU?$char_traits@D@std@@@std@@QEAAXH_N@Z 0000000180021120     msvcprt:MSVCP140.dll
 0002:00000128       __imp_?getloc@?$basic_streambuf@DU?$char_traits@D@std@@@std@@QEBA?AVlocale@2@XZ 0000000180021128     msvcprt:MSVCP140.dll
 0002:00000130       __imp_?widen@?$basic_ios@DU?$char_traits@D@std@@@std@@QEBADD@Z 0000000180021130     msvcprt:MSVCP140.dll
 0002:00000138       __imp_?_Getcat@?$codecvt@DDU_Mbstatet@@@std@@SA_KPEAPEBVfacet@locale@2@PEBV42@@Z 0000000180021138     msvcprt:MSVCP140.dll
 0002:00000140       __imp_?put@?$basic_ostream@DU?$char_traits@D@std@@@std@@QEAAAEAV12@D@Z 0000000180021140     msvcprt:MSVCP140.dll
 0002:00000148       __imp_?sputn@?$basic_streambuf@DU?$char_traits@D@std@@@std@@QEAA_JPEBD_J@Z 0000000180021148     msvcprt:MSVCP140.dll
 0002:00000150       __imp_?snextc@?$basic_streambuf@DU?$char_traits@D@std@@@std@@QEAAHXZ 0000000180021150     msvcprt:MSVCP140.dll
 0002:00000158       __imp_?_Ipfx@?$basic_istream@DU?$char_traits@D@std@@@std@@QEAA_N_N@Z 0000000180021158     msvcprt:MSVCP140.dll
 0002:00000160       __imp_?xsgetn@?$basic_streambuf@DU?$char_traits@D@std@@@std@@MEAA_JPEAD_J@Z 0000000180021160     msvcprt:MSVCP140.dll
 0002:00000168       __imp_?showmanyc@?$basic_streambuf@DU?$char_traits@D@std@@@std@@MEAA_JXZ 0000000180021168     msvcprt:MSVCP140.dll
 0002:00000170       __imp_?sbumpc@?$basic_streambuf@DU?$char_traits@D@std@@@std@@QEAAHXZ 0000000180021170     msvcprt:MSVCP140.dll
 0002:00000178       __imp_?sgetc@?$basic_streambuf@DU?$char_traits@D@std@@@std@@QEAAHXZ 0000000180021178     msvcprt:MSVCP140.dll
 0002:00000180       __imp_?xsputn@?$basic_streambuf@DU?$char_traits@D@std@@@std@@MEAA_JPEBD_J@Z 0000000180021180     msvcprt:MSVCP140.dll
 0002:00000188       __imp_?id@?$codecvt@DDU_Mbstatet@@@std@@2V0locale@2@A 0000000180021188     msvcprt:MSVCP140.dll
 0002:00000190       __imp_?sputc@?$basic_streambuf@DU?$char_traits@D@std@@@std@@QEAAHD@Z 0000000180021190     msvcprt:MSVCP140.dll
 0002:00000198       __imp_??Bid@locale@std@@QEAA_KXZ 0000000180021198     msvcprt:MSVCP140.dll
 0002:000001a0       __imp_?_Getgloballocale@locale@std@@CAPEAV_Locimp@12@XZ 00000001800211a0     msvcprt:MSVCP140.dll
 0002:000001a8       __imp_??0_Lockit@std@@QEAA@H@Z 00000001800211a8     msvcprt:MSVCP140.dll
 0002:000001b0       __imp_??1_Lockit@std@@QEAA@XZ 00000001800211b0     msvcprt:MSVCP140.dll
 0002:000001b8       __imp_?_Fiopen@std@@YAPEAU_iobuf@@PEBDHH@Z 00000001800211b8     msvcprt:MSVCP140.dll
 0002:000001c0       __imp_?always_noconv@codecvt_base@std@@QEBA_NXZ 00000001800211c0     msvcprt:MSVCP140.dll
 0002:000001c8       __imp_?uncaught_exception@std@@YA_NXZ 00000001800211c8     msvcprt:MSVCP140.dll
 0002:000001d0       __imp_??1?$basic_streambuf@DU?$char_traits@D@std@@@std@@UEAA@XZ 00000001800211d0     msvcprt:MSVCP140.dll
 0002:000001d8       __imp_?_BADOFF@std@@3_JB   00000001800211d8     msvcprt:MSVCP140.dll
 0002:000001e0       __imp_??1?$basic_istream@DU?$char_traits@D@std@@@std@@UEAA@XZ 00000001800211e0     msvcprt:MSVCP140.dll
 0002:000001e8       __imp_??1?$basic_ostream@DU?$char_traits@D@std@@@std@@UEAA@XZ 00000001800211e8     msvcprt:MSVCP140.dll
 0002:000001f0       __imp_?_Xinvalid_argument@std@@YAXPEBD@Z 00000001800211f0     msvcprt:MSVCP140.dll
 0002:000001f8       __imp_??1?$basic_ios@DU?$char_traits@D@std@@@std@@UEAA@XZ 00000001800211f8     msvcprt:MSVCP140.dll
 0002:00000200       __imp_?_Xout_of_range@std@@YAXPEBD@Z 0000000180021200     msvcprt:MSVCP140.dll
 0002:00000208       __imp_?_Xlength_error@std@@YAXPEBD@Z 0000000180021208     msvcprt:MSVCP140.dll
 0002:00000210       __imp_?_Xbad_alloc@std@@YAXXZ 0000000180021210     msvcprt:MSVCP140.dll
 0002:00000218       __imp_??0?$basic_istream@DU?$char_traits@D@std@@@std@@QEAA@PEAV?$basic_streambuf@DU?$char_traits@D@std@@@1@_N@Z 0000000180021218     msvcprt:MSVCP140.dll
 0002:00000220       __imp_??0?$basic_ostream@DU?$char_traits@D@std@@@std@@QEAA@PEAV?$basic_streambuf@DU?$char_traits@D@std@@@1@_N@Z 0000000180021220     msvcprt:MSVCP140.dll
 0002:00000228       __imp_?in@?$codecvt@DDU_Mbstatet@@@std@@QEBAHAEAU_Mbstatet@@PEBD1AEAPEBDPEAD3AEAPEAD@Z 0000000180021228     msvcprt:MSVCP140.dll
 0002:00000230       __imp_?out@?$codecvt@DDU_Mbstatet@@@std@@QEBAHAEAU_Mbstatet@@PEBD1AEAPEBDPEAD3AEAPEAD@Z 0000000180021230     msvcprt:MSVCP140.dll
 0002:00000238       __imp_??6?$basic_ostream@DU?$char_traits@D@std@@@std@@QEAAAEAV01@P6AAEAV01@AEAV01@@Z@Z 0000000180021238     msvcprt:MSVCP140.dll
 0002:00000240       __imp_?flush@?$basic_ostream@DU?$char_traits@D@std@@@std@@QEAAAEAV12@XZ 0000000180021240     msvcprt:MSVCP140.dll
 0002:00000248       __imp_?_Init@?$basic_streambuf@DU?$char_traits@D@std@@@std@@IEAAXXZ 0000000180021248     msvcprt:MSVCP140.dll
 0002:00000250       \177MSVCP140_NULL_THUNK_DATA 0000000180021250     msvcprt:MSVCP140.dll
 0002:00000258       __imp_??1Observer@@UEAA@XZ 0000000180021258     Observer:Observer.dll
 0002:00000260       __imp_?RemoveObserver@Observable@@QEBA_NPEAVObserver@@@Z 0000000180021260     Observer:Observer.dll
 0002:00000268       __imp_?AddObserver@Observable@@QEBA_NPEAVObserver@@@Z 0000000180021268     Observer:Observer.dll
 0002:00000270       __imp_O_GetModuleVersionNum 0000000180021270     Observer:Observer.dll
 0002:00000278       __imp_??0Observer@@IEAA@XZ 0000000180021278     Observer:Observer.dll
 0002:00000280       \177Observer_NULL_THUNK_DATA 0000000180021280     Observer:Observer.dll
 0002:00000288       __imp_TD_GetNewPositionObservable 0000000180021288     TakionData:TakionData.dll
 0002:00000290       __imp_TD_GetNewEquityObservable 0000000180021290     TakionData:TakionData.dll
 0002:00000298       __imp_TD_IsMarketSorterLoaded 0000000180021298     TakionData:TakionData.dll
 0002:000002a0       __imp_TD_IsMarketSorterConnected 00000001800212a0     TakionData:TakionData.dll
 0002:000002a8       __imp_TD_FindSortableEquityByNumericSymbolWithNoIncrementUnsubscribe 00000001800212a8     TakionData:TakionData.dll
 0002:000002b0       __imp_TD_UnlockEquityStorage 00000001800212b0     TakionData:TakionData.dll
 0002:000002b8       __imp_TD_GetNextEquity     00000001800212b8     TakionData:TakionData.dll
 0002:000002c0       __imp_TD_LockEquityStorage 00000001800212c0     TakionData:TakionData.dll
 0002:000002c8       __imp_TD_CreateEquityIterator 00000001800212c8     TakionData:TakionData.dll
 0002:000002d0       __imp_TD_GetCurrentMinute  00000001800212d0     TakionData:TakionData.dll
 0002:000002d8       __imp_TD_ReleaseStock      00000001800212d8     TakionData:TakionData.dll
 0002:000002e0       __imp_TD_ObtainStock       00000001800212e0     TakionData:TakionData.dll
 0002:000002e8       __imp_TD_GetModuleVersionNum 00000001800212e8     TakionData:TakionData.dll
 0002:000002f0       __imp_TD_GetExecutorConnection 00000001800212f0     TakionData:TakionData.dll
 0002:000002f8       __imp_TD_GetCurrentAccount 00000001800212f8     TakionData:TakionData.dll
 0002:00000300       __imp_TD_UnlockAccountStorage 0000000180021300     TakionData:TakionData.dll
 0002:00000308       __imp_TD_GetNextAccount    0000000180021308     TakionData:TakionData.dll
 0002:00000310       __imp_TD_LockAccountStorage 0000000180021310     TakionData:TakionData.dll
 0002:00000318       __imp_TD_CreateAccountIterator 0000000180021318     TakionData:TakionData.dll
 0002:00000320       __imp_TD_GetNewAccountObservable 0000000180021320     TakionData:TakionData.dll
 0002:00000328       __imp_TD_GetAdminObservable 0000000180021328     TakionData:TakionData.dll
 0002:00000330       __imp_TD_IsExecutorConnected 0000000180021330     TakionData:TakionData.dll
 0002:00000338       __imp_TD_FindSortableEquityByNumericSymbol 0000000180021338     TakionData:TakionData.dll
 0002:00000340       \177TakionData_NULL_THUNK_DATA 0000000180021340     TakionData:TakionData.dll
 0002:00000348       __imp_?ActiveSymbolChanged@RowWindowSortable@@MEAA_NXZ 0000000180021348     TakionGui:TakionGui.dll
 0002:00000350       __imp_?ActiveSymbolAboutToChange@RowWindowSortable@@MEAAXAEB_K0@Z 0000000180021350     TakionGui:TakionGui.dll
 0002:00000358       __imp_?Repopulate@RowWindowSortable@@MEAAXXZ 0000000180021358     TakionGui:TakionGui.dll
 0002:00000360       __imp_?FindRowActiveSymbol@RowWindowSortable@@UEBAPEAVRowSortable@@AEB_K0@Z 0000000180021360     TakionGui:TakionGui.dll
 0002:00000368       __imp_?isRowActiveSymbol@RowWindowSortable@@UEBA_NPEBVRowSortable@@@Z 0000000180021368     TakionGui:TakionGui.dll
 0002:00000370       __imp_?ExistingRowBelongs@RowWindowSortable@@UEBAEPEBVRowSortable@@@Z 0000000180021370     TakionGui:TakionGui.dll
 0002:00000378       __imp_?RowFiltersIn@RowWindowSortable@@UEBA_NPEBVRowSortable@@@Z 0000000180021378     TakionGui:TakionGui.dll
 0002:00000380       __imp_?ObjectPotentiallyBelongs@RowWindowSortable@@UEBA_NPEBX@Z 0000000180021380     TakionGui:TakionGui.dll
 0002:00000388       __imp_?AddDoubleClickActionMenuItems@RowWindow@@MEAAXAEAVCMenu@@@Z 0000000180021388     TakionGui:TakionGui.dll
 0002:00000390       __imp_?GetSelectedSecurity@SecurityChartRow@@UEBAPEBVSecurity@@XZ 0000000180021390     TakionGui:TakionGui.dll
 0002:00000398       __imp_?PreCompare@RowSortable@@UEBAFAEBV1@@Z 0000000180021398     TakionGui:TakionGui.dll
 0002:000003a0       __imp_?CompareFunctionAhead@RowSortable@@UEBA_NAEBV1@GAEAF@Z 00000001800213a0     TakionGui:TakionGui.dll
 0002:000003a8       __imp_?CompareFunction@RowSortable@@UEBA_NAEBV1@GAEAF@Z 00000001800213a8     TakionGui:TakionGui.dll
 0002:000003b0       __imp_?GetRowPosition@Row@@UEBAPEBVPositionData@@PEBVCPoint@@@Z 00000001800213b0     TakionGui:TakionGui.dll
 0002:000003b8       __imp_?GetRowNumericSymbol@Row@@UEBAAEB_KXZ 00000001800213b8     TakionGui:TakionGui.dll
 0002:000003c0       __imp_?isObjectValueZero@?$TypedNumericRowValue@VSignedPrice@@@@UEBA_NXZ 00000001800213c0     TakionGui:TakionGui.dll
 0002:000003c8       __imp_?isValueZero@?$TypedNumericRowValue@VSignedPrice@@@@UEBA_NXZ 00000001800213c8     TakionGui:TakionGui.dll
 0002:000003d0       __imp_?GetObjectValue@PositionSecurityCompactPriceRowValue@@UEBAAEBIXZ 00000001800213d0     TakionGui:TakionGui.dll
 0002:000003d8       __imp_??1PositionSecurityCompactPriceRowValue@@UEAA@XZ 00000001800213d8     TakionGui:TakionGui.dll
 0002:000003e0       __imp_?InitializeValue@PositionIntRowValueNull@@MEAAXXZ 00000001800213e0     TakionGui:TakionGui.dll
 0002:000003e8       __imp_?SetValue@PositionIntRowValueNull@@UEAA_NAEBH@Z 00000001800213e8     TakionGui:TakionGui.dll
 0002:000003f0       __imp_?GetObjectValue@PositionIntRowValueNull@@UEBAAEBHXZ 00000001800213f0     TakionGui:TakionGui.dll
 0002:000003f8       __imp_?SetPosition@PositionIntRowValue@@UEAAXPEBVPositionData@@@Z 00000001800213f8     TakionGui:TakionGui.dll
 0002:00000400       __imp_?isObjectValueEmpty@PositionIntRowValueNull@@UEBA_NXZ 0000000180021400     TakionGui:TakionGui.dll
 0002:00000408       __imp_?isValueEmpty@PositionIntRowValueNull@@UEBA_NXZ 0000000180021408     TakionGui:TakionGui.dll
 0002:00000410       __imp_?isValueChanged@PositionIntRowValueNull@@UEBA_NXZ 0000000180021410     TakionGui:TakionGui.dll
 0002:00000418       __imp_??1PositionIntRowValueNull@@UEAA@XZ 0000000180021418     TakionGui:TakionGui.dll
 0002:00000420       __imp_?InvalidateRowCellIfVisible@RowWindowSortable@@QEBAXPEAVRowSortable@@G@Z 0000000180021420     TakionGui:TakionGui.dll
 0002:00000428       __imp_?EraseRow@RowWindowSortable@@IEAA_KPEAVRowSortable@@@Z 0000000180021428     TakionGui:TakionGui.dll
 0002:00000430       __imp_?ColumnListCopyRowsToClipboard@RowWindow@@QEBAX_N0AEBV?$list@GV?$allocator@G@std@@@std@@D@Z 0000000180021430     TakionGui:TakionGui.dll
 0002:00000438       __imp_?ColumnListCopyRowsToString@RowWindow@@QEBAXAEAV?$basic_string@DU?$char_traits@D@std@@V?$allocator@D@2@@std@@_N1AEBV?$_List_const_iterator@V?$_List_val@U?$_List_simple_types@G@std@@@std@@@3@2D@Z 0000000180021438     TakionGui:TakionGui.dll
 0002:00000440       __imp_?FindColumn@Columns@@QEAA?AV?$_Tree_iterator@V?$_Tree_val@U?$_Tree_simple_types@U?$pair@$$CBV?$PointLocator@H@@PEAVColumn@@@std@@@std@@@std@@@std@@H@Z 0000000180021440     TakionGui:TakionGui.dll
 0002:00000448       __imp_?GetSelectedRow@RowWindow@@QEBAPEAVRow@@XZ 0000000180021448     TakionGui:TakionGui.dll
 0002:00000450       __imp_?RowBelongs@RowWindowSortable@@UEBAEPEBVRowSortable@@@Z 0000000180021450     TakionGui:TakionGui.dll
 0002:00000458       __imp_?AdjustRowValue@RowTotal@@QEAAXPEBVRow@@G@Z 0000000180021458     TakionGui:TakionGui.dll
 0002:00000460       __imp_?InvalidateCellIfVisible@Columns@@QEBAXAEAVCRect@@G@Z 0000000180021460     TakionGui:TakionGui.dll
 0002:00000468       __imp_?DefaultCompare@RowSortable@@UEBAFAEBV1@@Z 0000000180021468     TakionGui:TakionGui.dll
 0002:00000470       __imp_?isColumnSortAscending@Columns@@QEBA_NG@Z 0000000180021470     TakionGui:TakionGui.dll
 0002:00000478       __imp_?isSortAscending@Columns@@QEBA_NXZ 0000000180021478     TakionGui:TakionGui.dll
 0002:00000480       __imp_?GetPaintTextInfo@Row@@UEBA_NGAEAV?$basic_string@DU?$char_traits@D@std@@V?$allocator@D@2@@std@@AEAK@Z 0000000180021480     TakionGui:TakionGui.dll
 0002:00000488       __imp_?drawHorizontalJustification@Row@@1IA 0000000180021488     TakionGui:TakionGui.dll
 0002:00000490       __imp_??0PositionIntRowValueNull@@QEAA@AEBQEBVPositionData@@PEB_NP81@EBAAEBHXZ_N3@Z 0000000180021490     TakionGui:TakionGui.dll
 0002:00000498       __imp_??0PositionSecurityCompactPriceRowValue@@QEAA@AEBQEBVSecurity@@PEB_NPEBE1P81@EBAAEBIXZ_N4@Z 0000000180021498     TakionGui:TakionGui.dll
 0002:000004a0       __imp_TGUI_RemoveCommand   00000001800214a0     TakionGui:TakionGui.dll
 0002:000004a8       __imp_?UpdateColumnRect@RowWindowSortable@@UEAA_NHH@Z 00000001800214a8     TakionGui:TakionGui.dll
 0002:000004b0       __imp_?ScrollHorizontalThumbTrack@Columns@@MEAA_NAEAV?$_Tree_iterator@V?$_Tree_val@U?$_Tree_simple_types@U?$pair@$$CBV?$PointLocator@H@@PEAVColumn@@@std@@@std@@@std@@@std@@GG@Z 00000001800214b0     TakionGui:TakionGui.dll
 0002:000004b8       __imp_?ResizeColumn@RowWindowSortable@@UEAAHH@Z 00000001800214b8     TakionGui:TakionGui.dll
 0002:000004c0       __imp_?HasFullEntitlement@Columns@@MEBA_NXZ 00000001800214c0     TakionGui:TakionGui.dll
 0002:000004c8       __imp_?OnSetUseSecurityColors@Columns@@MEAAXXZ 00000001800214c8     TakionGui:TakionGui.dll
 0002:000004d0       __imp_?GetColumnHighlightColor@Columns@@UEBAKG@Z 00000001800214d0     TakionGui:TakionGui.dll
 0002:000004d8       __imp_?HasSecondarySecurityColors@Columns@@UEBA_NXZ 00000001800214d8     TakionGui:TakionGui.dll
 0002:000004e0       __imp_?isPlusMinusable@Columns@@UEBA_NXZ 00000001800214e0     TakionGui:TakionGui.dll
 0002:000004e8       __imp_?isSecondary@Columns@@UEBA_NXZ 00000001800214e8     TakionGui:TakionGui.dll
 0002:000004f0       __imp_?isShowPlusMinusColor@RowWindow@@UEBAAEB_N_N@Z 00000001800214f0     TakionGui:TakionGui.dll
 0002:000004f8       __imp_?SetShowPlusMinusColor@RowWindow@@UEAAX_N@Z 00000001800214f8     TakionGui:TakionGui.dll
 0002:00000500       __imp_?GetRowWindow@RowWindow@@UEAAPEAV1@XZ 0000000180021500     TakionGui:TakionGui.dll
 0002:00000508       __imp_?GetRowWindow@RowWindow@@UEBAPEBV1@XZ 0000000180021508     TakionGui:TakionGui.dll
 0002:00000510       __imp_?SetColumnIndentation@RowWindowSortable@@UEAA_NH@Z 0000000180021510     TakionGui:TakionGui.dll
 0002:00000518       __imp_?InvalidateInventoryColumns@RowWindow@@UEBAXXZ 0000000180021518     TakionGui:TakionGui.dll
 0002:00000520       __imp_?GetTotalRowHeightMax@RowWindow@@UEBAHXZ 0000000180021520     TakionGui:TakionGui.dll
 0002:00000528       __imp_?GetTotalRowHeight@RowWindow@@UEBAHXZ 0000000180021528     TakionGui:TakionGui.dll
 0002:00000530       __imp_?AssignDefaultSortColumn@RowWindow@@MEAAX_N@Z 0000000180021530     TakionGui:TakionGui.dll
 0002:00000538       __imp_?UpdateColumnUsage@RowWindow@@UEAA_NAEBV?$set@GU?$less@G@std@@V?$allocator@G@2@@std@@0@Z 0000000180021538     TakionGui:TakionGui.dll
 0002:00000540       __imp_?isScrollable@Columns@@UEBA_NXZ 0000000180021540     TakionGui:TakionGui.dll
 0002:00000548       __imp_?isSortable@RowWindowSortable@@UEBA_NXZ 0000000180021548     TakionGui:TakionGui.dll
 0002:00000550       __imp_?InvalidateColumnRect@RowWindow@@UEBAXAEBV?$_Tree_iterator@V?$_Tree_val@U?$_Tree_simple_types@U?$pair@$$CBV?$PointLocator@H@@PEAVColumn@@@std@@@std@@@std@@@std@@@Z 0000000180021550     TakionGui:TakionGui.dll
 0002:00000558       __imp_?isColumnEntitlable@Columns@@UEBA_NG@Z 0000000180021558     TakionGui:TakionGui.dll
 0002:00000560       __imp_?UpdateHistoryLoadBkColor@RowWindowSortableAccount@@MEAA_NXZ 0000000180021560     TakionGui:TakionGui.dll
 0002:00000568       __imp_?ViewAllAccountsChanged@RowWindowSortableAccount@@MEAAX_N@Z 0000000180021568     TakionGui:TakionGui.dll
 0002:00000570       __imp_?AllAccountsModeChanged@RowWindowSortableAccount@@MEAAXXZ 0000000180021570     TakionGui:TakionGui.dll
 0002:00000578       __imp_?AddAccountMergeMenu@RowWindowSortableAccount@@UEAAXAEAVCMenu@@@Z 0000000180021578     TakionGui:TakionGui.dll
 0002:00000580       __imp_?isContentsChangeOnAccountChange@RowWindowSortableAccount@@UEBA_NXZ 0000000180021580     TakionGui:TakionGui.dll
 0002:00000588       __imp_?AppendTitleInfo@RowWindowSortableAccount@@UEBAXAEAV?$basic_string@DU?$char_traits@D@std@@V?$allocator@D@2@@std@@@Z 0000000180021588     TakionGui:TakionGui.dll
 0002:00000590       __imp_?CanFilterBySymbol@RowWindowSortableAccount@@UEBA_NXZ 0000000180021590     TakionGui:TakionGui.dll
 0002:00000598       __imp_?CanShowAllAccounts@RowWindowSortableAccount@@UEBA_NXZ 0000000180021598     TakionGui:TakionGui.dll
 0002:000005a0       __imp_?MoveRow@RowWindowSortable@@EEAA_NPEAVRow@@_K1@Z 00000001800215a0     TakionGui:TakionGui.dll
 0002:000005a8       __imp_?CreateRowTotal@RowWindowSortable@@MEAAPEAVRowTotal@@XZ 00000001800215a8     TakionGui:TakionGui.dll
 0002:000005b0       __imp_?RevertRowInsertion@RowWindowSortable@@MEAAXPEAVRowSortable@@I@Z 00000001800215b0     TakionGui:TakionGui.dll
 0002:000005b8       __imp_?BeforeRowInsertion@RowWindowSortable@@MEAAIPEAVRowSortable@@@Z 00000001800215b8     TakionGui:TakionGui.dll
 0002:000005c0       __imp_?RowRemoved@RowWindowSortable@@MEAAXPEAVRowSortable@@@Z 00000001800215c0     TakionGui:TakionGui.dll
 0002:000005c8       __imp_?RowInserted@RowWindowSortable@@MEAAXPEAVRowSortable@@@Z 00000001800215c8     TakionGui:TakionGui.dll
 0002:000005d0       __imp_?GetInventorySettingsTabInitInfo@RowWindowSortable@@MEBAPEBXAEBVCPoint@@@Z 00000001800215d0     TakionGui:TakionGui.dll
 0002:000005d8       __imp_?HandleSelectedInventory@RowWindowSortable@@MEAAXE@Z 00000001800215d8     TakionGui:TakionGui.dll
 0002:000005e0       __imp_?HideSelectedPositions@RowWindowSortable@@MEAAX_N@Z 00000001800215e0     TakionGui:TakionGui.dll
 0002:000005e8       __imp_?RemoveAllObjectsBelongingToAccountAggregator@RowWindowSortable@@MEAA_NPEBVAccountAggregator@@@Z 00000001800215e8     TakionGui:TakionGui.dll
 0002:000005f0       __imp_?RemoveAllObjectsBelongingToAccount@RowWindowSortable@@MEAA_NPEBVAccount@@@Z 00000001800215f0     TakionGui:TakionGui.dll
 0002:000005f8       __imp_?RemoveRowFromRowMap@RowWindowSortable@@MEAAXPEBX@Z 00000001800215f8     TakionGui:TakionGui.dll
 0002:00000600       __imp_?AddNewRows@RowWindowSortable@@MEAAXXZ 0000000180021600     TakionGui:TakionGui.dll
 0002:00000608       __imp_?Populate@RowWindowSortable@@MEAA_N_N@Z 0000000180021608     TakionGui:TakionGui.dll
 0002:00000610       __imp_?ResetMinMaxValues@RowWindowSortable@@MEAAXXZ 0000000180021610     TakionGui:TakionGui.dll
 0002:00000618       __imp_?AddRowToPool@RowWindowSortable@@MEAA_NPEAVRowSortable@@@Z 0000000180021618     TakionGui:TakionGui.dll
 0002:00000620       __imp_?MoveRowsToPool@RowWindowSortable@@MEAAXXZ 0000000180021620     TakionGui:TakionGui.dll
 0002:00000628       __imp_?isFiltered@RowWindowSortable@@UEBA_NXZ 0000000180021628     TakionGui:TakionGui.dll
 0002:00000630       __imp_?GetOrderShortColor@RowWindowSortable@@UEBAAEBKXZ 0000000180021630     TakionGui:TakionGui.dll
 0002:00000638       __imp_?GetOrderSellColor@RowWindowSortable@@UEBAAEBKXZ 0000000180021638     TakionGui:TakionGui.dll
 0002:00000640       __imp_?GetOrderBuyColor@RowWindowSortable@@UEBAAEBKXZ 0000000180021640     TakionGui:TakionGui.dll
 0002:00000648       __imp_?GetColorOco@RowWindowSortable@@UEBAAEBKXZ 0000000180021648     TakionGui:TakionGui.dll
 0002:00000650       __imp_?GetColorWaiting@RowWindowSortable@@UEBAAEBKXZ 0000000180021650     TakionGui:TakionGui.dll
 0002:00000658       __imp_?GetColorPostponed@RowWindowSortable@@UEBAAEBKXZ 0000000180021658     TakionGui:TakionGui.dll
 0002:00000660       __imp_?GetColorReplacing@RowWindowSortable@@UEBAAEBKXZ 0000000180021660     TakionGui:TakionGui.dll
 0002:00000668       __imp_?GetColorCanceling@RowWindowSortable@@UEBAAEBKXZ 0000000180021668     TakionGui:TakionGui.dll
 0002:00000670       __imp_?GetColorCanceled@RowWindowSortable@@UEBAAEBKXZ 0000000180021670     TakionGui:TakionGui.dll
 0002:00000678       __imp_?GetColorBlocked@RowWindowSortable@@UEBAAEBKXZ 0000000180021678     TakionGui:TakionGui.dll
 0002:00000680       __imp_?GetColorKicked@RowWindowSortable@@UEBAAEBKXZ 0000000180021680     TakionGui:TakionGui.dll
 0002:00000688       __imp_?GetColorPartialFilled@RowWindowSortable@@UEBAAEBKXZ 0000000180021688     TakionGui:TakionGui.dll
 0002:00000690       __imp_?GetColorFilled@RowWindowSortable@@UEBAAEBKXZ 0000000180021690     TakionGui:TakionGui.dll
 0002:00000698       __imp_?GetColorNotSent@RowWindowSortable@@UEBAAEBKXZ 0000000180021698     TakionGui:TakionGui.dll
 0002:000006a0       __imp_?GetColorUnacknowledged@RowWindowSortable@@UEBAAEBKXZ 00000001800216a0     TakionGui:TakionGui.dll
 0002:000006a8       __imp_?GetColorPendingFilledShort@RowWindowSortable@@UEBAAEBKXZ 00000001800216a8     TakionGui:TakionGui.dll
 0002:000006b0       __imp_?GetColorPendingFilledSell@RowWindowSortable@@UEBAAEBKXZ 00000001800216b0     TakionGui:TakionGui.dll
 0002:000006b8       __imp_?GetColorPendingFilledBuy@RowWindowSortable@@UEBAAEBKXZ 00000001800216b8     TakionGui:TakionGui.dll
 0002:000006c0       __imp_?GetColorPendingShort@RowWindowSortable@@UEBAAEBKXZ 00000001800216c0     TakionGui:TakionGui.dll
 0002:000006c8       __imp_?GetColorPendingSell@RowWindowSortable@@UEBAAEBKXZ 00000001800216c8     TakionGui:TakionGui.dll
 0002:000006d0       __imp_?GetColorPendingBuy@RowWindowSortable@@UEBAAEBKXZ 00000001800216d0     TakionGui:TakionGui.dll
 0002:000006d8       __imp_?GetOrderFutureColor@RowWindowSortable@@UEBAAEBKXZ 00000001800216d8     TakionGui:TakionGui.dll
 0002:000006e0       __imp_?GetOrderOptionColor@RowWindowSortable@@UEBAAEBKXZ 00000001800216e0     TakionGui:TakionGui.dll
 0002:000006e8       __imp_?GetOrderStockColor@RowWindowSortable@@UEBAAEBKXZ 00000001800216e8     TakionGui:TakionGui.dll
 0002:000006f0       __imp_?GetExecutionFutureColor@RowWindowSortable@@UEBAAEBKXZ 00000001800216f0     TakionGui:TakionGui.dll
 0002:000006f8       __imp_?GetExecutionOptionColor@RowWindowSortable@@UEBAAEBKXZ 00000001800216f8     TakionGui:TakionGui.dll
 0002:00000700       __imp_?GetExecutionStockColor@RowWindowSortable@@UEBAAEBKXZ 0000000180021700     TakionGui:TakionGui.dll
 0002:00000708       __imp_?isUseExecutionSecurityColors@RowWindowSortable@@UEBA_NXZ 0000000180021708     TakionGui:TakionGui.dll
 0002:00000710       __imp_?isUseOrderSecurityColors@RowWindowSortable@@UEBA_NXZ 0000000180021710     TakionGui:TakionGui.dll
 0002:00000718       __imp_?GetSellClosedColor@RowWindowSortable@@UEBAAEBKXZ 0000000180021718     TakionGui:TakionGui.dll
 0002:00000720       __imp_?GetShortOpenColor@RowWindowSortable@@UEBAAEBKXZ 0000000180021720     TakionGui:TakionGui.dll
 0002:00000728       __imp_?GetBuyClosedColor@RowWindowSortable@@UEBAAEBKXZ 0000000180021728     TakionGui:TakionGui.dll
 0002:00000730       __imp_?GetBuyOpenColor@RowWindowSortable@@UEBAAEBKXZ 0000000180021730     TakionGui:TakionGui.dll
 0002:00000738       __imp_?GetBustedSellColor@RowWindowSortable@@UEBAAEBKXZ 0000000180021738     TakionGui:TakionGui.dll
 0002:00000740       __imp_?GetBustedBuyColor@RowWindowSortable@@UEBAAEBKXZ 0000000180021740     TakionGui:TakionGui.dll
 0002:00000748       __imp_?GetShortColor@RowWindowSortable@@UEBAAEBKXZ 0000000180021748     TakionGui:TakionGui.dll
 0002:00000750       __imp_?GetSellColor@RowWindowSortable@@UEBAAEBKXZ 0000000180021750     TakionGui:TakionGui.dll
 0002:00000758       __imp_?GetBuyColor@RowWindowSortable@@UEBAAEBKXZ 0000000180021758     TakionGui:TakionGui.dll
 0002:00000760       __imp_?GetOrderBuiltInColumnCount@RowWindowSortable@@UEBAGXZ 0000000180021760     TakionGui:TakionGui.dll
 0002:00000768       __imp_?GetColorShort@RowWindowSortable@@UEBAAEBKXZ 0000000180021768     TakionGui:TakionGui.dll
 0002:00000770       __imp_?GetColorLong@RowWindowSortable@@UEBAAEBKXZ 0000000180021770     TakionGui:TakionGui.dll
 0002:00000778       __imp_?GetColorFlat@RowWindowSortable@@UEBAAEBKXZ 0000000180021778     TakionGui:TakionGui.dll
 0002:00000780       __imp_?CanSeeFirmPositions@RowWindowSortable@@UEBAAEB_NXZ 0000000180021780     TakionGui:TakionGui.dll
 0002:00000788       __imp_?GetMergedPositions@RowWindowSortable@@UEBAPEBVPositionGroupCollection@@XZ 0000000180021788     TakionGui:TakionGui.dll
 0002:00000790       __imp_?GetPositionBuiltInColumnCount@RowWindowSortable@@UEBAGXZ 0000000180021790     TakionGui:TakionGui.dll
 0002:00000798       __imp_?GetPopOrdinalColumnId@RowWindowSortable@@UEBAGXZ 0000000180021798     TakionGui:TakionGui.dll
 0002:000007a0       __imp_?CanHaveTotal@RowWindowSortable@@UEBA_NXZ 00000001800217a0     TakionGui:TakionGui.dll
 0002:000007a8       __imp_?SetTopActive@RowWindowSortable@@UEAAX_N@Z 00000001800217a8     TakionGui:TakionGui.dll
 0002:000007b0       __imp_?CopySelectedStocksToStr@RowWindowSortable@@UEBAXAEAV?$basic_string@DU?$char_traits@D@std@@V?$allocator@D@2@@std@@@Z 00000001800217b0     TakionGui:TakionGui.dll
 0002:000007b8       __imp_?ApplyStringValue@RowWindowSortable@@UEAAXIAEAV?$set@PEAVRowSortable@@U?$less@PEAVRowSortable@@@std@@V?$allocator@PEAVRowSortable@@@3@@std@@GPEBD_N@Z 00000001800217b8     TakionGui:TakionGui.dll
 0002:000007c0       __imp_?ApplyPriceValue@RowWindowSortable@@UEAAXIAEAV?$set@PEAVRowSortable@@U?$less@PEAVRowSortable@@@std@@V?$allocator@PEAVRowSortable@@@3@@std@@GAEBVPrice@@_N@Z 00000001800217c0     TakionGui:TakionGui.dll
 0002:000007c8       __imp_?ApplyIntValue@RowWindowSortable@@UEAAXIAEAV?$set@PEAVRowSortable@@U?$less@PEAVRowSortable@@@std@@V?$allocator@PEAVRowSortable@@@3@@std@@GH_N@Z 00000001800217c8     TakionGui:TakionGui.dll
 0002:000007d0       __imp_?ApplyUIntValue@RowWindowSortable@@UEAAXIAEAV?$set@PEAVRowSortable@@U?$less@PEAVRowSortable@@@std@@V?$allocator@PEAVRowSortable@@@3@@std@@GI_N@Z 00000001800217d0     TakionGui:TakionGui.dll
 0002:000007d8       __imp_?isTickable@RowWindowSortable@@UEBA_NXZ 00000001800217d8     TakionGui:TakionGui.dll
 0002:000007e0       __imp_?SetMultiSelect@RowWindowSortable@@UEAA_N_N@Z 00000001800217e0     TakionGui:TakionGui.dll
 0002:000007e8       __imp_?RemoveObject@RowWindowSortable@@UEAAPEAVRowSortable@@PEBX@Z 00000001800217e8     TakionGui:TakionGui.dll
 0002:000007f0       __imp_?SecondaryExistingRowBelongs@RowWindowSortable@@UEBAEPEBVRowSortable@@@Z 00000001800217f0     TakionGui:TakionGui.dll
 0002:000007f8       __imp_?SecondaryRowBelongs@RowWindowSortable@@UEBAEPEBVRowSortable@@@Z 00000001800217f8     TakionGui:TakionGui.dll
 0002:00000800       __imp_?SecondaryRowFiltersIn@RowWindowSortable@@UEBA_NPEBVRowSortable@@@Z 0000000180021800     TakionGui:TakionGui.dll
 0002:00000808       __imp_?SecondaryObjectPotentiallyBelongs@RowWindowSortable@@UEBA_NPEBX@Z 0000000180021808     TakionGui:TakionGui.dll
 0002:00000810       __imp_?CreateSecondaryRow@RowWindowSortable@@UEAAPEAVRowSortable@@PEBX_NPEAV2@@Z 0000000180021810     TakionGui:TakionGui.dll
 0002:00000818       __imp_?NewSecondaryRow@RowWindowSortable@@UEAAPEAVRow@@PEBXPEAVRowSortable@@@Z 0000000180021818     TakionGui:TakionGui.dll
 0002:00000820       __imp_?AddRow@RowWindowSortable@@UEAAPEAVRowSortable@@PEAV2@_N1@Z 0000000180021820     TakionGui:TakionGui.dll
 0002:00000828       __imp_?OnSecondaryVisibilityChange@RowWindow@@MEAAX_N@Z 0000000180021828     TakionGui:TakionGui.dll
 0002:00000830       __imp_?ScrollTotalRowHorizontally@RowWindowSortable@@MEBAXHAEAVCRect@@PEBV2@PEAV2@@Z 0000000180021830     TakionGui:TakionGui.dll
 0002:00000838       __imp_?FlashRowTicks@RowWindowSortable@@MEAAX_K@Z 0000000180021838     TakionGui:TakionGui.dll
 0002:00000840       __imp_?ScrollPrimaryOrSecondaryDataHorizontally@RowWindowSortable@@MEBAX_KHAEAVCRect@@PEBV2@PEAV2@_N@Z 0000000180021840     TakionGui:TakionGui.dll
 0002:00000848       __imp_?ScrollPrimaryAndSecondaryDataHorizontally@RowWindowSortable@@MEBAX_KHAEAVCRect@@PEBV2@12@Z 0000000180021848     TakionGui:TakionGui.dll
 0002:00000850       __imp_?AddSecondaryRowMenuItems@RowWindow@@MEAAXAEAVCMenu@@@Z 0000000180021850     TakionGui:TakionGui.dll
 0002:00000858       __imp_?UpdateSecondaryRowColors@RowWindowSortable@@MEAAXXZ 0000000180021858     TakionGui:TakionGui.dll
 0002:00000860       __imp_?DoUpdateSecondaryDataGraphicsColors@RowWindow@@MEAAXPEBVGraphics@@@Z 0000000180021860     TakionGui:TakionGui.dll
 0002:00000868       __imp_?DoUpdateSecondaryDataGraphicsColorsCustom@RowWindow@@MEAAXPEBVGraphicsColorCollection@@@Z 0000000180021868     TakionGui:TakionGui.dll
 0002:00000870       __imp_?CreateSecondaryAdditionalColumns@RowWindow@@MEAAXXZ 0000000180021870     TakionGui:TakionGui.dll
 0002:00000878       __imp_?SecondaryRowFontChanged@RowWindow@@MEAAXXZ 0000000180021878     TakionGui:TakionGui.dll
 0002:00000880       __imp_?RowFontChanged@RowWindow@@MEAAXXZ 0000000180021880     TakionGui:TakionGui.dll
 0002:00000888       __imp_?UpdateTotalRectOnResizeSecondaryColumn@RowWindowSortable@@MEAAXXZ 0000000180021888     TakionGui:TakionGui.dll
 0002:00000890       __imp_?SecurityDoubleClicked@RowWindow@@MEAAXIAEBVCPoint@@@Z 0000000180021890     TakionGui:TakionGui.dll
 0002:00000898       __imp_?RowExpandLeftPrssed@RowWindow@@MEAAXPEAVRow@@_KAEBVCPoint@@@Z 0000000180021898     TakionGui:TakionGui.dll
 0002:000008a0       __imp_?RowDoubleClicked@RowWindow@@MEAAXPEAVRow@@_KAEBVCPoint@@@Z 00000001800218a0     TakionGui:TakionGui.dll
 0002:000008a8       __imp_?RowLeftClicked@RowWindowSortable@@MEAAXPEAVRow@@_KAEBVCPoint@@@Z 00000001800218a8     TakionGui:TakionGui.dll
 0002:000008b0       __imp_?InvalidateCommaVolumeColums@RowWindow@@MEBAXXZ 00000001800218b0     TakionGui:TakionGui.dll
 0002:000008b8       __imp_?InvalidateCommaMoneyColums@RowWindow@@MEBAXXZ 00000001800218b8     TakionGui:TakionGui.dll
 0002:000008c0       __imp_?InvalidateCommaSizeColums@RowWindow@@MEBAXXZ 00000001800218c0     TakionGui:TakionGui.dll
 0002:000008c8       __imp_?InvalidateCommaPriceColums@RowWindow@@MEBAXXZ 00000001800218c8     TakionGui:TakionGui.dll
 0002:000008d0       __imp_?InvalidateShowMilliseconds@RowWindow@@MEBAXXZ 00000001800218d0     TakionGui:TakionGui.dll
 0002:000008d8       __imp_?ShowMillisecondsChanged@RowWindow@@MEAAXXZ 00000001800218d8     TakionGui:TakionGui.dll
 0002:000008e0       __imp_?HorizontalScrollVisibilityChanged@RowWindowSortable@@MEAAXXZ 00000001800218e0     TakionGui:TakionGui.dll
 0002:000008e8       __imp_?RowsFitChanged@RowWindow@@MEAAXXZ 00000001800218e8     TakionGui:TakionGui.dll
 0002:000008f0       __imp_?UpdateRowsFit@RowWindow@@MEAAXXZ 00000001800218f0     TakionGui:TakionGui.dll
 0002:000008f8       __imp_?CreateAdditionalColumns@RowWindow@@MEAAXXZ 00000001800218f8     TakionGui:TakionGui.dll
 0002:00000900       __imp_?DrawDataAdditional@RowWindowSortable@@MEAAXAEBVCRect@@AEAVCDC@@@Z 0000000180021900     TakionGui:TakionGui.dll
 0002:00000908       __imp_?DoPaintData@RowWindowSortable@@MEBA_KAEAVCDC@@_K1AEBV?$_Tree_const_iterator@V?$_Tree_val@U?$_Tree_simple_types@U?$pair@$$CBV?$PointLocator@H@@PEAVColumn@@@std@@@std@@@std@@@std@@2HH_N_N@Z 0000000180021908     TakionGui:TakionGui.dll
 0002:00000910       __imp_?DataRightUpdated@RowWindowSortable@@MEAAX_N@Z 0000000180021910     TakionGui:TakionGui.dll
 0002:00000918       __imp_?LineRightSelected@RowWindowSortable@@MEAAXXZ 0000000180021918     TakionGui:TakionGui.dll
 0002:00000920       __imp_?RowsScrolled@RowWindowSortable@@MEAAXH@Z 0000000180021920     TakionGui:TakionGui.dll
 0002:00000928       __imp_?BeforeRowsScrolled@RowWindowSortable@@MEAAXH@Z 0000000180021928     TakionGui:TakionGui.dll
 0002:00000930       __imp_?PasteStocksFromString@RowWindow@@MEAAXPEBD_K_N@Z 0000000180021930     TakionGui:TakionGui.dll
 0002:00000938       __imp_?BackgroundColorChanged@RowWindowSortable@@MEAAXXZ 0000000180021938     TakionGui:TakionGui.dll
 0002:00000940       __imp_?SortColumnsChanged@RowWindow@@MEAAX_N@Z 0000000180021940     TakionGui:TakionGui.dll
 0002:00000948       __imp_?LinesWheeled@RowWindow@@MEAAXH@Z 0000000180021948     TakionGui:TakionGui.dll
 0002:00000950       __imp_?HasMouseHighlightableCells@RowWindow@@UEBA_NXZ 0000000180021950     TakionGui:TakionGui.dll
 0002:00000958       __imp_?GetFilterCopy@RowWindow@@UEBAPEAVSymbolFilter@@XZ 0000000180021958     TakionGui:TakionGui.dll
 0002:00000960       __imp_?GetSecondaryColumnHighlightColor@RowWindow@@UEBAKG@Z 0000000180021960     TakionGui:TakionGui.dll
 0002:00000968       __imp_?GetSecondaryColumnIdOffsetForSavedVersion@RowWindow@@UEBAGG@Z 0000000180021968     TakionGui:TakionGui.dll
 0002:00000970       __imp_?GetSecondaryNoOptionBuiltInColumnCount@RowWindow@@UEBAGXZ 0000000180021970     TakionGui:TakionGui.dll
 0002:00000978       __imp_?GetSecondaryBuiltInColumnCount@RowWindow@@UEBAGXZ 0000000180021978     TakionGui:TakionGui.dll
 0002:00000980       __imp_?GetSecondaryAdditionalColumnCount@RowWindow@@UEBAGXZ 0000000180021980     TakionGui:TakionGui.dll
 0002:00000988       __imp_?UpdateSecondaryDataGraphics@RowWindow@@UEAAXPEBVGraphics@@@Z 0000000180021988     TakionGui:TakionGui.dll
 0002:00000990       __imp_?GetSecondaryToolId@RowWindow@@UEBAPEBDXZ 0000000180021990     TakionGui:TakionGui.dll
 0002:00000998       __imp_?CollapseRow@RowWindowSortable@@UEAA_NPEAVRow@@@Z 0000000180021998     TakionGui:TakionGui.dll
 0002:000009a0       __imp_?ExpandRow@RowWindow@@UEAA_NPEAVRow@@@Z 00000001800219a0     TakionGui:TakionGui.dll
 0002:000009a8       __imp_?PopulateSecondaryRows@RowWindowSortable@@UEAAX_N@Z 00000001800219a8     TakionGui:TakionGui.dll
 0002:000009b0       __imp_?RemoveNotBelongingSecondaryRows@RowWindowSortable@@UEAA_N_N@Z 00000001800219b0     TakionGui:TakionGui.dll
 0002:000009b8       __imp_?DestroySecondaryRows@RowWindowSortable@@UEAAXXZ 00000001800219b8     TakionGui:TakionGui.dll
 0002:000009c0       __imp_?isSecondaryColumnEntitlable@RowWindow@@UEBA_NG@Z 00000001800219c0     TakionGui:TakionGui.dll
 0002:000009c8       __imp_?InvalidatePrimaryOrSecondaryRows@RowWindowSortable@@UEBAX_K_NG@Z 00000001800219c8     TakionGui:TakionGui.dll
 0002:000009d0       __imp_?hasSecondaryUnderlierColumns@RowWindow@@UEBA_NXZ 00000001800219d0     TakionGui:TakionGui.dll
 0002:000009d8       __imp_?hasSecondarySecurityColumns@RowWindow@@UEBA_NXZ 00000001800219d8     TakionGui:TakionGui.dll
 0002:000009e0       __imp_?DoUpdateColumnUse@RowWindowSortable@@UEAA_NAEBV?$set@GU?$less@G@std@@V?$allocator@G@2@@std@@0_N@Z 00000001800219e0     TakionGui:TakionGui.dll
 0002:000009e8       __imp_?CanPlayNewLineSound@RowWindowSortableAccount@@UEBA_NXZ 00000001800219e8     TakionGui:TakionGui.dll
 0002:000009f0       __imp_?CanScrollVertically@RowWindow@@UEBA_NXZ 00000001800219f0     TakionGui:TakionGui.dll
 0002:000009f8       __imp_?GetDefaultNextRow@RowWindowSortable@@UEBAPEAVRow@@PEAVTakionIterator@@@Z 00000001800219f8     TakionGui:TakionGui.dll
 0002:00000a00       __imp_?CreateDefaultRowIterator@RowWindowSortable@@UEBAPEAVTakionIterator@@XZ 0000000180021a00     TakionGui:TakionGui.dll
 0002:00000a08       __imp_?GetNextSelectedRow@RowWindowSortable@@UEBAPEAVRow@@PEAVTakionIterator@@@Z 0000000180021a08     TakionGui:TakionGui.dll
 0002:00000a10       __imp_?CreateSelectedRowIterator@RowWindowSortable@@UEBAPEAVTakionIterator@@XZ 0000000180021a10     TakionGui:TakionGui.dll
 0002:00000a18       __imp_?GetNextRow@RowWindowSortable@@UEBAPEAVRow@@PEAVTakionIterator@@@Z 0000000180021a18     TakionGui:TakionGui.dll
 0002:00000a20       __imp_?CreateRowIterator@RowWindowSortable@@UEBAPEAVTakionIterator@@XZ 0000000180021a20     TakionGui:TakionGui.dll
 0002:00000a28       __imp_?InvalidateDataAndExpandRect@RowWindowSortable@@UEAAXXZ 0000000180021a28     TakionGui:TakionGui.dll
 0002:00000a30       __imp_?HasMillisecondColumns@RowWindow@@UEBA_NXZ 0000000180021a30     TakionGui:TakionGui.dll
 0002:00000a38       __imp_?HasVolumeColumns@RowWindow@@UEBA_NXZ 0000000180021a38     TakionGui:TakionGui.dll
 0002:00000a40       __imp_?HasMoneyColumns@RowWindow@@UEBA_NXZ 0000000180021a40     TakionGui:TakionGui.dll
 0002:00000a48       __imp_?HasSizeColumns@RowWindow@@UEBA_NXZ 0000000180021a48     TakionGui:TakionGui.dll
 0002:00000a50       __imp_?HasPriceColumns@RowWindow@@UEBA_NXZ 0000000180021a50     TakionGui:TakionGui.dll
 0002:00000a58       __imp_?HasTopActiveMenu@RowWindow@@UEBA_NXZ 0000000180021a58     TakionGui:TakionGui.dll
 0002:00000a60       __imp_?RowHasSecuritySymbol@RowWindow@@UEBA_NXZ 0000000180021a60     TakionGui:TakionGui.dll
 0002:00000a68       __imp_?HasDoubleClickAction@RowWindow@@UEBA_NXZ 0000000180021a68     TakionGui:TakionGui.dll
 0002:00000a70       __imp_?PaintTick@RowWindowSortable@@UEBAXAEAVCDC@@PEBVColumn@@PEBVRowValue@@AEBVCRect@@@Z 0000000180021a70     TakionGui:TakionGui.dll
 0002:00000a78       __imp_?GetThermographGreenColors@RowWindow@@UEBAPEBKXZ 0000000180021a78     TakionGui:TakionGui.dll
 0002:00000a80       __imp_?GetThermographRedColors@RowWindow@@UEBAPEBKXZ 0000000180021a80     TakionGui:TakionGui.dll
 0002:00000a88       __imp_?GetColorVeryBadBk@RowWindow@@UEBAKXZ 0000000180021a88     TakionGui:TakionGui.dll
 0002:00000a90       __imp_?GetColorVeryGoodBk@RowWindow@@UEBAKXZ 0000000180021a90     TakionGui:TakionGui.dll
 0002:00000a98       __imp_?GetColorVeryBad@RowWindow@@UEBAKXZ 0000000180021a98     TakionGui:TakionGui.dll
 0002:00000aa0       __imp_?GetColorVeryGood@RowWindow@@UEBAKXZ 0000000180021aa0     TakionGui:TakionGui.dll
 0002:00000aa8       __imp_?GetInvalidColor@RowWindow@@UEBAAEBKXZ 0000000180021aa8     TakionGui:TakionGui.dll
 0002:00000ab0       __imp_?isShowSizeInShares@RowWindow@@UEBAPEB_NXZ 0000000180021ab0     TakionGui:TakionGui.dll
 0002:00000ab8       __imp_?isMultiSelect@RowWindowSortable@@UEBA_NXZ 0000000180021ab8     TakionGui:TakionGui.dll
 0002:00000ac0       __imp_?GetRowLastVisibleOrd@RowWindowSortable@@UEBA_KXZ 0000000180021ac0     TakionGui:TakionGui.dll
 0002:00000ac8       __imp_?GetRowFirstVisibleOrd@RowWindow@@UEBA_KXZ 0000000180021ac8     TakionGui:TakionGui.dll
 0002:00000ad0       __imp_?GetSingleSelectedRow@RowWindowSortable@@UEBAPEAVRow@@XZ 0000000180021ad0     TakionGui:TakionGui.dll
 0002:00000ad8       __imp_?GetSelectedRowCount@RowWindowSortable@@UEBA_KXZ 0000000180021ad8     TakionGui:TakionGui.dll
 0002:00000ae0       __imp_?GetSelectedOrAllRowCount@RowWindowSortable@@UEBA_KXZ 0000000180021ae0     TakionGui:TakionGui.dll
 0002:00000ae8       __imp_?GetPotentialRowCount@RowWindowSortable@@UEBA_KXZ 0000000180021ae8     TakionGui:TakionGui.dll
 0002:00000af0       __imp_?GetDisplayedRowCount@RowWindow@@UEBA_KXZ 0000000180021af0     TakionGui:TakionGui.dll
 0002:00000af8       __imp_?GetRowCount@RowWindowSortable@@UEBA_KXZ 0000000180021af8     TakionGui:TakionGui.dll
 0002:00000b00       __imp_?FindRow@RowWindowSortable@@UEBA_KPEBVRow@@@Z 0000000180021b00     TakionGui:TakionGui.dll
 0002:00000b08       __imp_?GetRowAt@RowWindowSortable@@UEBAPEAVRow@@_K@Z 0000000180021b08     TakionGui:TakionGui.dll
 0002:00000b10       __imp_?SortData@RowWindowSortable@@UEAAX_N@Z 0000000180021b10     TakionGui:TakionGui.dll
 0002:00000b18       __imp_?GetTotalRowRectPtr@RowWindowSortable@@UEBAPEBVCRect@@XZ 0000000180021b18     TakionGui:TakionGui.dll
 0002:00000b20       __imp_?InvalidateTotalRowSubRect@RowWindowSortable@@UEBAXHH@Z 0000000180021b20     TakionGui:TakionGui.dll
 0002:00000b28       __imp_?InvalidateTotalRowRect@RowWindowSortable@@UEBAXXZ 0000000180021b28     TakionGui:TakionGui.dll
 0002:00000b30       __imp_?ApplyStringValueScrollable@RowWindow@@UEAAXIPEBDG0@Z 0000000180021b30     TakionGui:TakionGui.dll
 0002:00000b38       __imp_?GetNoOptionBuiltInColumnCount@RowWindow@@UEBAGXZ 0000000180021b38     TakionGui:TakionGui.dll
 0002:00000b40       __imp_?GetAdditionalColumnCount@RowWindow@@UEBAGXZ 0000000180021b40     TakionGui:TakionGui.dll
 0002:00000b48       __imp_?GetSymbolColumn@RowWindow@@UEBAGXZ 0000000180021b48     TakionGui:TakionGui.dll
 0002:00000b50       __imp_?StockToString@RowWindow@@UEBA_NAEAV?$basic_string@DU?$char_traits@D@std@@V?$allocator@D@2@@std@@PEBVRow@@@Z 0000000180021b50     TakionGui:TakionGui.dll
 0002:00000b58       __imp_?ClearAll@RowWindow@@UEAAXXZ 0000000180021b58     TakionGui:TakionGui.dll
 0002:00000b60       __imp_?FindComment@RowWindow@@UEBAPEBV?$basic_string@DU?$char_traits@D@std@@V?$allocator@D@2@@std@@AEB_K@Z 0000000180021b60     TakionGui:TakionGui.dll
 0002:00000b68       __imp_?UpdateDataGraphicsColors@RowWindowSortable@@UEAA_NPEBVGraphics@@PEBVGraphicsColorCollection@@@Z 0000000180021b68     TakionGui:TakionGui.dll
 0002:00000b70       __imp_?UpdateDataGraphicsColorsCustom@RowWindowSortable@@UEAA_NPEBVGraphicsColorCollection@@@Z 0000000180021b70     TakionGui:TakionGui.dll
 0002:00000b78       __imp_?isVerticallyScrolled@RowWindow@@UEBA_NXZ 0000000180021b78     TakionGui:TakionGui.dll
 0002:00000b80       __imp_?ShouldRepaintTitleOnScroll@RowWindow@@UEBA_NH@Z 0000000180021b80     TakionGui:TakionGui.dll
 0002:00000b88       __imp_?GetAdjustedAdditionalColumnId@RowWindow@@UEBAGGGAEB_K@Z 0000000180021b88     TakionGui:TakionGui.dll
 0002:00000b90       __imp_?GetColumnIdOffsetForSavedVersion@RowWindow@@UEBAGG@Z 0000000180021b90     TakionGui:TakionGui.dll
 0002:00000b98       __imp_?isUseBasketColors@RowWindow@@UEBA_NXZ 0000000180021b98     TakionGui:TakionGui.dll
 0002:00000ba0       __imp_?UpdateDataGraphics@RowWindowSortable@@UEAAXPEBVGraphics@@@Z 0000000180021ba0     TakionGui:TakionGui.dll
 0002:00000ba8       __imp_?CellToString@RowWindow@@UEBA_NAEAV?$basic_string@DU?$char_traits@D@std@@V?$allocator@D@2@@std@@PEBVRow@@G@Z 0000000180021ba8     TakionGui:TakionGui.dll
 0002:00000bb0       __imp_?RowToString@RowWindow@@UEBAXAEAV?$basic_string@DU?$char_traits@D@std@@V?$allocator@D@2@@std@@PEBVRow@@@Z 0000000180021bb0     TakionGui:TakionGui.dll
 0002:00000bb8       __imp_?hasUnderlierColumns@RowWindow@@UEBA_NXZ 0000000180021bb8     TakionGui:TakionGui.dll
 0002:00000bc0       __imp_?hasSecurityColumns@RowWindow@@UEBA_NXZ 0000000180021bc0     TakionGui:TakionGui.dll
 0002:00000bc8       __imp_?OnTimeRectUpdated@RowWindow@@MEAAXXZ 0000000180021bc8     TakionGui:TakionGui.dll
 0002:00000bd0       __imp_?PrefixChanging@TakionTitleTool@@MEBAXPEBD@Z 0000000180021bd0     TakionGui:TakionGui.dll
 0002:00000bd8       __imp_?DoUpdateTitle@RowWindowSortableAccount@@MEAAXXZ 0000000180021bd8     TakionGui:TakionGui.dll
 0002:00000be0       __imp_?GetHourRectLeft@RowWindow@@UEBAHXZ 0000000180021be0     TakionGui:TakionGui.dll
 0002:00000be8       __imp_?CanHavePrefix@RowWindow@@UEBA_NXZ 0000000180021be8     TakionGui:TakionGui.dll
 0002:00000bf0       __imp_?SetPrefix@TakionTitleTool@@UEAAXPEBD@Z 0000000180021bf0     TakionGui:TakionGui.dll
 0002:00000bf8       __imp_?UpdateInventoryView@RowWindowSortable@@MEAAXXZ 0000000180021bf8     TakionGui:TakionGui.dll
 0002:00000c00       __imp_?ClientBeginsDragging@TakionTool@@MEAAXXZ 0000000180021c00     TakionGui:TakionGui.dll
 0002:00000c08       __imp_?OnLevel2Updated@TakionTool@@MEAAXXZ 0000000180021c08     TakionGui:TakionGui.dll
 0002:00000c10       __imp_?OnLevel1Updated@TakionTool@@MEAAXXZ 0000000180021c10     TakionGui:TakionGui.dll
 0002:00000c18       __imp_?OnTopResizing@RowWindow@@MEAAXH@Z 0000000180021c18     TakionGui:TakionGui.dll
 0002:00000c20       __imp_?OnTopResized@RowWindow@@MEAAXXZ 0000000180021c20     TakionGui:TakionGui.dll
 0002:00000c28       __imp_?ActiveStockChosen@TakionTool@@MEAAXPEBD@Z 0000000180021c28     TakionGui:TakionGui.dll
 0002:00000c30       __imp_?SizeVertical@RowWindowSortable@@MEAAXHHHH@Z 0000000180021c30     TakionGui:TakionGui.dll
 0002:00000c38       __imp_?SizeHorizontal@RowWindowSortable@@MEAAXHHHH@Z 0000000180021c38     TakionGui:TakionGui.dll
 0002:00000c40       __imp_?OnSetDefaultCommandTool@TakionTool@@MEAAXXZ 0000000180021c40     TakionGui:TakionGui.dll
 0002:00000c48       __imp_?OnSetActiveCommandTool@TakionTool@@MEAAXXZ 0000000180021c48     TakionGui:TakionGui.dll
 0002:00000c50       __imp_?OnSetActiveTool@RowWindow@@MEAAXXZ 0000000180021c50     TakionGui:TakionGui.dll
 0002:00000c58       __imp_?DoPaintClient@RowWindowSortable@@MEAAXAEBUtagRECT@@AEAVCDC@@@Z 0000000180021c58     TakionGui:TakionGui.dll
 0002:00000c60       __imp_?DoPaintTitle@RowWindowSortable@@MEAAXAEBUtagRECT@@AEAVCDC@@@Z 0000000180021c60     TakionGui:TakionGui.dll
 0002:00000c68       __imp_?ToolShown@TakionTool@@MEAAXXZ 0000000180021c68     TakionGui:TakionGui.dll
 0002:00000c70       __imp_?PostAddRowPropertiesMenuItems@RowWindowSortable@@MEAAXAEAVCMenu@@@Z 0000000180021c70     TakionGui:TakionGui.dll
 0002:00000c78       __imp_?AddRowPropertiesMenuItems@RowWindowSortable@@MEAAXAEAVCMenu@@@Z 0000000180021c78     TakionGui:TakionGui.dll
 0002:00000c80       __imp_?AddInventoryMenuItems@RowWindowSortable@@MEAAXAEAVCMenu@@@Z 0000000180021c80     TakionGui:TakionGui.dll
 0002:00000c88       __imp_?ScrollOnTopResize@TakionTool@@MEAAXH@Z 0000000180021c88     TakionGui:TakionGui.dll
 0002:00000c90       __imp_?ScrollOnTitleResize@RowWindow@@MEAAXH@Z 0000000180021c90     TakionGui:TakionGui.dll
 0002:00000c98       __imp_?Unlink@TakionTool@@MEAAXXZ 0000000180021c98     TakionGui:TakionGui.dll
 0002:00000ca0       __imp_?AddManualExternalLink@TakionTool@@MEAAXPEAVLinkExternal@@@Z 0000000180021ca0     TakionGui:TakionGui.dll
 0002:00000ca8       __imp_?LinkToSpecificExternalWindowSet@TakionTool@@MEAAXPEAVLinkExternal@@@Z 0000000180021ca8     TakionGui:TakionGui.dll
 0002:00000cb0       __imp_?ReadInitialLayoutInfoFromString@TakionTool@@MEAAXAEAPEBD_K_NI@Z 0000000180021cb0     TakionGui:TakionGui.dll
 0002:00000cb8       __imp_?WriteInitialLayoutInfoToString@TakionTool@@MEBAXAEAV?$basic_string@DU?$char_traits@D@std@@V?$allocator@D@2@@std@@I@Z 0000000180021cb8     TakionGui:TakionGui.dll
 0002:00000cc0       __imp_?SystemTimeChanged@TakionTool@@MEAAXIIII@Z 0000000180021cc0     TakionGui:TakionGui.dll
 0002:00000cc8       __imp_?UseOddLotPrintsChanged@TakionTool@@MEAAXXZ 0000000180021cc8     TakionGui:TakionGui.dll
 0002:00000cd0       __imp_?OnLinkChanged@TakionTool@@MEAAXXZ 0000000180021cd0     TakionGui:TakionGui.dll
 0002:00000cd8       __imp_?NextFutureSessionStarted@TakionTool@@MEAAXXZ 0000000180021cd8     TakionGui:TakionGui.dll
 0002:00000ce0       __imp_?SetFutureMarketDataLogged@TakionTool@@MEAAX_N@Z 0000000180021ce0     TakionGui:TakionGui.dll
 0002:00000ce8       __imp_?SetFutureMarketDataConnected@TakionTool@@MEAAX_N@Z 0000000180021ce8     TakionGui:TakionGui.dll
 0002:00000cf0       __imp_?ActiveToolMainWndActivated@TakionTool@@MEAAX_N@Z 0000000180021cf0     TakionGui:TakionGui.dll
 0002:00000cf8       __imp_?ActiveToolAppActivated@RowWindow@@UEAAX_N@Z 0000000180021cf8     TakionGui:TakionGui.dll
 0002:00000d00       __imp_?AssignSymbol@TakionTool@@UEAAXPEBD@Z 0000000180021d00     TakionGui:TakionGui.dll
 0002:00000d08       __imp_?GetTierSizeDivider@TakionTool@@UEBAIXZ 0000000180021d08     TakionGui:TakionGui.dll
 0002:00000d10       __imp_?UpdateButtonToolTips@TakionTool@@UEAAXXZ 0000000180021d10     TakionGui:TakionGui.dll
 0002:00000d18       __imp_?GetOrderBoxBase@TakionTool@@UEBAPEAVDialogOrderBase@@XZ 0000000180021d18     TakionGui:TakionGui.dll
 0002:00000d20       __imp_?isFontHotButtonCustom@TakionTool@@UEBA_NXZ 0000000180021d20     TakionGui:TakionGui.dll
 0002:00000d28       __imp_?SetFontDescriptionHotButtonCustom@TakionTool@@UEAA_NAEBVFontDescription@@@Z 0000000180021d28     TakionGui:TakionGui.dll
 0002:00000d30       __imp_?GetFontDescriptionHotButtonCustom@TakionTool@@UEBAPEBVFontDescription@@XZ 0000000180021d30     TakionGui:TakionGui.dll
 0002:00000d38       __imp_?SetFontDescriptionHotButton@TakionTool@@UEAA_NAEBVFontDescription@@@Z 0000000180021d38     TakionGui:TakionGui.dll
 0002:00000d40       __imp_?GetFontDescriptionHotButton@TakionTool@@UEBAPEBVFontDescription@@XZ 0000000180021d40     TakionGui:TakionGui.dll
 0002:00000d48       __imp_?RefreshClientRects@TakionTool@@UEAAXXZ 0000000180021d48     TakionGui:TakionGui.dll
 0002:00000d50       __imp_?GetHotButtonGroupBuddyId@TakionTool@@UEBAEE@Z 0000000180021d50     TakionGui:TakionGui.dll
 0002:00000d58       __imp_?isHotButtonGroupVertical@TakionTool@@UEBA_NE@Z 0000000180021d58     TakionGui:TakionGui.dll
 0002:00000d60       __imp_?GetHotButtonGroupCount@TakionTool@@UEBAEXZ 0000000180021d60     TakionGui:TakionGui.dll
 0002:00000d68       __imp_?GetHotButtonGroupVector@TakionTool@@UEBAPEBV?$VectorSetting@VHotButtonGroupSetting@@$09@@XZ 0000000180021d68     TakionGui:TakionGui.dll
 0002:00000d70       __imp_?isShowButtonGroup@TakionTool@@UEBA_NE@Z 0000000180021d70     TakionGui:TakionGui.dll
 0002:00000d78       __imp_?GetVerticalBestQuote@TakionTool@@UEBAAEBVPrice@@AEB_N@Z 0000000180021d78     TakionGui:TakionGui.dll
 0002:00000d80       __imp_?GetVerticalBestAsk@TakionTool@@UEBAAEBVPrice@@XZ 0000000180021d80     TakionGui:TakionGui.dll
 0002:00000d88       __imp_?GetVerticalBestBid@TakionTool@@UEBAAEBVPrice@@XZ 0000000180021d88     TakionGui:TakionGui.dll
 0002:00000d90       __imp_?GetTemporaryTierSize@TakionTool@@UEBAIXZ 0000000180021d90     TakionGui:TakionGui.dll
 0002:00000d98       __imp_?GetTemporaryTierColor@TakionTool@@UEBAKXZ 0000000180021d98     TakionGui:TakionGui.dll
 0002:00000da0       __imp_?GetAskCount@TakionTool@@UEBAIXZ 0000000180021da0     TakionGui:TakionGui.dll
 0002:00000da8       __imp_?GetBidCount@TakionTool@@UEBAIXZ 0000000180021da8     TakionGui:TakionGui.dll
 0002:00000db0       __imp_?RefreshNamedFilters@RowWindow@@MEAAXXZ 0000000180021db0     TakionGui:TakionGui.dll
 0002:00000db8       __imp_?AllNamedFiltersDeleted@RowWindow@@MEAAXXZ 0000000180021db8     TakionGui:TakionGui.dll
 0002:00000dc0       __imp_?NamedFilterDeleted@RowWindow@@MEAAXPEAVSymbolFilter@@@Z 0000000180021dc0     TakionGui:TakionGui.dll
 0002:00000dc8       __imp_?NamedFilterRenamed@RowWindow@@MEAAXPEAVSymbolFilter@@AEBV?$basic_string@DU?$char_traits@D@std@@V?$allocator@D@2@@std@@@Z 0000000180021dc8     TakionGui:TakionGui.dll
 0002:00000dd0       __imp_?NamedFilterChanged@RowWindow@@MEAAXPEAVSymbolFilter@@@Z 0000000180021dd0     TakionGui:TakionGui.dll
 0002:00000dd8       __imp_?NamedFilterAdded@RowWindow@@MEAAXPEAVSymbolFilter@@AEBV?$basic_string@DU?$char_traits@D@std@@V?$allocator@D@2@@std@@@Z 0000000180021dd8     TakionGui:TakionGui.dll
 0002:00000de0       __imp_?GetNativeFilterType@RowWindow@@UEBAEXZ 0000000180021de0     TakionGui:TakionGui.dll
 0002:00000de8       __imp_?HasNamedFiltering@RowWindow@@UEBA_NXZ 0000000180021de8     TakionGui:TakionGui.dll
 0002:00000df0       __imp_?isClipChildren@TakionTool@@UEBA_NXZ 0000000180021df0     TakionGui:TakionGui.dll
 0002:00000df8       __imp_?GetGraphicsAt@RowWindowSortable@@UEBAPEBVGraphics@@I@Z 0000000180021df8     TakionGui:TakionGui.dll
 0002:00000e00       __imp_?UpdateColorsCustom@RowWindowSortable@@UEAAXPEBVGraphicsColorCollection@@@Z 0000000180021e00     TakionGui:TakionGui.dll
 0002:00000e08       __imp_?ExternalManualLinkRemoved@TakionTool@@UEAAXPEAVLinkExternal@@@Z 0000000180021e08     TakionGui:TakionGui.dll
 0002:00000e10       __imp_?SecurityNotesReplacementDone@TakionTool@@UEAAXXZ 0000000180021e10     TakionGui:TakionGui.dll
 0002:00000e18       __imp_?SecurityNotesReplaced@TakionTool@@UEAAXAEBV?$map@_KV?$basic_string@DU?$char_traits@D@std@@V?$allocator@D@2@@std@@U?$lessUIntAsStr@_K@@V?$allocator@U?$pair@$$CB_KV?$basic_string@DU?$char_traits@D@std@@V?$allocator@D@2@@std@@@std@@@2@@std@@_N@Z 0000000180021e18     TakionGui:TakionGui.dll
 0002:00000e20       __imp_?SecurityNotesClearDone@TakionTool@@UEAAXXZ 0000000180021e20     TakionGui:TakionGui.dll
 0002:00000e28       __imp_?SecurityNotesCleared@TakionTool@@UEAAXXZ 0000000180021e28     TakionGui:TakionGui.dll
 0002:00000e30       __imp_?SecurityNoteRemoved@TakionTool@@UEAAXAEB_K@Z 0000000180021e30     TakionGui:TakionGui.dll
 0002:00000e38       __imp_?SecurityNoteAdded@TakionTool@@UEAAXAEB_KAEBV?$basic_string@DU?$char_traits@D@std@@V?$allocator@D@2@@std@@@Z 0000000180021e38     TakionGui:TakionGui.dll
 0002:00000e40       __imp_?hasInventoryView@TakionTool@@UEBA_NXZ 0000000180021e40     TakionGui:TakionGui.dll
 0002:00000e48       __imp_?isUseOddLotPrints@TakionTool@@UEBA_NXZ 0000000180021e48     TakionGui:TakionGui.dll
 0002:00000e50       __imp_?isAffectedByOddLotPrints@TakionTool@@UEBA_NXZ 0000000180021e50     TakionGui:TakionGui.dll
 0002:00000e58       __imp_?ClearConfig@RowWindowSortable@@MEAAXXZ 0000000180021e58     TakionGui:TakionGui.dll
 0002:00000e60       __imp_?AltKeyDown@TakionTool@@UEAAX_N@Z 0000000180021e60     TakionGui:TakionGui.dll
 0002:00000e68       __imp_?OnKeyMenu@TakionTool@@UEAAXXZ 0000000180021e68     TakionGui:TakionGui.dll
 0002:00000e70       __imp_?UnuseUnselectedSecondaryColumns@RowWindow@@UEAAXXZ 0000000180021e70     TakionGui:TakionGui.dll
 0002:00000e78       __imp_?UnuseUnselectedColumns@RowWindow@@UEAAXXZ 0000000180021e78     TakionGui:TakionGui.dll
 0002:00000e80       __imp_?ToggleTotalCount@TakionTitleTool@@UEAAXXZ 0000000180021e80     TakionGui:TakionGui.dll
 0002:00000e88       __imp_?isShowTotalCount@TakionTitleTool@@UEBA_NXZ 0000000180021e88     TakionGui:TakionGui.dll
 0002:00000e90       __imp_?CanShowTotalCount@RowWindowSortable@@UEBA_NXZ 0000000180021e90     TakionGui:TakionGui.dll
 0002:00000e98       __imp_?ToggleRowCount@TakionTitleTool@@UEAAXXZ 0000000180021e98     TakionGui:TakionGui.dll
 0002:00000ea0       __imp_?isShowRowCount@TakionTitleTool@@UEBA_NXZ 0000000180021ea0     TakionGui:TakionGui.dll
 0002:00000ea8       __imp_?CanShowRowCount@RowWindow@@UEBA_NXZ 0000000180021ea8     TakionGui:TakionGui.dll
 0002:00000eb0       __imp_?TogglePrefixOnly@TakionTitleTool@@UEAAXXZ 0000000180021eb0     TakionGui:TakionGui.dll
 0002:00000eb8       __imp_?isShowPrefixOnly@TakionTitleTool@@UEBA_NXZ 0000000180021eb8     TakionGui:TakionGui.dll
 0002:00000ec0       __imp_?CanShowPrefixOnly@TakionTitleTool@@UEBA_NXZ 0000000180021ec0     TakionGui:TakionGui.dll
 0002:00000ec8       __imp_?ToggleShowTime@TakionTitleTool@@UEAAXXZ 0000000180021ec8     TakionGui:TakionGui.dll
 0002:00000ed0       __imp_?isShowTime@TakionTitleTool@@UEBA_NXZ 0000000180021ed0     TakionGui:TakionGui.dll
 0002:00000ed8       __imp_?CanShowTime@TakionTitleTool@@UEBA_NXZ 0000000180021ed8     TakionGui:TakionGui.dll
 0002:00000ee0       __imp_?ClearSymbols@TakionTool@@UEAAXXZ 0000000180021ee0     TakionGui:TakionGui.dll
 0002:00000ee8       __imp_?CanClearSymbols@TakionTool@@UEBA_NXZ 0000000180021ee8     TakionGui:TakionGui.dll
 0002:00000ef0       __imp_?SelectPositionRows@TakionTool@@UEAAXI@Z 0000000180021ef0     TakionGui:TakionGui.dll
 0002:00000ef8       __imp_?CopyRowsToClipboard@RowWindow@@UEBAX_N@Z 0000000180021ef8     TakionGui:TakionGui.dll
 0002:00000f00       __imp_?CreateNewBasketTradingWindow@TakionTool@@UEBAXXZ 0000000180021f00     TakionGui:TakionGui.dll
 0002:00000f08       __imp_?CopyAllStocksToClipboard@RowWindowSortable@@UEBAXXZ 0000000180021f08     TakionGui:TakionGui.dll
 0002:00000f10       __imp_?CopySelectedStocksToClipboard@RowWindowSortable@@UEBAXXZ 0000000180021f10     TakionGui:TakionGui.dll
 0002:00000f18       __imp_?PasteStocksFromClipboard@RowWindow@@UEAA_N_N@Z 0000000180021f18     TakionGui:TakionGui.dll
 0002:00000f20       __imp_?IncrementQuotePage@TakionTool@@UEAA_N_NI@Z 0000000180021f20     TakionGui:TakionGui.dll
 0002:00000f28       __imp_?SetQuotePage@TakionTool@@UEAA_NI_N@Z 0000000180021f28     TakionGui:TakionGui.dll
 0002:00000f30       __imp_?GetBloombergLinkGroup@TakionTool@@UEBAEXZ 0000000180021f30     TakionGui:TakionGui.dll
 0002:00000f38       __imp_?GetEsignalLinkGroup@TakionTool@@UEBAEXZ 0000000180021f38     TakionGui:TakionGui.dll
 0002:00000f40       __imp_?GetTitleMaxBottom@TakionTool@@UEAAHXZ 0000000180021f40     TakionGui:TakionGui.dll
 0002:00000f48       __imp_?SetExcludeStockActive@TakionTool@@UEAAX_N@Z 0000000180021f48     TakionGui:TakionGui.dll
 0002:00000f50       __imp_?isExcludeStockActive@TakionTool@@UEBA_NXZ 0000000180021f50     TakionGui:TakionGui.dll
 0002:00000f58       __imp_?SetIncludeStockActive@TakionTool@@UEAAX_N@Z 0000000180021f58     TakionGui:TakionGui.dll
 0002:00000f60       __imp_?isIncludeStockActive@TakionTool@@UEBA_NXZ 0000000180021f60     TakionGui:TakionGui.dll
 0002:00000f68       __imp_?HasLastSymbolCommands@TakionTool@@UEBA_NXZ 0000000180021f68     TakionGui:TakionGui.dll
 0002:00000f70       __imp_?CommandRemoved@TakionTool@@UEAAXPEAVCommand@@@Z 0000000180021f70     TakionGui:TakionGui.dll
 0002:00000f78       __imp_?OnUnlink@RowWindowSortableAccount@@UEAAXXZ 0000000180021f78     TakionGui:TakionGui.dll
 0002:00000f80       __imp_?CanLinkToOtherTakion@TakionTool@@UEBA_NXZ 0000000180021f80     TakionGui:TakionGui.dll
 0002:00000f88       __imp_?RemoveLinkedWnd@TakionTool@@UEAAXPEAV1@@Z 0000000180021f88     TakionGui:TakionGui.dll
 0002:00000f90       __imp_?AddLinkedWnd@TakionTool@@UEAAXPEAV1@@Z 0000000180021f90     TakionGui:TakionGui.dll
 0002:00000f98       __imp_?CanLink@TakionTool@@UEBA_NXZ 0000000180021f98     TakionGui:TakionGui.dll
 0002:00000fa0       __imp_?CanDragClient@RowWindowSortable@@UEBA_NIVCPoint@@@Z 0000000180021fa0     TakionGui:TakionGui.dll
 0002:00000fa8       __imp_?SetEquitySymbol@RowWindowSortableAccount@@UEAAXPEBDE_N1@Z 0000000180021fa8     TakionGui:TakionGui.dll
 0002:00000fb0       __imp_?SetEquityNumericSymbol@RowWindowSortableAccount@@UEAAXAEB_KE_N1@Z 0000000180021fb0     TakionGui:TakionGui.dll
 0002:00000fb8       __imp_?ExternalLinkEstablished@TakionTool@@UEAA_NPEAVLinkExternal@@@Z 0000000180021fb8     TakionGui:TakionGui.dll
 0002:00000fc0       __imp_?EstablishAllExternalLinks@TakionTool@@UEAAX_N@Z 0000000180021fc0     TakionGui:TakionGui.dll
 0002:00000fc8       __imp_?ExecuteDebuggingCommand@RowWindowSortable@@UEAAXXZ 0000000180021fc8     TakionGui:TakionGui.dll
 0002:00000fd0       __imp_?GetTitleGraphicsName@TakionTool@@UEBA?AV?$basic_string@DU?$char_traits@D@std@@V?$allocator@D@2@@std@@XZ 0000000180021fd0     TakionGui:TakionGui.dll
 0002:00000fd8       __imp_?UpdateBorderGraphics@TakionTool@@UEAAXPEBVGraphics@@@Z 0000000180021fd8     TakionGui:TakionGui.dll
 0002:00000fe0       __imp_?UpdateTitleGraphicsColors@TakionTool@@UEAA_NPEBVGraphics@@PEBVGraphicsColorCollection@@@Z 0000000180021fe0     TakionGui:TakionGui.dll
 0002:00000fe8       __imp_?UpdateTitleGraphicsColorsCustom@TakionTool@@UEAA_NPEBVGraphicsColorCollection@@@Z 0000000180021fe8     TakionGui:TakionGui.dll
 0002:00000ff0       __imp_?UpdateTitleGraphics@RowWindowSortable@@UEAAXPEBVGraphics@@@Z 0000000180021ff0     TakionGui:TakionGui.dll
 0002:00000ff8       __imp_?UpdateGraphics@RowWindowSortable@@UEAAXXZ 0000000180021ff8     TakionGui:TakionGui.dll
 0002:00001000       __imp_?AddToSpecificToolCollection@RowWindow@@UEAAXXZ 0000000180022000     TakionGui:TakionGui.dll
 0002:00001008       __imp_?DecrementCommandToolOrdinal@TakionTool@@UEAAXXZ 0000000180022008     TakionGui:TakionGui.dll
 0002:00001010       __imp_?isTabbable@TakionTool@@UEBA_NXZ 0000000180022010     TakionGui:TakionGui.dll
 0002:00001018       __imp_?UpdateShowTooltips@RowWindow@@UEAAXXZ 0000000180022018     TakionGui:TakionGui.dll
 0002:00001020       __imp_?PrependLinkMenuItems@TakionTool@@UEAAXAEAVCMenu@@@Z 0000000180022020     TakionGui:TakionGui.dll
 0002:00001028       __imp_?ConnectionLogged@TakionTool@@UEAAXI@Z 0000000180022028     TakionGui:TakionGui.dll
 0002:00001030       __imp_?ConnectionConnected@RowWindowSortableAccount@@UEAAXIGIGEPEBD@Z 0000000180022030     TakionGui:TakionGui.dll
 0002:00001038       __imp_?ConnectionDisconnected@RowWindowSortableAccount@@UEAAXIGIGEPEBD@Z 0000000180022038     TakionGui:TakionGui.dll
 0002:00001040       __imp_?RepaintDefaultOnlyTradingAllowed@TakionTool@@UEAAXXZ 0000000180022040     TakionGui:TakionGui.dll
 0002:00001048       __imp_?NewAccount@RowWindowSortableAccount@@UEAAXPEBVAccount@@@Z 0000000180022048     TakionGui:TakionGui.dll
 0002:00001050       __imp_?AccountDeleted@RowWindowSortableAccount@@UEAAXPEBVAccount@@@Z 0000000180022050     TakionGui:TakionGui.dll
 0002:00001058       __imp_?LoggedToExecutor@RowWindowSortableAccount@@UEAAXXZ 0000000180022058     TakionGui:TakionGui.dll
 0002:00001060       __imp_?AllAccountsLoaded@RowWindowSortableAccount@@UEAAXXZ 0000000180022060     TakionGui:TakionGui.dll
 0002:00001068       __imp_?AccountLoaded@RowWindowSortableAccount@@UEAAXPEBVAccount@@@Z 0000000180022068     TakionGui:TakionGui.dll
 0002:00001070       __imp_?CurrentAccountChanged@RowWindowSortableAccount@@UEAAXPEBVAccount@@@Z 0000000180022070     TakionGui:TakionGui.dll
 0002:00001078       __imp_?DragWindow@TakionTool@@UEAAXHH@Z 0000000180022078     TakionGui:TakionGui.dll
 0002:00001080       __imp_?UpdateAlignTitleValues@TakionTool@@UEAAX_N@Z 0000000180022080     TakionGui:TakionGui.dll
 0002:00001088       __imp_?GetSecurityTitleBottomOffset@TakionTool@@UEBAHXZ 0000000180022088     TakionGui:TakionGui.dll
 0002:00001090       __imp_?GetSecurityTitleRightOffset@TakionTool@@UEBAHXZ 0000000180022090     TakionGui:TakionGui.dll
 0002:00001098       __imp_?GetSecurityTitleLeftOffset@TakionTool@@UEBAHXZ 0000000180022098     TakionGui:TakionGui.dll
 0002:000010a0       __imp_?GetSecurityTitleTopOffset@TakionTool@@UEBAHXZ 00000001800220a0     TakionGui:TakionGui.dll
 0002:000010a8       __imp_?UpdateSecurityTitleLabelGraphicsColors@TakionTool@@UEAA_NPEBVGraphics@@PEBVGraphicsColorCollection@@@Z 00000001800220a8     TakionGui:TakionGui.dll
 0002:000010b0       __imp_?UpdateSecurityTitleLabelGraphicsColorsCustom@TakionTool@@UEAA_NPEBVGraphicsColorCollection@@@Z 00000001800220b0     TakionGui:TakionGui.dll
 0002:000010b8       __imp_?UpdateSecurityTitleValueGraphicsColors@TakionTool@@UEAA_NPEBVGraphics@@PEBVGraphicsColorCollection@@@Z 00000001800220b8     TakionGui:TakionGui.dll
 0002:000010c0       __imp_?UpdateSecurityTitleValueGraphicsColorsCustom@TakionTool@@UEAA_NPEBVGraphicsColorCollection@@@Z 00000001800220c0     TakionGui:TakionGui.dll
 0002:000010c8       __imp_?HasMaxFontSize@TakionTool@@UEBA_NAEBVCPoint@@@Z 00000001800220c8     TakionGui:TakionGui.dll
 0002:000010d0       __imp_?isColorMenu@TakionTool@@UEBA_NAEBVCPoint@@@Z 00000001800220d0     TakionGui:TakionGui.dll
 0002:000010d8       __imp_?isFontMenu@TakionTool@@UEBA_NAEBVCPoint@@@Z 00000001800220d8     TakionGui:TakionGui.dll
 0002:000010e0       __imp_?CopySelection@RowWindow@@UEBAXXZ 00000001800220e0     TakionGui:TakionGui.dll
 0002:000010e8       __imp_?ScrollHorizontally@RowWindow@@UEAAX_NE@Z 00000001800220e8     TakionGui:TakionGui.dll
 0002:000010f0       __imp_?ScrollToExtreme@RowWindow@@UEAAX_NE@Z 00000001800220f0     TakionGui:TakionGui.dll
 0002:000010f8       __imp_?ScrollPage@RowWindow@@UEAAX_NE@Z 00000001800220f8     TakionGui:TakionGui.dll
 0002:00001100       __imp_?ScrollLine@RowWindow@@UEAAX_NE@Z 0000000180022100     TakionGui:TakionGui.dll
 0002:00001108       __imp_?RemoveSecurityFromBasket@TakionTool@@UEAAXPEBVSecurity@@@Z 0000000180022108     TakionGui:TakionGui.dll
 0002:00001110       __imp_?AddSecurityToBasket@TakionTool@@UEAAXPEBVSecurity@@@Z 0000000180022110     TakionGui:TakionGui.dll
 0002:00001118       __imp_?UnExcludeSecurity@TakionTool@@UEAAXPEBVSecurity@@@Z 0000000180022118     TakionGui:TakionGui.dll
 0002:00001120       __imp_?UnIncludeSecurity@TakionTool@@UEAAXPEBVSecurity@@@Z 0000000180022120     TakionGui:TakionGui.dll
 0002:00001128       __imp_?ExcludeSecurity@TakionTool@@UEAAXPEBVSecurity@@@Z 0000000180022128     TakionGui:TakionGui.dll
 0002:00001130       __imp_?IncludeSecurity@TakionTool@@UEAAXPEBVSecurity@@@Z 0000000180022130     TakionGui:TakionGui.dll
 0002:00001138       __imp_?CharStartsEnteringSymbol@TakionTool@@UEBA_NEE@Z 0000000180022138     TakionGui:TakionGui.dll
 0002:00001140       __imp_?SelectAllRows@RowWindowSortable@@UEAAX_N@Z 0000000180022140     TakionGui:TakionGui.dll
 0002:00001148       __imp_?AreAllRowsSelected@RowWindowSortable@@UEBA_NXZ 0000000180022148     TakionGui:TakionGui.dll
 0002:00001150       __imp_?GetCommandToolObjects@TakionTool@@UEBA_NAEA_NAEAV?$basic_string@DU?$char_traits@D@std@@V?$allocator@D@2@@std@@AEAPEBVSecurity@@AEAPEBVAccount@@AEAPEBVPosition@@@Z 0000000180022150     TakionGui:TakionGui.dll
 0002:00001158       __imp_?ActivateOrderBoxIfDisplayed@TakionTool@@UEAAXXZ 0000000180022158     TakionGui:TakionGui.dll
 0002:00001160       __imp_?CloseOrderBoxIfDisplayed@TakionTool@@UEAAXXZ 0000000180022160     TakionGui:TakionGui.dll
 0002:00001168       __imp_?ToggleOneEcnBookQuoteFilter@TakionTool@@UEAAXI@Z 0000000180022168     TakionGui:TakionGui.dll
 0002:00001170       __imp_?SetOneEcnBookQuoteFilter@TakionTool@@UEAAXI_N@Z 0000000180022170     TakionGui:TakionGui.dll
 0002:00001178       __imp_?GetPosition@RowWindowSortableAccount@@UEBAPEBVPosition@@XZ 0000000180022178     TakionGui:TakionGui.dll
 0002:00001180       __imp_?PostAppendWindowMenuInfo@TakionTool@@UEBAXAEAV?$basic_string@DU?$char_traits@D@std@@V?$allocator@D@2@@std@@@Z 0000000180022180     TakionGui:TakionGui.dll
 0002:00001188       __imp_?AppendWindowMenuInfo@RowWindowSortableAccount@@UEBAXAEAV?$basic_string@DU?$char_traits@D@std@@V?$allocator@D@2@@std@@@Z 0000000180022188     TakionGui:TakionGui.dll
 0002:00001190       __imp_?GetAdditionalTitleInfo@RowWindow@@UEBAXAEAV?$basic_string@DU?$char_traits@D@std@@V?$allocator@D@2@@std@@@Z 0000000180022190     TakionGui:TakionGui.dll
 0002:00001198       __imp_?GetLastSecuritySymbol@TakionTool@@UEBA_NAEAV?$basic_string@DU?$char_traits@D@std@@V?$allocator@D@2@@std@@@Z 0000000180022198     TakionGui:TakionGui.dll
 0002:000011a0       __imp_?GetSecuritySymbolPtr@TakionTool@@UEBAPEBDXZ 00000001800221a0     TakionGui:TakionGui.dll
 0002:000011a8       __imp_?GetExternalLinkMask@TakionTool@@UEBA_KXZ 00000001800221a8     TakionGui:TakionGui.dll
 0002:000011b0       __imp_?isCommandToolDefaultExternalLink@TakionTool@@UEBA_NXZ 00000001800221b0     TakionGui:TakionGui.dll
 0002:000011b8       __imp_?UpdateTitleValueGraphics@TakionTool@@UEAAXPEBVGraphics@@@Z 00000001800221b8     TakionGui:TakionGui.dll
 0002:000011c0       __imp_?UpdateTitleLabelGraphics@TakionTool@@UEAAXPEBVGraphics@@@Z 00000001800221c0     TakionGui:TakionGui.dll
 0002:000011c8       __imp_?LoggedToFutureExecutor@RowWindowSortableAccount@@UEAAXXZ 00000001800221c8     TakionGui:TakionGui.dll
 0002:000011d0       __imp_?GetUnderlierSecurity@TakionTool@@UEBAPEBVSecurity@@XZ 00000001800221d0     TakionGui:TakionGui.dll
 0002:000011d8       __imp_?GetContractSize@TakionTool@@UEBAIXZ 00000001800221d8     TakionGui:TakionGui.dll
 0002:000011e0       __imp_?SetStockOption@TakionTool@@UEAAXPEBVSecurity@@E_N@Z 00000001800221e0     TakionGui:TakionGui.dll
 0002:000011e8       __imp_?SetStockOptionByParams@TakionTool@@UEAAXAEB_KAEBVOptionKey@@E_N@Z 00000001800221e8     TakionGui:TakionGui.dll
 0002:000011f0       __imp_?OnOptionDoubleClicked@TakionTool@@UEAAXPEBVSecurity@@@Z 00000001800221f0     TakionGui:TakionGui.dll
 0002:000011f8       __imp_?GetOptionKey@RowWindowSortableAccount@@UEBA_KXZ 00000001800221f8     TakionGui:TakionGui.dll
 0002:00001200       __imp_?isOptionView@TakionTool@@UEBA_NXZ 0000000180022200     TakionGui:TakionGui.dll
 0002:00001208       __imp_?OnSecurityDoubleClicked@TakionTool@@UEAAXAEBV?$basic_string@DU?$char_traits@D@std@@V?$allocator@D@2@@std@@@Z 0000000180022208     TakionGui:TakionGui.dll
 0002:00001210       __imp_?isSaveableToLayout@TakionTool@@UEBA_NXZ 0000000180022210     TakionGui:TakionGui.dll
 0002:00001218       __imp_?CanLinkToSpecificExternalWindow@TakionTool@@UEBA_NPEAUHWND__@@PEBVLinkExternal@@@Z 0000000180022218     TakionGui:TakionGui.dll
 0002:00001220       __imp_?PropagateTempTierSize@TakionTool@@UEAAXI@Z 0000000180022220     TakionGui:TakionGui.dll
 0002:00001228       __imp_?hasSymbolFont@TakionTool@@UEBA_NXZ 0000000180022228     TakionGui:TakionGui.dll
 0002:00001230       __imp_?CanColorScrollBar@TakionTool@@UEBA_NXZ 0000000180022230     TakionGui:TakionGui.dll
 0002:00001238       __imp_?StocksClearedFromCommandToolBasket@RowWindowSortableAccount@@UEAAXXZ 0000000180022238     TakionGui:TakionGui.dll
 0002:00001240       __imp_?StockRemovedFromCommandToolBasket@RowWindowSortableAccount@@UEAAXAEB_K@Z 0000000180022240     TakionGui:TakionGui.dll
 0002:00001248       __imp_?StockAddedToCommandToolBasket@RowWindowSortableAccount@@UEAAXAEB_K@Z 0000000180022248     TakionGui:TakionGui.dll
 0002:00001250       __imp_?SetCommandToolStockBasketMap@RowWindowSortableAccount@@UEAAXPEBV?$CMap@_KAEB_KEAEBE@@@Z 0000000180022250     TakionGui:TakionGui.dll
 0002:00001258       __imp_?GetCommandToolBasketSymbolsPtr@TakionTool@@UEBAPEBV?$CMap@_KAEB_KEAEBE@@XZ 0000000180022258     TakionGui:TakionGui.dll
 0002:00001260       __imp_?FillCommandToolBasketSymbols@TakionTool@@UEBA_NAEAV?$CMap@_KAEB_KEAEBE@@@Z 0000000180022260     TakionGui:TakionGui.dll
 0002:00001268       __imp_?ForceCenter@TakionTool@@UEAAXXZ 0000000180022268     TakionGui:TakionGui.dll
 0002:00001270       __imp_?Center@TakionTool@@UEAAXXZ 0000000180022270     TakionGui:TakionGui.dll
 0002:00001278       __imp_?SetTodaysChartMinMinutesInNode@TakionTool@@UEAAXG@Z 0000000180022278     TakionGui:TakionGui.dll
 0002:00001280       __imp_?SetTodaysChartBounds@TakionTool@@UEAAX_NGGGE@Z 0000000180022280     TakionGui:TakionGui.dll
 0002:00001288       __imp_?SetHistoricalChartParams@TakionTool@@UEAAXIED@Z 0000000180022288     TakionGui:TakionGui.dll
 0002:00001290       __imp_?ExecuteSelectedOrderInSimulation@TakionTool@@UEAAXXZ 0000000180022290     TakionGui:TakionGui.dll
 0002:00001298       __imp_?CancelSelectedAlert@TakionTool@@UEAA_NXZ 0000000180022298     TakionGui:TakionGui.dll
 0002:000012a0       __imp_?CancelSelectedOrder@TakionTool@@UEAAXXZ 00000001800222a0     TakionGui:TakionGui.dll
 0002:000012a8       __imp_?RemoveActiveStock@TakionTool@@UEAAXXZ 00000001800222a8     TakionGui:TakionGui.dll
 0002:000012b0       __imp_?RemoveSelectedStocks@TakionTool@@UEAAXXZ 00000001800222b0     TakionGui:TakionGui.dll
 0002:000012b8       __imp_?ToggleExpandedSelectedRow@RowWindow@@UEAAXXZ 00000001800222b8     TakionGui:TakionGui.dll
 0002:000012c0       __imp_?ExpandAllRows@RowWindow@@UEAAX_N@Z 00000001800222c0     TakionGui:TakionGui.dll
 0002:000012c8       __imp_?ExpandSelectedRows@RowWindow@@UEAAX_N@Z 00000001800222c8     TakionGui:TakionGui.dll
 0002:000012d0       __imp_?GetOrderModuleAbsoluteStopOrLimitCompactPrice@TakionTool@@UEBAIXZ 00000001800222d0     TakionGui:TakionGui.dll
 0002:000012d8       __imp_?GetOrderModuleLimitPrice@TakionTool@@UEBA_NAEAVPrice@@@Z 00000001800222d8     TakionGui:TakionGui.dll
 0002:000012e0       __imp_?GetOrderModuleLimitPriceOffset@TakionTool@@UEBA_NAEAVSignedPrice@@@Z 00000001800222e0     TakionGui:TakionGui.dll
 0002:000012e8       __imp_?isBasket@TakionTool@@UEBA_NXZ 00000001800222e8     TakionGui:TakionGui.dll
 0002:000012f0       __imp_?HasPrints@TakionTool@@UEBA_NXZ 00000001800222f0     TakionGui:TakionGui.dll
 0002:000012f8       __imp_?isDialogOrderBarVisible@TakionTool@@UEBA_NXZ 00000001800222f8     TakionGui:TakionGui.dll
 0002:00001300       __imp_?GetPositionSize@TakionTool@@UEBAHXZ 0000000180022300     TakionGui:TakionGui.dll
 0002:00001308       __imp_?isVertical@TakionTool@@UEBA_NXZ 0000000180022308     TakionGui:TakionGui.dll
 0002:00001310       __imp_?isConsolidated@TakionTool@@UEBA_NXZ 0000000180022310     TakionGui:TakionGui.dll
 0002:00001318       __imp_?GetLuldHigh@TakionTool@@UEBAAEBVPrice@@XZ 0000000180022318     TakionGui:TakionGui.dll
 0002:00001320       __imp_?GetLuldLow@TakionTool@@UEBAAEBVPrice@@XZ 0000000180022320     TakionGui:TakionGui.dll
 0002:00001328       __imp_?GetImbExNear@TakionTool@@UEBAAEBVPrice@@XZ 0000000180022328     TakionGui:TakionGui.dll
 0002:00001330       __imp_?GetLevel2Ask@TakionTool@@UEBAAEBVPrice@@XZ 0000000180022330     TakionGui:TakionGui.dll
 0002:00001338       __imp_?GetLevel2Bid@TakionTool@@UEBAAEBVPrice@@XZ 0000000180022338     TakionGui:TakionGui.dll
 0002:00001340       __imp_?GetLevel1Ask@TakionTool@@UEBAAEBVPrice@@XZ 0000000180022340     TakionGui:TakionGui.dll
 0002:00001348       __imp_?GetLevel1Bid@TakionTool@@UEBAAEBVPrice@@XZ 0000000180022348     TakionGui:TakionGui.dll
 0002:00001350       __imp_?GetStockRoundLot@TakionTool@@UEBAAEBIXZ 0000000180022350     TakionGui:TakionGui.dll
 0002:00001358       __imp_?isBasketClosingOnly@TakionTool@@UEBA_NXZ 0000000180022358     TakionGui:TakionGui.dll
 0002:00001360       __imp_?isBasketPassiveOnly@TakionTool@@UEBA_NXZ 0000000180022360     TakionGui:TakionGui.dll
 0002:00001368       __imp_?isBasketNoTrading@TakionTool@@UEBA_NXZ 0000000180022368     TakionGui:TakionGui.dll
 0002:00001370       __imp_?GetNextSecurity@TakionTool@@UEBAPEBVSecurity@@W4BasketSecurityType@@AEAIAEAHAEAVPrice@@3AEAPEBVPosition@@_N@Z 0000000180022370     TakionGui:TakionGui.dll
 0002:00001378       __imp_?ResetStockIterator@TakionTool@@UEBAXXZ 0000000180022378     TakionGui:TakionGui.dll
 0002:00001380       __imp_?GetTierSize@TakionTool@@UEBAIXZ 0000000180022380     TakionGui:TakionGui.dll
 0002:00001388       __imp_?GetBorrowSize@TakionTool@@UEBAIXZ 0000000180022388     TakionGui:TakionGui.dll
 0002:00001390       __imp_?GetFirstQuote@TakionTool@@UEBAPEBVQuote@@_N0@Z 0000000180022390     TakionGui:TakionGui.dll
 0002:00001398       __imp_?GetEcnAsk@TakionTool@@UEBAAEBVPrice@@XZ 0000000180022398     TakionGui:TakionGui.dll
 0002:000013a0       __imp_?GetEcnBid@TakionTool@@UEBAAEBVPrice@@XZ 00000001800223a0     TakionGui:TakionGui.dll
 0002:000013a8       __imp_?ShowOrderDialog@TakionTool@@UEAA_NPEAVCustomDialogOrderCommand@@@Z 00000001800223a8     TakionGui:TakionGui.dll
 0002:000013b0       __imp_?GetFullMarketCategoryFilter@TakionTool@@UEBAIXZ 00000001800223b0     TakionGui:TakionGui.dll
 0002:000013b8       __imp_?RefreshWindow@TakionTool@@UEAAXXZ 00000001800223b8     TakionGui:TakionGui.dll
 0002:000013c0       __imp_?ClearDrawType@TakionTool@@UEAAXEE@Z 00000001800223c0     TakionGui:TakionGui.dll
 0002:000013c8       __imp_?SetToDrawLine@TakionTool@@UEAAXE@Z 00000001800223c8     TakionGui:TakionGui.dll
 0002:000013d0       __imp_?GetLinkedWindows@TakionTool@@UEAAPEAV?$PtrCollection@VTakionTool@@V?$unordered_set@PEAVTakionTool@@U?$hash@PEAVTakionTool@@@std@@U?$equal_to@PEAVTakionTool@@@3@V?$allocator@PEAVTakionTool@@@3@@std@@@@XZ 00000001800223d0     TakionGui:TakionGui.dll
 0002:000013d8       __imp_?isTimeFrameInMinutes@TakionTool@@UEBA_NXZ 00000001800223d8     TakionGui:TakionGui.dll
 0002:000013e0       __imp_?GetCurrentAccount@TakionTool@@UEBAPEBVAccount@@XZ 00000001800223e0     TakionGui:TakionGui.dll
 0002:000013e8       __imp_?UpdateTitleRects@RowWindowSortable@@MEAAXXZ 00000001800223e8     TakionGui:TakionGui.dll
 0002:000013f0       __imp_?ResizeBorder@RowWindow@@MEAA_NH@Z 00000001800223f0     TakionGui:TakionGui.dll
 0002:000013f8       __imp_?TitleFontChanged@RowWindowSortable@@MEAAXXZ 00000001800223f8     TakionGui:TakionGui.dll
 0002:00001400       __imp_?OnTitleResize@RowWindowSortable@@MEAAXXZ 0000000180022400     TakionGui:TakionGui.dll
 0002:00001408       __imp_?PreSuccessfulCreate@RowWindow@@MEAAXXZ 0000000180022408     TakionGui:TakionGui.dll
 0002:00001410       __imp_?DoSize@TakionTool@@MEAAXIHHHH@Z 0000000180022410     TakionGui:TakionGui.dll
 0002:00001418       __imp_?DoPaint@RowWindow@@MEAAXAEBUtagRECT@@AEAVCDC@@@Z 0000000180022418     TakionGui:TakionGui.dll
 0002:00001420       __imp_?ClientSetCursor@RowWindowSortable@@MEAA_NXZ 0000000180022420     TakionGui:TakionGui.dll
 0002:00001428       __imp_?MouseLeft@RowWindow@@MEAAXXZ 0000000180022428     TakionGui:TakionGui.dll
 0002:00001430       __imp_?DoActivate@RowWindow@@MEAAXI_N@Z 0000000180022430     TakionGui:TakionGui.dll
 0002:00001438       __imp_?AfterDestroy@RowWindow@@MEAAXXZ 0000000180022438     TakionGui:TakionGui.dll
 0002:00001440       __imp_?UpdateResizeCursor@RowWindow@@MEAAEAEBVCPoint@@_N@Z 0000000180022440     TakionGui:TakionGui.dll
 0002:00001448       __imp_?ResizeMouseArea@RowWindow@@MEAA_NAEBVCPoint@@_N@Z 0000000180022448     TakionGui:TakionGui.dll
 0002:00001450       __imp_?PreAddMenuItems@RowWindowSortableAccount@@MEAAXAEAVCMenu@@@Z 0000000180022450     TakionGui:TakionGui.dll
 0002:00001458       __imp_?DisplayClientMenu@RowWindow@@MEAAXIVCPoint@@@Z 0000000180022458     TakionGui:TakionGui.dll
 0002:00001460       __imp_?DoApplyFilter@RowWindow@@MEAAXAEBVTakionFilter@@_N@Z 0000000180022460     TakionGui:TakionGui.dll
 0002:00001468       __imp_?AddToToolCollection@TakionTool@@UEAA_NXZ 0000000180022468     TakionGui:TakionGui.dll
 0002:00001470       __imp_?AfterPasting@TakionTool@@MEAAXXZ 0000000180022470     TakionGui:TakionGui.dll
 0002:00001478       __imp_?AfterCloning@TakionTool@@MEAAXXZ 0000000180022478     TakionGui:TakionGui.dll
 0002:00001480       __imp_?RemoveFromVisibleTools@TakionTool@@MEAA_NXZ 0000000180022480     TakionGui:TakionGui.dll
 0002:00001488       __imp_?AddToVisibleTools@TakionTool@@MEAAXXZ 0000000180022488     TakionGui:TakionGui.dll
 0002:00001490       __imp_?SetFrameRect@TakionTool@@MEAAXAEBVCRect@@@Z 0000000180022490     TakionGui:TakionGui.dll
 0002:00001498       __imp_?CalculateTop@TakionTool@@UEBAHXZ 0000000180022498     TakionGui:TakionGui.dll
 0002:000014a0       __imp_?GetLayer@TakionTool@@UEBAIXZ 00000001800224a0     TakionGui:TakionGui.dll
 0002:000014a8       __imp_?GetWorkspace@TakionTool@@UEBAIXZ 00000001800224a8     TakionGui:TakionGui.dll
 0002:000014b0       __imp_?isHidden@TakionTool@@UEBA_NXZ 00000001800224b0     TakionGui:TakionGui.dll
 0002:000014b8       __imp_?isCommandTool@TakionTool@@UEBA_NXZ 00000001800224b8     TakionGui:TakionGui.dll
 0002:000014c0       __imp_?GetToolOrdinal@TakionTool@@UEBAAEBIXZ 00000001800224c0     TakionGui:TakionGui.dll
 0002:000014c8       __imp_?isTool@TakionTool@@UEBA_NXZ 00000001800224c8     TakionGui:TakionGui.dll
 0002:000014d0       __imp_?isRemoved@TakionTool@@UEBA_NXZ 00000001800224d0     TakionGui:TakionGui.dll
 0002:000014d8       __imp_?ToggleMaximized@TakionTool@@UEAA_NXZ 00000001800224d8     TakionGui:TakionGui.dll
 0002:000014e0       __imp_?GetScrollVerticalOffset@RowWindow@@UEBAHXZ 00000001800224e0     TakionGui:TakionGui.dll
 0002:000014e8       __imp_?GetScrollHorizontalOffset@RowWindow@@UEBAHXZ 00000001800224e8     TakionGui:TakionGui.dll
 0002:000014f0       __imp_?GetSysMenu@TakionTool@@UEBAPEAVCMenu@@XZ 00000001800224f0     TakionGui:TakionGui.dll
 0002:000014f8       __imp_?GetInitialHeight@TakionTool@@UEBAHXZ 00000001800224f8     TakionGui:TakionGui.dll
 0002:00001500       __imp_?GetInitialWidth@TakionTool@@UEBAHXZ 0000000180022500     TakionGui:TakionGui.dll
 0002:00001508       __imp_?GetNormalRect@TakionTool@@UEBAAEBVCRect@@XZ 0000000180022508     TakionGui:TakionGui.dll
 0002:00001510       __imp_?GetTakionNamedFilter@RowWindow@@UEBAPEBVTakionFilter@@XZ 0000000180022510     TakionGui:TakionGui.dll
 0002:00001518       __imp_?NullifyNamedFilter@RowWindow@@UEAAXXZ 0000000180022518     TakionGui:TakionGui.dll
 0002:00001520       __imp_?SetTakionNamedFilter@RowWindow@@UEAAXPEAVTakionFilter@@AEBV?$basic_string@DU?$char_traits@D@std@@V?$allocator@D@2@@std@@@Z 0000000180022520     TakionGui:TakionGui.dll
 0002:00001528       __imp_?GetGraphicsTabInitInfo@RowWindowSortable@@UEBAPEBXAEBVCPoint@@@Z 0000000180022528     TakionGui:TakionGui.dll
 0002:00001530       __imp_?GetSettingsTabInitInfo@TakionTool@@UEBAPEBXAEBVCPoint@@@Z 0000000180022530     TakionGui:TakionGui.dll
 0002:00001538       __imp_?GetSettingsTabPath@TakionTool@@UEBAPEBDAEBVCPoint@@@Z 0000000180022538     TakionGui:TakionGui.dll
 0002:00001540       __imp_?CreateTakionWnd@TakionTool@@UEAA_NPEBVCRect@@_N@Z 0000000180022540     TakionGui:TakionGui.dll
 0002:00001548       __imp_?SetCustomColors@RowWindowSortable@@UEAAXPEBVGraphics@@PEAVGraphicsColorCollection@@PEBKG_NAEBVFilterStringAsNumberArray@@@Z 0000000180022548     TakionGui:TakionGui.dll
 0002:00001550       __imp_?SetCustomFont@RowWindowSortable@@UEAAXAEBVFontDescription@@_NI@Z 0000000180022550     TakionGui:TakionGui.dll
 0002:00001558       __imp_?GetCurrentFontParams@RowWindowSortable@@UEBA_NAEAV?$basic_string@DU?$char_traits@D@std@@V?$allocator@D@2@@std@@AEAVFontDescription@@1AEA_NAEAI@Z 0000000180022558     TakionGui:TakionGui.dll
 0002:00001560       __imp_?GetWindowName@TakionTool@@UEBAPEBDXZ 0000000180022560     TakionGui:TakionGui.dll
 0002:00001568       __imp_?GetTitleColorTextInactive@RowWindow@@UEBAKXZ 0000000180022568     TakionGui:TakionGui.dll
 0002:00001570       __imp_?GetTitleColorTextActive@RowWindow@@UEBAKXZ 0000000180022570     TakionGui:TakionGui.dll
 0002:00001578       __imp_?GetTitleColorInactive@RowWindow@@UEBAKXZ 0000000180022578     TakionGui:TakionGui.dll
 0002:00001580       __imp_?GetTitleColorActive@RowWindow@@UEBAKXZ 0000000180022580     TakionGui:TakionGui.dll
 0002:00001588       __imp_?OnMouseForcedReleaseCapture@RowWindowSortable@@MEAAXXZ 0000000180022588     TakionGui:TakionGui.dll
 0002:00001590       __imp_?MeasureMenuItem@RowWindowSortableAccount@@MEAA_NPEAUtagMEASUREITEMSTRUCT@@@Z 0000000180022590     TakionGui:TakionGui.dll
 0002:00001598       __imp_?DrawMenuItem@RowWindowSortableAccount@@MEAAXPEAUtagDRAWITEMSTRUCT@@@Z 0000000180022598     TakionGui:TakionGui.dll
 0002:000015a0       __imp_?PreTranslateMessage@RowWindowSortableAccount@@MEAAHPEAUtagMSG@@@Z 00000001800225a0     TakionGui:TakionGui.dll
 0002:000015a8       __imp_?HighReached@SecurityChartRow@@MEAAX_N@Z 00000001800225a8     TakionGui:TakionGui.dll
 0002:000015b0       __imp_?LowReached@SecurityChartRow@@MEAAX_N@Z 00000001800225b0     TakionGui:TakionGui.dll
 0002:000015b8       __imp_??0ComboBoxAccount@@QEAA@KPEBD_N0@Z 00000001800225b8     TakionGui:TakionGui.dll
 0002:000015c0       __imp_??1ComboBoxAccount@@UEAA@XZ 00000001800225c0     TakionGui:TakionGui.dll
 0002:000015c8       __imp_TGUI_GetModuleVersionNum 00000001800225c8     TakionGui:TakionGui.dll
 0002:000015d0       __imp_TGUI_GetTakionMainWnd 00000001800225d0     TakionGui:TakionGui.dll
 0002:000015d8       __imp_TGUI_UpdateExtensionRow 00000001800225d8     TakionGui:TakionGui.dll
 0002:000015e0       __imp_??0ExtensionMainDialog@@QEAA@HHPEBD0_K0KH_NH00QEAUHINSTANCE__@@2@Z 00000001800225e0     TakionGui:TakionGui.dll
 0002:000015e8       __imp_?CurrentAccountSet@ExtensionMainDialog@@UEAA_NPEAVAccount@@@Z 00000001800225e8     TakionGui:TakionGui.dll
 0002:000015f0       __imp_?PreTranslateMessage@ExtensionMainDialog@@MEAAHPEAUtagMSG@@@Z 00000001800225f0     TakionGui:TakionGui.dll
 0002:000015f8       __imp_?OnOK@ExtensionMainDialog@@MEAAXXZ 00000001800225f8     TakionGui:TakionGui.dll
 0002:00001600       __imp_?TabNcDoubleClicked@ExtensionMainDialog@@UEAAXXZ 0000000180022600     TakionGui:TakionGui.dll
 0002:00001608       __imp_??1ExtensionMainDialog@@UEAA@XZ 0000000180022608     TakionGui:TakionGui.dll
 0002:00001610       __imp_??0PriceRowValue@@QEAA@PEB_NPEBE0_N2@Z 0000000180022610     TakionGui:TakionGui.dll
 0002:00001618       __imp_??1PriceRowValue@@UEAA@XZ 0000000180022618     TakionGui:TakionGui.dll
 0002:00001620       __imp_??0CompactPriceRowValue@@QEAA@PEB_NPEBE0_N2@Z 0000000180022620     TakionGui:TakionGui.dll
 0002:00001628       __imp_??1CompactPriceRowValue@@UEAA@XZ 0000000180022628     TakionGui:TakionGui.dll
 0002:00001630       __imp_??0SignedPriceRowValue@@QEAA@PEB_NPEBE0AEB_N22@Z 0000000180022630     TakionGui:TakionGui.dll
 0002:00001638       __imp_??1SignedPriceRowValue@@UEAA@XZ 0000000180022638     TakionGui:TakionGui.dll
 0002:00001640       __imp_?CompareValue@?$TypedRowValue@VSignedPrice@@@@UEBAFAEBVSignedPrice@@@Z 0000000180022640     TakionGui:TakionGui.dll
 0002:00001648       __imp_?SetValue@?$TypedNumericRowValue@VSignedPrice@@@@UEAA_NAEBVSignedPrice@@@Z 0000000180022648     TakionGui:TakionGui.dll
 0002:00001650       __imp_?CompareToZero@?$TypedNumericRowValue@VSignedPrice@@@@UEBAFAEBVSignedPrice@@@Z 0000000180022650     TakionGui:TakionGui.dll
 0002:00001658       __imp_?CalculateTick@?$TypedNumericRowValue@VSignedPrice@@@@MEAAXAEBVSignedPrice@@AEAV2@@Z 0000000180022658     TakionGui:TakionGui.dll
 0002:00001660       __imp_??0IntRowValue@@QEAA@PEB_N_N11@Z 0000000180022660     TakionGui:TakionGui.dll
 0002:00001668       __imp_?zero@IntRowValue@@2HB 0000000180022668     TakionGui:TakionGui.dll
 0002:00001670       __imp_??1IntRowValue@@UEAA@XZ 0000000180022670     TakionGui:TakionGui.dll
 0002:00001678       __imp_?uint64Zero@Row@@2_KB 0000000180022678     TakionGui:TakionGui.dll
 0002:00001680       __imp_?AddPrint@SecurityChartRow@@UEAAXAEBVPrice@@IDE@Z 0000000180022680     TakionGui:TakionGui.dll
 0002:00001688       __imp_?SetEndChartMinute@SecurityChartRow@@UEAA_NG_N@Z 0000000180022688     TakionGui:TakionGui.dll
 0002:00001690       __imp_??0RowSortable@@IEAA@GPEAVRowWindowSortable@@_N@Z 0000000180022690     TakionGui:TakionGui.dll
 0002:00001698       __imp_?UpdateRowValueIterators@RowDynamic@@QEAAXXZ 0000000180022698     TakionGui:TakionGui.dll
 0002:000016a0       __imp_??1RowSortable@@UEAA@XZ 00000001800226a0     TakionGui:TakionGui.dll
 0002:000016a8       __imp_??0SecurityChartRow@@QEAA@PEBVSecurity@@PEBVPosition@@GG@Z 00000001800226a8     TakionGui:TakionGui.dll
 0002:000016b0       __imp_?GetTimeFrameInSeconds@TakionTool@@UEBAGXZ 00000001800226b0     TakionGui:TakionGui.dll
 0002:000016b8       __imp_??1SecurityChartRow@@UEAA@XZ 00000001800226b8     TakionGui:TakionGui.dll
 0002:000016c0       __imp_?SetRowValue@RowDynamic@@QEAA_NGPEAVRowValue@@_N@Z 00000001800226c0     TakionGui:TakionGui.dll
 0002:000016c8       __imp_??0PositionIntInventoryRowValueNull@@QEAA@AEBQEBVPositionData@@AEB_NPEB_NP81@EBAAEBH1@Z_N4@Z 00000001800226c8     TakionGui:TakionGui.dll
 0002:000016d0       __imp_?UpdateRow@RowWindowSortable@@QEAA_NPEAVRowSortable@@_N1@Z 00000001800226d0     TakionGui:TakionGui.dll
 0002:000016d8       __imp_?SetCurrentMinute@SecurityChartRow@@UEAA_NG_N@Z 00000001800226d8     TakionGui:TakionGui.dll
 0002:000016e0       __imp_?InitializeChart@SecurityChartRow@@UEAA_NE@Z 00000001800226e0     TakionGui:TakionGui.dll
 0002:000016e8       __imp_?CalculateValues@SecurityChartRow@@IEAAXXZ 00000001800226e8     TakionGui:TakionGui.dll
 0002:000016f0       __imp_?RemoveRow@RowWindowSortable@@UEAAPEAVRowSortable@@PEAV2@@Z 00000001800226f0     TakionGui:TakionGui.dll
 0002:000016f8       __imp_?drawColor@Row@@1KA  00000001800226f8     TakionGui:TakionGui.dll
 0002:00001700       __imp_?Update@RowSortable@@UEAAX_N@Z 0000000180022700     TakionGui:TakionGui.dll
 0002:00001708       __imp_?UpdateAndInvalidate@RowSortable@@UEAAXAEAVCRect@@_N@Z 0000000180022708     TakionGui:TakionGui.dll
 0002:00001710       __imp_?Initialize@Row@@UEAAXXZ 0000000180022710     TakionGui:TakionGui.dll
 0002:00001718       __imp_?SetPosition@SecurityChartRow@@UEAA_NPEBVPosition@@@Z 0000000180022718     TakionGui:TakionGui.dll
 0002:00001720       __imp_?ApplyPosition@Row@@QEAAXGPEBVPositionData@@@Z 0000000180022720     TakionGui:TakionGui.dll
 0002:00001728       __imp_?SetPosition@RowValue@@UEAAXPEBVPositionData@@@Z 0000000180022728     TakionGui:TakionGui.dll
 0002:00001730       __imp_?AddColumn@Columns@@QEAA_NPEBDGHE_N10111E111I1@Z 0000000180022730     TakionGui:TakionGui.dll
 0002:00001738       __imp_?OnSuccessfulCreate@RowWindowSortable@@MEAAXXZ 0000000180022738     TakionGui:TakionGui.dll
 0002:00001740       __imp_?AddInventoryColumn@Columns@@QEAAXGE@Z 0000000180022740     TakionGui:TakionGui.dll
 0002:00001748       __imp_?UpdateHistoryLoad@RowWindowSortableAccount@@IEAAXXZ 0000000180022748     TakionGui:TakionGui.dll
 0002:00001750       __imp_?InvalidateDataAtColumn@RowWindow@@UEBAXG@Z 0000000180022750     TakionGui:TakionGui.dll
 0002:00001758       __imp_?UpdateRowValue@RowSortable@@QEAAXAEBG@Z 0000000180022758     TakionGui:TakionGui.dll
 0002:00001760       __imp_?CurrentAccountLoaded@RowWindowSortableAccount@@UEAAXXZ 0000000180022760     TakionGui:TakionGui.dll
 0002:00001768       __imp_?NewRow@RowWindowSortable@@UEAAPEAVRow@@PEBX@Z 0000000180022768     TakionGui:TakionGui.dll
 0002:00001770       __imp_?GetSortId@Columns@@QEBAGXZ 0000000180022770     TakionGui:TakionGui.dll
 0002:00001778       __imp_?ClearRowsTemporarily@RowWindowSortable@@MEAAXXZ 0000000180022778     TakionGui:TakionGui.dll
 0002:00001780       __imp_?UnselectAllRows@RowWindowSortable@@UEAA_N_N@Z 0000000180022780     TakionGui:TakionGui.dll
 0002:00001788       __imp_?ProcessRowBelonging@RowWindowSortable@@IEAA_NPEAVRowSortable@@E_N@Z 0000000180022788     TakionGui:TakionGui.dll
 0002:00001790       __imp_?isPotential@RowSortable@@UEBA_NXZ 0000000180022790     TakionGui:TakionGui.dll
 0002:00001798       __imp_?ReInsertRow@RowWindowSortable@@IEAA_NPEAVRowSortable@@AEA_K@Z 0000000180022798     TakionGui:TakionGui.dll
 0002:000017a0       __imp_?RepaintOnPopulation@RowWindowSortable@@UEAAX_N@Z 00000001800227a0     TakionGui:TakionGui.dll
 0002:000017a8       __imp_?FindObject@RowWindowSortable@@QEAAPEAVRowSortable@@PEBX@Z 00000001800227a8     TakionGui:TakionGui.dll
 0002:000017b0       __imp_?DestroyRows@RowWindowSortable@@UEAAXXZ 00000001800227b0     TakionGui:TakionGui.dll
 0002:000017b8       __imp_??0RowWindowSortableAccount@@IEAA@_NPEBVCBitmap@@I0HHHHHHHPEBDHHH@Z 00000001800227b8     TakionGui:TakionGui.dll
 0002:000017c0       __imp_??1RowWindowSortableAccount@@UEAA@XZ 00000001800227c0     TakionGui:TakionGui.dll
 0002:000017c8       __imp_?SetFontRow@Columns@@QEAAXAEBVFontDescription@@@Z 00000001800227c8     TakionGui:TakionGui.dll
 0002:000017d0       __imp_?UpdateRowMetrics@Columns@@IEAAXXZ 00000001800227d0     TakionGui:TakionGui.dll
 0002:000017d8       __imp_?GetThisMessageMap@RowWindowSortableAccount@@KAPEBUAFX_MSGMAP@@XZ 00000001800227d8     TakionGui:TakionGui.dll
 0002:000017e0       __imp_?AddMenuItems@RowWindowSortable@@MEAAXAEAVCMenu@@@Z 00000001800227e0     TakionGui:TakionGui.dll
 0002:000017e8       __imp_?GetSecurity@TakionTool@@UEBAPEBVSecurity@@XZ 00000001800227e8     TakionGui:TakionGui.dll
 0002:000017f0       __imp_?GetStringSymbolPtr@TakionTool@@UEBAPEBDAEAE@Z 00000001800227f0     TakionGui:TakionGui.dll
 0002:000017f8       __imp_?PostAddMenuItems@RowWindowSortableAccount@@MEAAXAEAVCMenu@@@Z 00000001800227f8     TakionGui:TakionGui.dll
 0002:00001800       __imp_?NextDayStarted@RowWindowSortable@@MEAAXXZ 0000000180022800     TakionGui:TakionGui.dll
 0002:00001808       __imp_?BeforeDestroy@RowWindowSortable@@MEAAXXZ 0000000180022808     TakionGui:TakionGui.dll
 0002:00001810       __imp_?RemoveActiveRowsTemporarily@RowWindowSortable@@IEAAXAEAPEAVRowSortable@@0AEB_K1@Z 0000000180022810     TakionGui:TakionGui.dll
 0002:00001818       __imp_?ReInsertActiveRows@RowWindowSortable@@IEAA_NAEAPEAVRowSortable@@0@Z 0000000180022818     TakionGui:TakionGui.dll
 0002:00001820       __imp_?toString@RowWindowSortableAccount@@UEBAXAEAV?$basic_string@DU?$char_traits@D@std@@V?$allocator@D@2@@std@@I@Z 0000000180022820     TakionGui:TakionGui.dll
 0002:00001828       __imp_?fromString@RowWindowSortableAccount@@UEAAXAEAPEBD_K_NI@Z 0000000180022828     TakionGui:TakionGui.dll
 0002:00001830       __imp_?RemoveNotBelongingRows@RowWindowSortable@@UEAA_N_N@Z 0000000180022830     TakionGui:TakionGui.dll
 0002:00001838       __imp_?fromScratch@RowWindowSortableAccount@@UEAAXXZ 0000000180022838     TakionGui:TakionGui.dll
 0002:00001840       __imp_?GetEntryPoint@TakionTool@@UEBAXAEAVCPoint@@@Z 0000000180022840     TakionGui:TakionGui.dll
 0002:00001848       __imp_?ProcessKeyDown@TakionTool@@MEAA_NEE_NPEAVTakionFrame@@@Z 0000000180022848     TakionGui:TakionGui.dll
 0002:00001850       __imp_?AcceptText@TakionTitleTool@@MEAAXPEBDI@Z 0000000180022850     TakionGui:TakionGui.dll
 0002:00001858       __imp_?SelectRowByObject@RowWindowSortable@@QEAAPEAVRowSortable@@PEBX@Z 0000000180022858     TakionGui:TakionGui.dll
 0002:00001860       __imp_?OnCommand@RowWindowSortableAccount@@MEAAH_K_J@Z 0000000180022860     TakionGui:TakionGui.dll
 0002:00001868       __imp_??1PositionIntInventoryRowValueNull@@UEAA@XZ 0000000180022868     TakionGui:TakionGui.dll
 0002:00001870       __imp_?CanBeNegative@RowValue@@UEBA_NXZ 0000000180022870     TakionGui:TakionGui.dll
 0002:00001878       __imp_?CompareValueToZero@?$TypedNumericRowValue@H@@UEBAFXZ 0000000180022878     TakionGui:TakionGui.dll
 0002:00001880       __imp_?isValueZero@?$TypedNumericRowValue@H@@UEBA_NXZ 0000000180022880     TakionGui:TakionGui.dll
 0002:00001888       __imp_?isObjectValueZero@?$TypedNumericRowValue@H@@UEBA_NXZ 0000000180022888     TakionGui:TakionGui.dll
 0002:00001890       __imp_?UpdateValue@?$TypedRowValue@H@@UEAA_NXZ 0000000180022890     TakionGui:TakionGui.dll
 0002:00001898       __imp_?InitValue@?$TypedRowValue@H@@UEAAXXZ 0000000180022898     TakionGui:TakionGui.dll
 0002:000018a0       __imp_?InitializeValue@?$TypedRowValue@H@@MEAAXXZ 00000001800228a0     TakionGui:TakionGui.dll
 0002:000018a8       __imp_?isValueChanged@PositionIntInventoryRowValueNull@@UEBA_NXZ 00000001800228a8     TakionGui:TakionGui.dll
 0002:000018b0       __imp_?isValueChanged@?$TypedRowValue@H@@UEBA_NXZ 00000001800228b0     TakionGui:TakionGui.dll
 0002:000018b8       __imp_?toString@IntRowValue@@UEBAXAEAV?$basic_string@DU?$char_traits@D@std@@V?$allocator@D@2@@std@@@Z 00000001800228b8     TakionGui:TakionGui.dll
 0002:000018c0       __imp_?Compare@?$TypedRowValue@H@@UEBAFAEBVRowValue@@@Z 00000001800228c0     TakionGui:TakionGui.dll
 0002:000018c8       __imp_?CompareValue@?$TypedRowValue@H@@UEBAFAEBH@Z 00000001800228c8     TakionGui:TakionGui.dll
 0002:000018d0       __imp_?CompareAhead@?$TypedRowValue@H@@UEBAFAEBVRowValue@@@Z 00000001800228d0     TakionGui:TakionGui.dll
 0002:000018d8       __imp_?isValueEmpty@PositionIntInventoryRowValueNull@@UEBA_NXZ 00000001800228d8     TakionGui:TakionGui.dll
 0002:000018e0       __imp_?isObjectValueEmpty@PositionIntInventoryRowValueNull@@UEBA_NXZ 00000001800228e0     TakionGui:TakionGui.dll
 0002:000018e8       __imp_?NullifyTick@?$TypedNumericRowValue@H@@UEAAXXZ 00000001800228e8     TakionGui:TakionGui.dll
 0002:000018f0       __imp_?NullifyLastDiff@?$TypedNumericRowValue@H@@UEBAXXZ 00000001800228f0     TakionGui:TakionGui.dll
 0002:000018f8       __imp_?Add@?$TypedNumericRowValue@H@@UEAA_NAEBVRowValue@@@Z 00000001800228f8     TakionGui:TakionGui.dll
 0002:00001900       __imp_?SetValue@?$TypedNumericRowValue@H@@UEAA_NAEBH@Z 0000000180022900     TakionGui:TakionGui.dll
 0002:00001908       __imp_?CompareToZero@?$TypedNumericRowValue@H@@UEBAFAEBH@Z 0000000180022908     TakionGui:TakionGui.dll
 0002:00001910       __imp_?CalculateTick@?$TypedNumericRowValue@H@@MEAAXAEBHAEAH@Z 0000000180022910     TakionGui:TakionGui.dll
 0002:00001918       __imp_?Subtract@?$TypedNumericRowValue@H@@UEAA_NAEBVRowValue@@@Z 0000000180022918     TakionGui:TakionGui.dll
 0002:00001920       __imp_?Adjust@?$TypedNumericRowValue@H@@UEAA_NAEBVRowValue@@@Z 0000000180022920     TakionGui:TakionGui.dll
 0002:00001928       __imp_?Reset@?$TypedNumericRowValue@H@@UEAAXXZ 0000000180022928     TakionGui:TakionGui.dll
 0002:00001930       __imp_?GetCount@RowValue@@UEBAIXZ 0000000180022930     TakionGui:TakionGui.dll
 0002:00001938       __imp_?GetTickMillisecond@?$TypedNumericRowValue@H@@UEBAIXZ 0000000180022938     TakionGui:TakionGui.dll
 0002:00001940       __imp_?GetStringValue@RowValue@@UEBAPEBDXZ 0000000180022940     TakionGui:TakionGui.dll
 0002:00001948       __imp_?GetUIntValue@RowValue@@UEBAIXZ 0000000180022948     TakionGui:TakionGui.dll
 0002:00001950       __imp_?GetUInt64Value@RowValue@@UEBA_KXZ 0000000180022950     TakionGui:TakionGui.dll
 0002:00001958       __imp_?GetIntValue@IntRowValue@@UEBAHXZ 0000000180022958     TakionGui:TakionGui.dll
 0002:00001960       __imp_?GetPriceValue@RowValue@@UEBA?AVPrice@@XZ 0000000180022960     TakionGui:TakionGui.dll
 0002:00001968       __imp_?GetSignedPriceValue@RowValue@@UEBA?AVSignedPrice@@XZ 0000000180022968     TakionGui:TakionGui.dll
 0002:00001970       __imp_?SetPosition@PositionIntInventoryRowValue@@UEAAXPEBVPositionData@@@Z 0000000180022970     TakionGui:TakionGui.dll
 0002:00001978       __imp_?SetSecurity@RowValue@@UEAAXPEBVSecurity@@@Z 0000000180022978     TakionGui:TakionGui.dll
 0002:00001980       __imp_?isComma@?$CommaRowValue@H@@UEBAPEB_NXZ 0000000180022980     TakionGui:TakionGui.dll
 0002:00001988       __imp_?SetComma@?$CommaRowValue@H@@UEAAXPEB_N@Z 0000000180022988     TakionGui:TakionGui.dll
 0002:00001990       __imp_?GetDecDigits@RowValue@@UEBAPEBEXZ 0000000180022990     TakionGui:TakionGui.dll
 0002:00001998       __imp_?SetDecDigits@RowValue@@UEAAXPEBE@Z 0000000180022998     TakionGui:TakionGui.dll
 0002:000019a0       __imp_?isTruncate@RowValue@@UEBAPEB_NXZ 00000001800229a0     TakionGui:TakionGui.dll
 0002:000019a8       __imp_?SetTruncate@RowValue@@UEAAXPEB_N@Z 00000001800229a8     TakionGui:TakionGui.dll
 0002:000019b0       __imp_?GetLastIntDiff@RowValue@@UEBAHXZ 00000001800229b0     TakionGui:TakionGui.dll
 0002:000019b8       __imp_?GetNonZeroCount@RowValue@@UEBAIXZ 00000001800229b8     TakionGui:TakionGui.dll
 0002:000019c0       __imp_?GetObjectValue@PositionIntInventoryRowValueNull@@UEBAAEBHXZ 00000001800229c0     TakionGui:TakionGui.dll
 0002:000019c8       __imp_?GetObjectValueCopy@?$TypedRowValue@H@@UEBAHXZ 00000001800229c8     TakionGui:TakionGui.dll
 0002:000019d0       __imp_?SetValue@PositionIntInventoryRowValueNull@@UEAA_NAEBH@Z 00000001800229d0     TakionGui:TakionGui.dll
 0002:000019d8       __imp_?InitializeValue@PositionIntInventoryRowValueNull@@MEAAXXZ 00000001800229d8     TakionGui:TakionGui.dll
 0002:000019e0       __imp_?CanBeNegative@?$MonetaryUnsignedRowValue@VPrice@@@@MEBA_NXZ 00000001800229e0     TakionGui:TakionGui.dll
 0002:000019e8       __imp_?CompareValueToZero@?$TypedUnsignedRowValue@VPrice@@@@UEBAFXZ 00000001800229e8     TakionGui:TakionGui.dll
 0002:000019f0       __imp_?isValueZero@?$TypedNumericRowValue@VPrice@@@@UEBA_NXZ 00000001800229f0     TakionGui:TakionGui.dll
 0002:000019f8       __imp_?isObjectValueZero@?$TypedNumericRowValue@VPrice@@@@UEBA_NXZ 00000001800229f8     TakionGui:TakionGui.dll
 0002:00001a00       __imp_?UpdateValue@?$TypedRowValue@VPrice@@@@UEAA_NXZ 0000000180022a00     TakionGui:TakionGui.dll
 0002:00001a08       __imp_?InitValue@?$TypedRowValue@VPrice@@@@UEAAXXZ 0000000180022a08     TakionGui:TakionGui.dll
 0002:00001a10       __imp_?InitializeValue@?$TypedRowValue@VPrice@@@@MEAAXXZ 0000000180022a10     TakionGui:TakionGui.dll
 0002:00001a18       __imp_?isValueChanged@?$TypedRowValue@VPrice@@@@UEBA_NXZ 0000000180022a18     TakionGui:TakionGui.dll
 0002:00001a20       __imp_?toString@PriceRowValue@@UEBAXAEAV?$basic_string@DU?$char_traits@D@std@@V?$allocator@D@2@@std@@@Z 0000000180022a20     TakionGui:TakionGui.dll
 0002:00001a28       __imp_?isValueEmpty@?$TypedRowValue@VPrice@@@@UEBA_NXZ 0000000180022a28     TakionGui:TakionGui.dll
 0002:00001a30       __imp_?Compare@?$TypedRowValue@VPrice@@@@UEBAFAEBVRowValue@@@Z 0000000180022a30     TakionGui:TakionGui.dll
 0002:00001a38       __imp_?CompareValue@?$TypedRowValue@VPrice@@@@UEBAFAEBVPrice@@@Z 0000000180022a38     TakionGui:TakionGui.dll
 0002:00001a40       __imp_?CompareAhead@?$TypedRowValue@VPrice@@@@UEBAFAEBVRowValue@@@Z 0000000180022a40     TakionGui:TakionGui.dll
 0002:00001a48       __imp_?isObjectValueEmpty@?$TypedRowValue@VPrice@@@@UEBA_NXZ 0000000180022a48     TakionGui:TakionGui.dll
 0002:00001a50       __imp_?NullifyTick@?$TypedNumericRowValue@VPrice@@@@UEAAXXZ 0000000180022a50     TakionGui:TakionGui.dll
 0002:00001a58       __imp_?NullifyLastDiff@?$TypedNumericRowValue@VPrice@@@@UEBAXXZ 0000000180022a58     TakionGui:TakionGui.dll
 0002:00001a60       __imp_?Add@?$TypedNumericRowValue@VPrice@@@@UEAA_NAEBVRowValue@@@Z 0000000180022a60     TakionGui:TakionGui.dll
 0002:00001a68       __imp_?SetValue@?$TypedNumericRowValue@VPrice@@@@UEAA_NAEBVPrice@@@Z 0000000180022a68     TakionGui:TakionGui.dll
 0002:00001a70       __imp_?CompareToZero@?$TypedNumericRowValue@VPrice@@@@UEBAFAEBVSignedPrice@@@Z 0000000180022a70     TakionGui:TakionGui.dll
 0002:00001a78       __imp_?Subtract@?$TypedNumericRowValue@VPrice@@@@UEAA_NAEBVRowValue@@@Z 0000000180022a78     TakionGui:TakionGui.dll
 0002:00001a80       __imp_?Adjust@?$TypedUnsignedRowValue@VPrice@@@@UEAA_NAEBVRowValue@@@Z 0000000180022a80     TakionGui:TakionGui.dll
 0002:00001a88       __imp_?Reset@?$TypedNumericRowValue@VPrice@@@@UEAAXXZ 0000000180022a88     TakionGui:TakionGui.dll
 0002:00001a90       __imp_?GetTickMillisecond@?$TypedNumericRowValue@VPrice@@@@UEBAIXZ 0000000180022a90     TakionGui:TakionGui.dll
 0002:00001a98       __imp_?GetIntValue@RowValue@@UEBAHXZ 0000000180022a98     TakionGui:TakionGui.dll
 0002:00001aa0       __imp_?GetPriceValue@PriceRowValue@@UEBA?AVPrice@@XZ 0000000180022aa0     TakionGui:TakionGui.dll
 0002:00001aa8       __imp_?isComma@?$CommaUnsignedRowValue@VPrice@@@@UEBAPEB_NXZ 0000000180022aa8     TakionGui:TakionGui.dll
 0002:00001ab0       __imp_?SetComma@?$CommaUnsignedRowValue@VPrice@@@@UEAAXPEB_N@Z 0000000180022ab0     TakionGui:TakionGui.dll
 0002:00001ab8       __imp_?GetDecDigits@?$DecUnsignedRowValue@VPrice@@@@UEBAPEBEXZ 0000000180022ab8     TakionGui:TakionGui.dll
 0002:00001ac0       __imp_?SetDecDigits@?$DecUnsignedRowValue@VPrice@@@@UEAAXPEBE@Z 0000000180022ac0     TakionGui:TakionGui.dll
 0002:00001ac8       __imp_?isTruncate@?$DecUnsignedRowValue@VPrice@@@@UEBAPEB_NXZ 0000000180022ac8     TakionGui:TakionGui.dll
 0002:00001ad0       __imp_?SetTruncate@?$DecUnsignedRowValue@VPrice@@@@UEAAXPEB_N@Z 0000000180022ad0     TakionGui:TakionGui.dll
 0002:00001ad8       __imp_?GetObjectValueCopy@?$TypedRowValue@VPrice@@@@UEBA?AVPrice@@XZ 0000000180022ad8     TakionGui:TakionGui.dll
 0002:00001ae0       __imp_?CalculateTick@?$TypedUnsignedRowValue@VPrice@@@@MEAAXAEBVPrice@@AEAVSignedPrice@@@Z 0000000180022ae0     TakionGui:TakionGui.dll
 0002:00001ae8       __imp_?CanBeNegative@?$TypedUnsignedRowValue@I@@UEBA_NXZ 0000000180022ae8     TakionGui:TakionGui.dll
 0002:00001af0       __imp_?CompareValueToZero@?$TypedUnsignedRowValue@I@@UEBAFXZ 0000000180022af0     TakionGui:TakionGui.dll
 0002:00001af8       __imp_?isValueZero@?$TypedNumericRowValue@I@@UEBA_NXZ 0000000180022af8     TakionGui:TakionGui.dll
 0002:00001b00       __imp_?isObjectValueZero@?$TypedNumericRowValue@I@@UEBA_NXZ 0000000180022b00     TakionGui:TakionGui.dll
 0002:00001b08       __imp_?UpdateValue@?$TypedRowValue@I@@UEAA_NXZ 0000000180022b08     TakionGui:TakionGui.dll
 0002:00001b10       __imp_?InitValue@?$TypedRowValue@I@@UEAAXXZ 0000000180022b10     TakionGui:TakionGui.dll
 0002:00001b18       __imp_?InitializeValue@?$TypedRowValue@I@@MEAAXXZ 0000000180022b18     TakionGui:TakionGui.dll
 0002:00001b20       __imp_?isValueChanged@?$TypedRowValue@I@@UEBA_NXZ 0000000180022b20     TakionGui:TakionGui.dll
 0002:00001b28       __imp_?toString@CompactPriceRowValue@@UEBAXAEAV?$basic_string@DU?$char_traits@D@std@@V?$allocator@D@2@@std@@@Z 0000000180022b28     TakionGui:TakionGui.dll
 0002:00001b30       __imp_?isValueEmpty@?$TypedRowValue@I@@UEBA_NXZ 0000000180022b30     TakionGui:TakionGui.dll
 0002:00001b38       __imp_?Compare@?$TypedRowValue@I@@UEBAFAEBVRowValue@@@Z 0000000180022b38     TakionGui:TakionGui.dll
 0002:00001b40       __imp_?CompareValue@?$TypedRowValue@I@@UEBAFAEBI@Z 0000000180022b40     TakionGui:TakionGui.dll
 0002:00001b48       __imp_?CompareAhead@?$TypedRowValue@I@@UEBAFAEBVRowValue@@@Z 0000000180022b48     TakionGui:TakionGui.dll
 0002:00001b50       __imp_?isObjectValueEmpty@?$TypedRowValue@I@@UEBA_NXZ 0000000180022b50     TakionGui:TakionGui.dll
 0002:00001b58       __imp_?NullifyTick@?$TypedNumericRowValue@I@@UEAAXXZ 0000000180022b58     TakionGui:TakionGui.dll
 0002:00001b60       __imp_?NullifyLastDiff@?$TypedNumericRowValue@I@@UEBAXXZ 0000000180022b60     TakionGui:TakionGui.dll
 0002:00001b68       __imp_?Add@?$TypedNumericRowValue@I@@UEAA_NAEBVRowValue@@@Z 0000000180022b68     TakionGui:TakionGui.dll
 0002:00001b70       __imp_?SetValue@?$TypedNumericRowValue@I@@UEAA_NAEBI@Z 0000000180022b70     TakionGui:TakionGui.dll
 0002:00001b78       __imp_?CompareToZero@?$TypedNumericRowValue@I@@UEBAFAEBH@Z 0000000180022b78     TakionGui:TakionGui.dll
 0002:00001b80       __imp_?Subtract@?$TypedNumericRowValue@I@@UEAA_NAEBVRowValue@@@Z 0000000180022b80     TakionGui:TakionGui.dll
 0002:00001b88       __imp_?Adjust@?$TypedUnsignedRowValue@I@@UEAA_NAEBVRowValue@@@Z 0000000180022b88     TakionGui:TakionGui.dll
 0002:00001b90       __imp_?Reset@?$TypedNumericRowValue@I@@UEAAXXZ 0000000180022b90     TakionGui:TakionGui.dll
 0002:00001b98       __imp_?GetTickMillisecond@?$TypedNumericRowValue@I@@UEBAIXZ 0000000180022b98     TakionGui:TakionGui.dll
 0002:00001ba0       __imp_?GetUIntValue@UIntRowValue@@UEBAIXZ 0000000180022ba0     TakionGui:TakionGui.dll
 0002:00001ba8       __imp_?GetPriceValue@CompactPriceRowValue@@UEBA?AVPrice@@XZ 0000000180022ba8     TakionGui:TakionGui.dll
 0002:00001bb0       __imp_?isComma@?$CommaUnsignedRowValue@I@@UEBAPEB_NXZ 0000000180022bb0     TakionGui:TakionGui.dll
 0002:00001bb8       __imp_?SetComma@?$CommaUnsignedRowValue@I@@UEAAXPEB_N@Z 0000000180022bb8     TakionGui:TakionGui.dll
 0002:00001bc0       __imp_?GetDecDigits@CompactPriceRowValue@@UEBAPEBEXZ 0000000180022bc0     TakionGui:TakionGui.dll
 0002:00001bc8       __imp_?SetDecDigits@CompactPriceRowValue@@UEAAXPEBE@Z 0000000180022bc8     TakionGui:TakionGui.dll
 0002:00001bd0       __imp_?isTruncate@CompactPriceRowValue@@UEBAPEB_NXZ 0000000180022bd0     TakionGui:TakionGui.dll
 0002:00001bd8       __imp_?SetTruncate@CompactPriceRowValue@@UEAAXPEB_N@Z 0000000180022bd8     TakionGui:TakionGui.dll
 0002:00001be0       __imp_?GetObjectValueCopy@?$TypedRowValue@I@@UEBAIXZ 0000000180022be0     TakionGui:TakionGui.dll
 0002:00001be8       __imp_?CalculateTick@?$TypedUnsignedRowValue@I@@MEAAXAEBIAEAH@Z 0000000180022be8     TakionGui:TakionGui.dll
 0002:00001bf0       __imp_?CompareValueToZero@?$TypedNumericRowValue@VSignedPrice@@@@UEBAFXZ 0000000180022bf0     TakionGui:TakionGui.dll
 0002:00001bf8       __imp_?InitValue@?$TypedRowValue@VSignedPrice@@@@UEAAXXZ 0000000180022bf8     TakionGui:TakionGui.dll
 0002:00001c00       __imp_?GetObjectValue@?$TypedRowValue@VSignedPrice@@@@UEBAAEBVSignedPrice@@XZ 0000000180022c00     TakionGui:TakionGui.dll
 0002:00001c08       __imp_?toString@SignedPriceRowValue@@UEBAXAEAV?$basic_string@DU?$char_traits@D@std@@V?$allocator@D@2@@std@@@Z 0000000180022c08     TakionGui:TakionGui.dll
 0002:00001c10       __imp_?isValueEmpty@?$TypedRowValue@VSignedPrice@@@@UEBA_NXZ 0000000180022c10     TakionGui:TakionGui.dll
 0002:00001c18       __imp_?Compare@?$TypedRowValue@VSignedPrice@@@@UEBAFAEBVRowValue@@@Z 0000000180022c18     TakionGui:TakionGui.dll
 0002:00001c20       __imp_?isObjectValueEmpty@?$TypedRowValue@VSignedPrice@@@@UEBA_NXZ 0000000180022c20     TakionGui:TakionGui.dll
 0002:00001c28       __imp_?NullifyTick@?$TypedNumericRowValue@VSignedPrice@@@@UEAAXXZ 0000000180022c28     TakionGui:TakionGui.dll
 0002:00001c30       __imp_?NullifyLastDiff@?$TypedNumericRowValue@VSignedPrice@@@@UEBAXXZ 0000000180022c30     TakionGui:TakionGui.dll
 0002:00001c38       __imp_?Add@?$TypedNumericRowValue@VSignedPrice@@@@UEAA_NAEBVRowValue@@@Z 0000000180022c38     TakionGui:TakionGui.dll
 0002:00001c40       __imp_?Subtract@?$TypedNumericRowValue@VSignedPrice@@@@UEAA_NAEBVRowValue@@@Z 0000000180022c40     TakionGui:TakionGui.dll
 0002:00001c48       __imp_?Adjust@?$TypedNumericRowValue@VSignedPrice@@@@UEAA_NAEBVRowValue@@@Z 0000000180022c48     TakionGui:TakionGui.dll
 0002:00001c50       __imp_?Reset@?$TypedNumericRowValue@VSignedPrice@@@@UEAAXXZ 0000000180022c50     TakionGui:TakionGui.dll
 0002:00001c58       __imp_?GetTickMillisecond@?$TypedNumericRowValue@VSignedPrice@@@@UEBAIXZ 0000000180022c58     TakionGui:TakionGui.dll
 0002:00001c60       __imp_?isComma@?$CommaRowValue@VSignedPrice@@@@UEBAPEB_NXZ 0000000180022c60     TakionGui:TakionGui.dll
 0002:00001c68       __imp_?SetComma@?$CommaRowValue@VSignedPrice@@@@UEAAXPEB_N@Z 0000000180022c68     TakionGui:TakionGui.dll
 0002:00001c70       __imp_?GetDecDigits@?$DecRowValue@VSignedPrice@@@@UEBAPEBEXZ 0000000180022c70     TakionGui:TakionGui.dll
 0002:00001c78       __imp_?SetDecDigits@?$DecRowValue@VSignedPrice@@@@UEAAXPEBE@Z 0000000180022c78     TakionGui:TakionGui.dll
 0002:00001c80       __imp_?isTruncate@?$DecRowValue@VSignedPrice@@@@UEBAPEB_NXZ 0000000180022c80     TakionGui:TakionGui.dll
 0002:00001c88       __imp_?SetTruncate@?$DecRowValue@VSignedPrice@@@@UEAAXPEB_N@Z 0000000180022c88     TakionGui:TakionGui.dll
 0002:00001c90       __imp_?GetObjectValueCopy@?$TypedRowValue@VSignedPrice@@@@UEBA?AVSignedPrice@@XZ 0000000180022c90     TakionGui:TakionGui.dll
 0002:00001c98       __imp_?isValueEmpty@?$TypedRowValue@H@@UEBA_NXZ 0000000180022c98     TakionGui:TakionGui.dll
 0002:00001ca0       __imp_?isObjectValueEmpty@?$TypedRowValue@H@@UEBA_NXZ 0000000180022ca0     TakionGui:TakionGui.dll
 0002:00001ca8       __imp_?DestroyCell@RowSortable@@UEAA_NG@Z 0000000180022ca8     TakionGui:TakionGui.dll
 0002:00001cb0       __imp_?PaintCell@Row@@UEBA_NAEAVCDC@@PEBVColumn@@AEAVCRect@@_NIHH@Z 0000000180022cb0     TakionGui:TakionGui.dll
 0002:00001cb8       __imp_?CellToString@Row@@UEBA_NAEAV?$basic_string@DU?$char_traits@D@std@@V?$allocator@D@2@@std@@G@Z 0000000180022cb8     TakionGui:TakionGui.dll
 0002:00001cc0       __imp_?GetMouseCellBkAndTextColor@Row@@UEBAKGAEAK@Z 0000000180022cc0     TakionGui:TakionGui.dll
 0002:00001cc8       __imp_?GetRowFont@Row@@UEBAPEAVCFont@@XZ 0000000180022cc8     TakionGui:TakionGui.dll
 0002:00001cd0       __imp_?GetRowAccount@Row@@UEBAPEBVAccount@@XZ 0000000180022cd0     TakionGui:TakionGui.dll
 0002:00001cd8       __imp_?GetRowAccountAggregator@Row@@UEBAPEBVAccountAggregator@@XZ 0000000180022cd8     TakionGui:TakionGui.dll
 0002:00001ce0       __imp_?isSelected@RowSortable@@UEBA_NXZ 0000000180022ce0     TakionGui:TakionGui.dll
 0002:00001ce8       __imp_?isBkColorOverrideSelection@Row@@UEBA_NG@Z 0000000180022ce8     TakionGui:TakionGui.dll
 0002:00001cf0       __imp_?GetStringValue@Row@@UEBAPEBDG@Z 0000000180022cf0     TakionGui:TakionGui.dll
 0002:00001cf8       __imp_?GetUIntValue@Row@@UEBA?BIG@Z 0000000180022cf8     TakionGui:TakionGui.dll
 0002:00001d00       __imp_?GetUInt64Value@Row@@UEBA?B_KG@Z 0000000180022d00     TakionGui:TakionGui.dll
 0002:00001d08       __imp_?GetIntValue@Row@@UEBA?BHG@Z 0000000180022d08     TakionGui:TakionGui.dll
 0002:00001d10       __imp_?GetPriceValue@Row@@UEBA?AVPrice@@G@Z 0000000180022d10     TakionGui:TakionGui.dll
 0002:00001d18       __imp_?isExpandable@Row@@UEBA_NXZ 0000000180022d18     TakionGui:TakionGui.dll
 0002:00001d20       __imp_?isExpanded@Row@@UEBA_NXZ 0000000180022d20     TakionGui:TakionGui.dll
 0002:00001d28       __imp_?SetExpanded@Row@@UEAA_N_N@Z 0000000180022d28     TakionGui:TakionGui.dll
 0002:00001d30       __imp_?isSecondary@Row@@UEBA_NXZ 0000000180022d30     TakionGui:TakionGui.dll
 0002:00001d38       __imp_?isPrimary@Row@@UEBA_NXZ 0000000180022d38     TakionGui:TakionGui.dll
 0002:00001d40       __imp_?GetParentRow@RowSortable@@UEBAPEBVRow@@XZ 0000000180022d40     TakionGui:TakionGui.dll
 0002:00001d48       __imp_?GetParentRow@RowSortable@@UEAAPEAVRow@@XZ 0000000180022d48     TakionGui:TakionGui.dll
 0002:00001d50       __imp_?AdjustColor@RowSortable@@MEBAXPEBVColumn@@@Z 0000000180022d50     TakionGui:TakionGui.dll
 0002:00001d58       __imp_?InitializeWithObject@RowSortable@@UEAAXPEBX_N@Z 0000000180022d58     TakionGui:TakionGui.dll
 0002:00001d60       __imp_?Strip@RowSortable@@UEAAXXZ 0000000180022d60     TakionGui:TakionGui.dll
 0002:00001d68       __imp_?isSortValueChanged@RowSortable@@UEBA_NXZ 0000000180022d68     TakionGui:TakionGui.dll
 0002:00001d70       __imp_?isChainSortValueChanged@RowSortable@@UEBA_NXZ 0000000180022d70     TakionGui:TakionGui.dll
 0002:00001d78       __imp_?Compare@RowSortable@@UEBAFAEBV1@@Z 0000000180022d78     TakionGui:TakionGui.dll
 0002:00001d80       __imp_?CompareAhead@RowSortable@@UEBAFAEBV1@@Z 0000000180022d80     TakionGui:TakionGui.dll
 0002:00001d88       __imp_?DefaultCompareAhead@RowSortable@@UEBAFAEBV1@@Z 0000000180022d88     TakionGui:TakionGui.dll
 0002:00001d90       __imp_?CompareChain@RowSortable@@UEBAFAEBV1@@Z 0000000180022d90     TakionGui:TakionGui.dll
 0002:00001d98       __imp_?CompareChainAhead@RowSortable@@UEBAFAEBV1@@Z 0000000180022d98     TakionGui:TakionGui.dll
 0002:00001da0       __imp_?GetPopOrdinal@RowSortable@@UEBAAEBIXZ 0000000180022da0     TakionGui:TakionGui.dll
 0002:00001da8       __imp_?hasInventory@RowSortable@@UEBA_NXZ 0000000180022da8     TakionGui:TakionGui.dll
 0002:00001db0       __imp_?GetParentSortableRow@RowSortable@@UEBAPEBV1@XZ 0000000180022db0     TakionGui:TakionGui.dll
 0002:00001db8       __imp_?GetParentSortableRow@RowSortable@@UEAAPEAV1@XZ 0000000180022db8     TakionGui:TakionGui.dll
 0002:00001dc0       __imp_?SetParentRow@RowSortable@@UEAAXAEBQEAV1@@Z 0000000180022dc0     TakionGui:TakionGui.dll
 0002:00001dc8       __imp_?GetChildRows@RowSortable@@UEBAPEBV?$unordered_set@PEAVRowSortable@@U?$hash@PEAVRowSortable@@@std@@U?$equal_to@PEAVRowSortable@@@3@V?$allocator@PEAVRowSortable@@@3@@std@@XZ 0000000180022dc8     TakionGui:TakionGui.dll
 0002:00001dd0       __imp_?GetChildRows@RowSortable@@UEAAPEAV?$unordered_set@PEAVRowSortable@@U?$hash@PEAVRowSortable@@@std@@U?$equal_to@PEAVRowSortable@@@3@V?$allocator@PEAVRowSortable@@@3@@std@@XZ 0000000180022dd0     TakionGui:TakionGui.dll
 0002:00001dd8       __imp_?GetChildRowCount@RowSortable@@UEBAIXZ 0000000180022dd8     TakionGui:TakionGui.dll
 0002:00001de0       __imp_?HasChildRows@RowSortable@@UEBA_NXZ 0000000180022de0     TakionGui:TakionGui.dll
 0002:00001de8       __imp_?PrepareForModification@RowSortable@@UEAAXXZ 0000000180022de8     TakionGui:TakionGui.dll
 0002:00001df0       __imp_?UnprepareForModification@RowSortable@@UEAAXXZ 0000000180022df0     TakionGui:TakionGui.dll
 0002:00001df8       __imp_?NullifyParentRow@RowSortable@@MEAAXXZ 0000000180022df8     TakionGui:TakionGui.dll
 0002:00001e00       __imp_?AddChildRow@RowSortable@@MEAA_NPEAV1@@Z 0000000180022e00     TakionGui:TakionGui.dll
 0002:00001e08       __imp_?RemoveChildRow@RowSortable@@MEAA_NPEAV1@@Z 0000000180022e08     TakionGui:TakionGui.dll
 0002:00001e10       __imp_?ClearChildRows@RowSortable@@MEAA_NPEAV1@@Z 0000000180022e10     TakionGui:TakionGui.dll
 0002:00001e18       __imp_?isHiLo@SecurityChartRow@@UEBA_NXZ 0000000180022e18     TakionGui:TakionGui.dll
 0002:00001e20       __imp_?isUseOddLotPrints@SecurityChartRow@@UEBA_NXZ 0000000180022e20     TakionGui:TakionGui.dll
 0002:00001e28       __imp_?SetSecurity@SecurityChartRow@@UEAA_NPEBVSecurity@@@Z 0000000180022e28     TakionGui:TakionGui.dll
 0002:00001e30       __imp_?SetTimeFrame@SecurityChartRow@@UEAA_NGG@Z 0000000180022e30     TakionGui:TakionGui.dll
 0002:00001e38       __imp_?InvalidateRsiMhCellIfVisible@SecurityChartRow@@UEBAXXZ 0000000180022e38     TakionGui:TakionGui.dll
 0002:00001e40       __imp_?InvalidateRsiDaysCellIfVisible@SecurityChartRow@@UEBAXXZ 0000000180022e40     TakionGui:TakionGui.dll
 0002:00001e48       __imp_?NextDayReset@SecurityChartRow@@UEAAXXZ 0000000180022e48     TakionGui:TakionGui.dll
 0002:00001e50       __imp_?IncrementHiCount@SecurityChartRow@@MEAAXXZ 0000000180022e50     TakionGui:TakionGui.dll
 0002:00001e58       __imp_?DecrementHiCount@SecurityChartRow@@MEAAXXZ 0000000180022e58     TakionGui:TakionGui.dll
 0002:00001e60       __imp_?IncrementLoCount@SecurityChartRow@@MEAAXXZ 0000000180022e60     TakionGui:TakionGui.dll
 0002:00001e68       __imp_?DecrementLoCount@SecurityChartRow@@MEAAXXZ 0000000180022e68     TakionGui:TakionGui.dll
 0002:00001e70       \177TakionGui_NULL_THUNK_DATA 0000000180022e70     TakionGui:TakionGui.dll
 0002:00001e78       __imp_TL_GetModuleVersionNum 0000000180022e78     TakionLog:TakionLog.dll
 0002:00001e80       __imp_?takionMillisecondBase@TakionTimeBase@@2IA 0000000180022e80     TakionLog:TakionLog.dll
 0002:00001e88       __imp_TL_GetDay            0000000180022e88     TakionLog:TakionLog.dll
 0002:00001e90       __imp_TL_GetMonth          0000000180022e90     TakionLog:TakionLog.dll
 0002:00001e98       __imp_TL_GetYear           0000000180022e98     TakionLog:TakionLog.dll
 0002:00001ea0       \177TakionLog_NULL_THUNK_DATA 0000000180022ea0     TakionLog:TakionLog.dll
 0002:00001ea8       __imp_?GetId@Account@@QEBAPEBDXZ 0000000180022ea8     TakionUtils:TakionUtils.dll
 0002:00001eb0       __imp_TU_GetModuleVersionNum 0000000180022eb0     TakionUtils:TakionUtils.dll
 0002:00001eb8       __imp_?FindStockPosition@AccountInventoryData@@QEBAPEAVPosition@@AEB_K@Z 0000000180022eb8     TakionUtils:TakionUtils.dll
 0002:00001ec0       __imp_?FindStockPositionWithLock@Account@@QEBAPEAVPosition@@AEB_K@Z 0000000180022ec0     TakionUtils:TakionUtils.dll
 0002:00001ec8       __imp_TU_GetMarketCategoryName 0000000180022ec8     TakionUtils:TakionUtils.dll
 0002:00001ed0       __imp_?FindPositionWithLock@Account@@QEBAPEAVPosition@@PEBVSecurity@@@Z 0000000180022ed0     TakionUtils:TakionUtils.dll
 0002:00001ed8       __imp_?FindPosition@AccountInventoryData@@QEBAPEAVPosition@@PEBVSecurity@@@Z 0000000180022ed8     TakionUtils:TakionUtils.dll
 0002:00001ee0       __imp_?GetSizeInv@PositionData@@QEBAAEBHAEB_N@Z 0000000180022ee0     TakionUtils:TakionUtils.dll
 0002:00001ee8       __imp_?GetClosePrice@Security@@QEBAAEBVPrice@@XZ 0000000180022ee8     TakionUtils:TakionUtils.dll
 0002:00001ef0       __imp_?GetSize@PositionInventoryData@@QEBAAEBHXZ 0000000180022ef0     TakionUtils:TakionUtils.dll
 0002:00001ef8       \177TakionUtils_NULL_THUNK_DATA 0000000180022ef8     TakionUtils:TakionUtils.dll
 0002:00001f00       __imp_GetKeyState          0000000180022f00     user32:USER32.dll
 0002:00001f08       __imp_AppendMenuA          0000000180022f08     user32:USER32.dll
 0002:00001f10       __imp_CreatePopupMenu      0000000180022f10     user32:USER32.dll
 0002:00001f18       __imp_GetSystemMetrics     0000000180022f18     user32:USER32.dll
 0002:00001f20       __imp_PostMessageA         0000000180022f20     user32:USER32.dll
 0002:00001f28       __imp_EnableWindow         0000000180022f28     user32:USER32.dll
 0002:00001f30       __imp_GetSysColor          0000000180022f30     user32:USER32.dll
 0002:00001f38       __imp_SendMessageA         0000000180022f38     user32:USER32.dll
 0002:00001f40       __imp_InvalidateRect       0000000180022f40     user32:USER32.dll
 0002:00001f48       \177USER32_NULL_THUNK_DATA 0000000180022f48     user32:USER32.dll
 0002:00001f50       __imp_U_WriteStringToFile  0000000180022f50     Utils:Utils.dll
 0002:00001f58       __imp_U_ReadFileToString   0000000180022f58     Utils:Utils.dll
 0002:00001f60       __imp_U_IsStockCharValid   0000000180022f60     Utils:Utils.dll
 0002:00001f68       __imp_U_StrToSignedPrice   0000000180022f68     Utils:Utils.dll
 0002:00001f70       __imp_U_ReadStrAsUInt64Token 0000000180022f70     Utils:Utils.dll
 0002:00001f78       __imp_U_SignedPriceToStr   0000000180022f78     Utils:Utils.dll
 0002:00001f80       __imp_?SetCompactValue@?$Monetary@HH$08@@QEAAXAEBI@Z 0000000180022f80     Utils:Utils.dll
 0002:00001f88       __imp_U_ReadStrToken       0000000180022f88     Utils:Utils.dll
 0002:00001f90       __imp_U_GetValidStockFirstChars 0000000180022f90     Utils:Utils.dll
 0002:00001f98       __imp_U_ReadUCharToken     0000000180022f98     Utils:Utils.dll
 0002:00001fa0       __imp_U_ReadUIntToken      0000000180022fa0     Utils:Utils.dll
 0002:00001fa8       __imp_U_MarkSectionEnd     0000000180022fa8     Utils:Utils.dll
 0002:00001fb0       __imp_U_AppendUChar        0000000180022fb0     Utils:Utils.dll
 0002:00001fb8       __imp_U_AppendUInt         0000000180022fb8     Utils:Utils.dll
 0002:00001fc0       __imp_?UnlockInquiry@TakionLock@@QEBAXXZ 0000000180022fc0     Utils:Utils.dll
 0002:00001fc8       __imp_?LockInquiry@TakionLock@@QEBA_NXZ 0000000180022fc8     Utils:Utils.dll
 0002:00001fd0       __imp_?LockInquiryWait@TakionLock@@QEBAXXZ 0000000180022fd0     Utils:Utils.dll
 0002:00001fd8       __imp_?ProcessAllData@LineBufferArrayReader@@QEBAIXZ 0000000180022fd8     Utils:Utils.dll
 0002:00001fe0       __imp_?GetPercentChange@Price@@QEBA?AVSignedPrice@@AEBV2@@Z 0000000180022fe0     Utils:Utils.dll
 0002:00001fe8       __imp_?Canonicalize@?$SignedMonetary@HH$08@@QEAAXXZ 0000000180022fe8     Utils:Utils.dll
 0002:00001ff0       __imp_??GPrice@@QEBA?AVSignedPrice@@AEBV0@@Z 0000000180022ff0     Utils:Utils.dll
 0002:00001ff8       __imp_U_VersionNumToStr    0000000180022ff8     Utils:Utils.dll
 0002:00002000       __imp_?signedPriceZero@SignedPrice@@2V1@B 0000000180023000     Utils:Utils.dll
 0002:00002008       __imp_?SetCompactValue@?$Monetary@II$08@@QEAAXAEBI@Z 0000000180023008     Utils:Utils.dll
 0002:00002010       __imp_U_FormatMillisecond  0000000180023010     Utils:Utils.dll
 0002:00002018       __imp_U_QueryVersionResourceValue 0000000180023018     Utils:Utils.dll
 0002:00002020       __imp_U_InitializeInstanceInfo 0000000180023020     Utils:Utils.dll
 0002:00002028       __imp_U_VersionStrToNum    0000000180023028     Utils:Utils.dll
 0002:00002030       __imp_U_GetModuleVersionNum 0000000180023030     Utils:Utils.dll
 0002:00002038       __imp_U_ReadStrTokenToMandatoryDel 0000000180023038     Utils:Utils.dll
 0002:00002040       __imp_U_ReadStrTokenWith2Delimiters 0000000180023040     Utils:Utils.dll
 0002:00002048       __imp_?priceZero@Price@@2V1@B 0000000180023048     Utils:Utils.dll
 0002:00002050       __imp_U_GetValidStockChars 0000000180023050     Utils:Utils.dll
 0002:00002058       __imp_??0SignedPrice@@QEAA@XZ 0000000180023058     Utils:Utils.dll
 0002:00002060       __imp_U_CopyAndPad         0000000180023060     Utils:Utils.dll
 0002:00002068       \177Utils_NULL_THUNK_DATA  0000000180023068     Utils:Utils.dll
 0002:00002070       __imp_?EnableApplyButton@TakionSettingTopDialog@@UEAAX_N@Z 0000000180023070     UtilsGui:UtilsGui.dll
 0002:00002078       __imp_?GetHelpButton@TakionSettingTopDialog@@UEAAAEAVCButton@@XZ 0000000180023078     UtilsGui:UtilsGui.dll
 0002:00002080       __imp_?GetCancelButton@TakionSettingTopDialog@@UEAAAEAVCButton@@XZ 0000000180023080     UtilsGui:UtilsGui.dll
 0002:00002088       __imp_?GetToolTipsCheckBox@TakionSettingTopDialog@@UEAAAEAVCButton@@XZ 0000000180023088     UtilsGui:UtilsGui.dll
 0002:00002090       __imp_?GetOnTopCheckBox@TakionSettingTopDialog@@UEAAAEAVCButton@@XZ 0000000180023090     UtilsGui:UtilsGui.dll
 0002:00002098       __imp_?GetApplyButton@TakionSettingTopDialog@@UEAAAEAVCButton@@XZ 0000000180023098     UtilsGui:UtilsGui.dll
 0002:000020a0       __imp_?GetOkButton@TakionSettingTopDialog@@UEAAAEAVCButton@@XZ 00000001800230a0     UtilsGui:UtilsGui.dll
 0002:000020a8       __imp_?GetTopDialogHeight@TakionSettingTopDialog@@UEBAHXZ 00000001800230a8     UtilsGui:UtilsGui.dll
 0002:000020b0       __imp_?GetTopDialogWidth@TakionSettingTopDialog@@UEBAHXZ 00000001800230b0     UtilsGui:UtilsGui.dll
 0002:000020b8       __imp_?GetMainTabDialog@TakionSettingTopDialog@@UEAAPEAVTakionSettingTabDialog@@XZ 00000001800230b8     UtilsGui:UtilsGui.dll
 0002:000020c0       __imp_?GetMainTabDialog@TakionSettingTopDialog@@UEBAPEBVTakionSettingTabDialog@@XZ 00000001800230c0     UtilsGui:UtilsGui.dll
 0002:000020c8       __imp_?Resize@TakionSettingTopDialog@@MEAAX_N0@Z 00000001800230c8     UtilsGui:UtilsGui.dll
 0002:000020d0       __imp_?DoPaint@TakionSettingTopDialog@@MEAAXAEBUtagRECT@@AEAVCDC@@@Z 00000001800230d0     UtilsGui:UtilsGui.dll
 0002:000020d8       __imp_?DoActivate@ExtensionMainDialogBase@@MEAAXI_N@Z 00000001800230d8     UtilsGui:UtilsGui.dll
 0002:000020e0       __imp_?FinishDialog@ExtensionMainDialogBase@@MEAAXH@Z 00000001800230e0     UtilsGui:UtilsGui.dll
 0002:000020e8       __imp_?isCloseOnEnter@TakionSettingTopDialog@@MEBA_NXZ 00000001800230e8     UtilsGui:UtilsGui.dll
 0002:000020f0       __imp_?isToolTipsEnabled@ExtensionMainDialogBase@@UEBA_NXZ 00000001800230f0     UtilsGui:UtilsGui.dll
 0002:000020f8       __imp_?isToolTipsEnabledAdditional@ExtensionMainDialogBase@@UEBA_NXZ 00000001800230f8     UtilsGui:UtilsGui.dll
 0002:00002100       __imp_?isTooltipConfigValid@ExtensionMainDialogBase@@UEBA_NXZ 0000000180023100     UtilsGui:UtilsGui.dll
 0002:00002108       __imp_?Apply@TakionSettingTopDialog@@UEAAXXZ 0000000180023108     UtilsGui:UtilsGui.dll
 0002:00002110       __imp_?DoDataExchange@ExtensionMainDialogBase@@MEAAXPEAVCDataExchange@@@Z 0000000180023110     UtilsGui:UtilsGui.dll
 0002:00002118       __imp_?GetMessageMap@ExtensionMainDialogBase@@MEBAPEBUAFX_MSGMAP@@XZ 0000000180023118     UtilsGui:UtilsGui.dll
 0002:00002120       __imp_?SettingTabDestroyed@TakionSettingTabDialog@@MEAAXXZ 0000000180023120     UtilsGui:UtilsGui.dll
 0002:00002128       __imp_?DisplayPageMenu@TakionSettingTabDialog@@MEAAXPEAVTakionSettingPageBase@@AEBVCPoint@@@Z 0000000180023128     UtilsGui:UtilsGui.dll
 0002:00002130       __imp_?isLeafNcRButtonMenuOk@TakionSettingTabDialog@@UEBA_NXZ 0000000180023130     UtilsGui:UtilsGui.dll
 0002:00002138       __imp_?isLeafRButtonMenuOk@TakionSettingTabDialog@@UEBA_NXZ 0000000180023138     UtilsGui:UtilsGui.dll
 0002:00002140       __imp_?isExtensionMainDialog@TakionSettingTabDialog@@UEBA_NXZ 0000000180023140     UtilsGui:UtilsGui.dll
 0002:00002148       __imp_?TabNcDoubleClicked@TakionSettingTabDialog@@UEAAXXZ 0000000180023148     UtilsGui:UtilsGui.dll
 0002:00002150       __imp_?GetRightMargin@TakionSettingTabDialog@@UEBAHXZ 0000000180023150     UtilsGui:UtilsGui.dll
 0002:00002158       __imp_?SetActiveTab@TakionSettingTabDialog@@MEAAX_N@Z 0000000180023158     UtilsGui:UtilsGui.dll
 0002:00002160       __imp_?DoApplyInitInfo@TakionSettingTabDialog@@MEAAXXZ 0000000180023160     UtilsGui:UtilsGui.dll
 0002:00002168       __imp_?NullifyInitInfo@TakionSettingTabDialog@@MEAAXXZ 0000000180023168     UtilsGui:UtilsGui.dll
 0002:00002170       __imp_?SetAlarm@TakionSettingTabDialog@@UEAAX_NI@Z 0000000180023170     UtilsGui:UtilsGui.dll
 0002:00002178       __imp_?isAlarm@TakionSettingTabDialog@@UEBA_NXZ 0000000180023178     UtilsGui:UtilsGui.dll
 0002:00002180       __imp_?SameLayoutOnRestore@TakionSettingTabDialog@@UEAAXXZ 0000000180023180     UtilsGui:UtilsGui.dll
 0002:00002188       __imp_?RestoreLayout@TakionSettingTabDialog@@UEAAXXZ 0000000180023188     UtilsGui:UtilsGui.dll
 0002:00002190       __imp_?GetTopDialogHeight@TakionSettingTabDialog@@UEBAHXZ 0000000180023190     UtilsGui:UtilsGui.dll
 0002:00002198       __imp_?GetTopDialogWidth@TakionSettingTabDialog@@UEBAHXZ 0000000180023198     UtilsGui:UtilsGui.dll
 0002:000021a0       __imp_?GetMainTabDialog@TakionSettingTabDialog@@UEAAPEAV1@XZ 00000001800231a0     UtilsGui:UtilsGui.dll
 0002:000021a8       __imp_?GetMainTabDialog@TakionSettingTabDialog@@UEBAPEBV1@XZ 00000001800231a8     UtilsGui:UtilsGui.dll
 0002:000021b0       __imp_?GetCurrentTab@TakionSettingTabDialog@@UEBAHXZ 00000001800231b0     UtilsGui:UtilsGui.dll
 0002:000021b8       __imp_?GetLevel@TakionSettingTabDialog@@UEBAIXZ 00000001800231b8     UtilsGui:UtilsGui.dll
 0002:000021c0       __imp_?SetInitialTab@TakionSettingTabDialog@@UEAAXXZ 00000001800231c0     UtilsGui:UtilsGui.dll
 0002:000021c8       __imp_?SetTabToOpen@TakionSettingTabDialog@@UEAA_NPEBDPEBX@Z 00000001800231c8     UtilsGui:UtilsGui.dll
 0002:000021d0       __imp_?isLeaf@TakionSettingDialog@@UEBA_NXZ 00000001800231d0     UtilsGui:UtilsGui.dll
 0002:000021d8       __imp_?GetSettingDialogs@TakionSettingTabDialog@@UEAAPEAV?$vector@PEAVTakionSettingDialog@@V?$allocator@PEAVTakionSettingDialog@@@std@@@std@@XZ 00000001800231d8     UtilsGui:UtilsGui.dll
 0002:000021e0       __imp_?isActiveTab@TakionSettingDialog@@UEBA_NXZ 00000001800231e0     UtilsGui:UtilsGui.dll
 0002:000021e8       __imp_?UpdateLeafControls@TakionSettingTabDialog@@UEAAXXZ 00000001800231e8     UtilsGui:UtilsGui.dll
 0002:000021f0       __imp_?UpdateControls@TakionSettingTabDialog@@UEAAXXZ 00000001800231f0     UtilsGui:UtilsGui.dll
 0002:000021f8       __imp_?UpdateSettings@TakionSettingTabDialog@@UEAAXXZ 00000001800231f8     UtilsGui:UtilsGui.dll
 0002:00002200       __imp_?PrepareForSavingLayout@TakionSettingTabDialog@@UEAAXXZ 0000000180023200     UtilsGui:UtilsGui.dll
 0002:00002208       __imp_?PropagateToolTipsEnabled@TakionSettingTabDialog@@MEAA_N_N@Z 0000000180023208     UtilsGui:UtilsGui.dll
 0002:00002210       __imp_?Resize@TakionSettingTabDialog@@MEAAX_N0@Z 0000000180023210     UtilsGui:UtilsGui.dll
 0002:00002218       __imp_?FinishDialog@TakionSettingTabDialog@@MEAAXH@Z 0000000180023218     UtilsGui:UtilsGui.dll
 0002:00002220       __imp_?Leaving@TakionSettingTabDialog@@MEAAXXZ 0000000180023220     UtilsGui:UtilsGui.dll
 0002:00002228       __imp_?Entering@TakionSettingTabDialog@@MEAAXXZ 0000000180023228     UtilsGui:UtilsGui.dll
 0002:00002230       __imp_?GetFirstTabControl@TakionSettingTabDialog@@UEBAPEAUHWND__@@XZ 0000000180023230     UtilsGui:UtilsGui.dll
 0002:00002238       __imp_?GetCurrentLeaf@TakionSettingTabDialog@@UEAAPEAVTakionSettingDialog@@XZ 0000000180023238     UtilsGui:UtilsGui.dll
 0002:00002240       __imp_?GetCurrentLeaf@TakionSettingTabDialog@@UEBAPEBVTakionSettingDialog@@XZ 0000000180023240     UtilsGui:UtilsGui.dll
 0002:00002248       __imp_?OnInitDialog@TakionSettingTabDialog@@MEAAHXZ 0000000180023248     UtilsGui:UtilsGui.dll
 0002:00002250       __imp_?DoDataExchange@TakionSettingTabDialog@@MEAAXPEAVCDataExchange@@@Z 0000000180023250     UtilsGui:UtilsGui.dll
 0002:00002258       __imp_?OnNotify@TakionSettingTabDialog@@MEAAH_K_JPEA_J@Z 0000000180023258     UtilsGui:UtilsGui.dll
 0002:00002260       __imp_?GetMessageMap@TakionSettingTabDialog@@MEBAPEBUAFX_MSGMAP@@XZ 0000000180023260     UtilsGui:UtilsGui.dll
 0002:00002268       __imp_?BeforeDestroy@ExtensionMainDialogBase@@MEAAXXZ 0000000180023268     UtilsGui:UtilsGui.dll
 0002:00002270       __imp_??1TakionSettingTabDialog@@UEAA@XZ 0000000180023270     UtilsGui:UtilsGui.dll
 0002:00002278       __imp_?OnInitDialog@ExtensionMainDialogBase@@MEAAHXZ 0000000180023278     UtilsGui:UtilsGui.dll
 0002:00002280       __imp_?AddSettingDialog@TakionSettingTabDialog@@QEAAXPEAVTakionSettingDialog@@@Z 0000000180023280     UtilsGui:UtilsGui.dll
 0002:00002288       __imp_??0TakionSettingTabDialog@@QEAA@PEAVMainMessageLoopWnd@@PEAV0@PEBDHH2KH_NKK@Z 0000000180023288     UtilsGui:UtilsGui.dll
 0002:00002290       __imp_?MoveFrameRectToInitialPos@TakionPopupWnd@@MEAAXXZ 0000000180023290     UtilsGui:UtilsGui.dll
 0002:00002298       __imp_?CalculateSize@TakionPopupWnd@@MEAAXXZ 0000000180023298     UtilsGui:UtilsGui.dll
 0002:000022a0       __imp_?PrepareToDisplay@TakionPopupWnd@@MEAA_JPEAVCWnd@@PEBDIKKKKKKI111@Z 00000001800232a0     UtilsGui:UtilsGui.dll
 0002:000022a8       __imp_?OnBlink@TakionPopupWnd@@MEAAXXZ 00000001800232a8     UtilsGui:UtilsGui.dll
 0002:000022b0       __imp_?UpdateColors@TakionPopupWnd@@UEAAXXZ 00000001800232b0     UtilsGui:UtilsGui.dll
 0002:000022b8       __imp_?Renew@TakionPopupWnd@@UEAAXXZ 00000001800232b8     UtilsGui:UtilsGui.dll
 0002:000022c0       __imp_?TitleFontChanged@TakionFrame@@MEAAXXZ 00000001800232c0     UtilsGui:UtilsGui.dll
 0002:000022c8       __imp_?GetInsideScreen@TakionPopupWnd@@UEBA_NAEAVCRect@@@Z 00000001800232c8     UtilsGui:UtilsGui.dll
 0002:000022d0       __imp_?DelayedCreationDone@TakionFrame@@MEAAXXZ 00000001800232d0     UtilsGui:UtilsGui.dll
 0002:000022d8       __imp_?OnTitleResize@TakionFrame@@MEAAXXZ 00000001800232d8     UtilsGui:UtilsGui.dll
 0002:000022e0       __imp_?AddToVisibleTools@TakionFrame@@MEAAXXZ 00000001800232e0     UtilsGui:UtilsGui.dll
 0002:000022e8       __imp_?RemoveFromVisibleTools@TakionFrame@@MEAA_NXZ 00000001800232e8     UtilsGui:UtilsGui.dll
 0002:000022f0       __imp_?DoRestore@TakionFrame@@MEAAXI_J@Z 00000001800232f0     UtilsGui:UtilsGui.dll
 0002:000022f8       __imp_?DoMinimize@TakionFrame@@MEAAXI_J@Z 00000001800232f8     UtilsGui:UtilsGui.dll
 0002:00002300       __imp_?OnSuccessfulCreate@TakionPopupWnd@@MEAAXXZ 0000000180023300     UtilsGui:UtilsGui.dll
 0002:00002308       __imp_?PreSuccessfulCreate@TakionFrame@@MEAAXXZ 0000000180023308     UtilsGui:UtilsGui.dll
 0002:00002310       __imp_?CalculateWindowRect@TakionFrame@@MEAAXHHHH@Z 0000000180023310     UtilsGui:UtilsGui.dll
 0002:00002318       __imp_?DoSize@TakionPopupWnd@@MEAAXIHHHH@Z 0000000180023318     UtilsGui:UtilsGui.dll
 0002:00002320       __imp_?DoPaint@TakionPopupWnd@@MEAAXAEBUtagRECT@@AEAVCDC@@@Z 0000000180023320     UtilsGui:UtilsGui.dll
 0002:00002328       __imp_?ClientSetCursor@TakionFrame@@MEAA_NXZ 0000000180023328     UtilsGui:UtilsGui.dll
 0002:00002330       __imp_?MouseLeftClientRect@TakionFrame@@MEAAXXZ 0000000180023330     UtilsGui:UtilsGui.dll
 0002:00002338       __imp_?MouseEnteredClientRect@TakionFrame@@MEAAXXZ 0000000180023338     UtilsGui:UtilsGui.dll
 0002:00002340       __imp_?MouseLeft@TakionFrame@@MEAAXXZ 0000000180023340     UtilsGui:UtilsGui.dll
 0002:00002348       __imp_?MouseEntered@TakionFrame@@MEAAXXZ 0000000180023348     UtilsGui:UtilsGui.dll
 0002:00002350       __imp_?DoActivate@TakionPopupWnd@@MEAAXI_N@Z 0000000180023350     UtilsGui:UtilsGui.dll
 0002:00002358       __imp_?BeforeNcDestroy@TakionFrame@@MEAAXXZ 0000000180023358     UtilsGui:UtilsGui.dll
 0002:00002360       __imp_?AfterDestroy@TakionFrame@@MEAAXXZ 0000000180023360     UtilsGui:UtilsGui.dll
 0002:00002368       __imp_?BeforeDestroy@TakionPopupWnd@@UEAAXXZ 0000000180023368     UtilsGui:UtilsGui.dll
 0002:00002370       __imp_?DisplaySystemMenu@TakionFrame@@MEAAXAEBVCPoint@@@Z 0000000180023370     UtilsGui:UtilsGui.dll
 0002:00002378       __imp_?DCCreated@TakionFrame@@MEAAXXZ 0000000180023378     UtilsGui:UtilsGui.dll
 0002:00002380       __imp_?UpdateResizeCursor@TakionFrame@@MEAAEAEBVCPoint@@_N@Z 0000000180023380     UtilsGui:UtilsGui.dll
 0002:00002388       __imp_?ResizeMouseArea@TakionFrame@@MEAA_NAEBVCPoint@@_N@Z 0000000180023388     UtilsGui:UtilsGui.dll
 0002:00002390       __imp_?OnSetBkColor@TakionFrame@@MEAAXXZ 0000000180023390     UtilsGui:UtilsGui.dll
 0002:00002398       __imp_?PostAddMenuItems@TakionFrame@@MEAAXAEAVCMenu@@@Z 0000000180023398     UtilsGui:UtilsGui.dll
 0002:000023a0       __imp_?AddMenuItems@TakionFrame@@MEAAXAEAVCMenu@@@Z 00000001800233a0     UtilsGui:UtilsGui.dll
 0002:000023a8       __imp_?PreAddMenuItems@TakionFrame@@MEAAXAEAVCMenu@@@Z 00000001800233a8     UtilsGui:UtilsGui.dll
 0002:000023b0       __imp_?OffsetFrameRectAndMove@TakionFrame@@MEAAXHH@Z 00000001800233b0     UtilsGui:UtilsGui.dll
 0002:000023b8       __imp_?DisplayClientMenu@TakionFrame@@MEAAXIVCPoint@@@Z 00000001800233b8     UtilsGui:UtilsGui.dll
 0002:000023c0       __imp_?DoApplyFilter@TakionFrame@@MEAAXAEBVTakionFilter@@_N@Z 00000001800233c0     UtilsGui:UtilsGui.dll
 0002:000023c8       __imp_?AddToToolCollection@TakionFrame@@MEAA_NXZ 00000001800233c8     UtilsGui:UtilsGui.dll
 0002:000023d0       __imp_?AfterPasting@TakionFrame@@MEAAXXZ 00000001800233d0     UtilsGui:UtilsGui.dll
 0002:000023d8       __imp_?AfterCloning@TakionFrame@@MEAAXXZ 00000001800233d8     UtilsGui:UtilsGui.dll
 0002:000023e0       __imp_?SetFrameRect@TakionFrame@@MEAAXAEBVCRect@@@Z 00000001800233e0     UtilsGui:UtilsGui.dll
 0002:000023e8       __imp_?GetBottom@TakionFrame@@UEBAHXZ 00000001800233e8     UtilsGui:UtilsGui.dll
 0002:000023f0       __imp_?GetRight@TakionFrame@@UEBAHXZ 00000001800233f0     UtilsGui:UtilsGui.dll
 0002:000023f8       __imp_?GetTop@TakionFrame@@UEBAHXZ 00000001800233f8     UtilsGui:UtilsGui.dll
 0002:00002400       __imp_?GetLeft@TakionFrame@@UEBAHXZ 0000000180023400     UtilsGui:UtilsGui.dll
 0002:00002408       __imp_?CalculateBottom@TakionFrame@@UEBAHXZ 0000000180023408     UtilsGui:UtilsGui.dll
 0002:00002410       __imp_?CalculateRight@TakionFrame@@UEBAHXZ 0000000180023410     UtilsGui:UtilsGui.dll
 0002:00002418       __imp_?CalculateTop@TakionFrame@@UEBAHXZ 0000000180023418     UtilsGui:UtilsGui.dll
 0002:00002420       __imp_?CalculateLeft@TakionFrame@@UEBAHXZ 0000000180023420     UtilsGui:UtilsGui.dll
 0002:00002428       __imp_?SetLocked@TakionFrame@@UEAAXAEB_N@Z 0000000180023428     UtilsGui:UtilsGui.dll
 0002:00002430       __imp_?GetLayer@TakionFrame@@UEBAIXZ 0000000180023430     UtilsGui:UtilsGui.dll
 0002:00002438       __imp_?GetWorkspace@TakionFrame@@UEBAIXZ 0000000180023438     UtilsGui:UtilsGui.dll
 0002:00002440       __imp_?isHidden@TakionFrame@@UEBA_NXZ 0000000180023440     UtilsGui:UtilsGui.dll
 0002:00002448       __imp_?GetCommandToolOrdinal@TakionFrame@@UEBAAEBIXZ 0000000180023448     UtilsGui:UtilsGui.dll
 0002:00002450       __imp_?isCommandTool@TakionFrame@@UEBA_NXZ 0000000180023450     UtilsGui:UtilsGui.dll
 0002:00002458       __imp_?GetToolOrdinal@TakionFrame@@UEBAAEBIXZ 0000000180023458     UtilsGui:UtilsGui.dll
 0002:00002460       __imp_?isTool@TakionFrame@@UEBA_NXZ 0000000180023460     UtilsGui:UtilsGui.dll
 0002:00002468       __imp_?isInRectForClientMenu@TakionFrame@@UEBA_NAEBVCPoint@@@Z 0000000180023468     UtilsGui:UtilsGui.dll
 0002:00002470       __imp_?isRemoved@TakionFrame@@UEBA_NXZ 0000000180023470     UtilsGui:UtilsGui.dll
 0002:00002478       __imp_?ToggleMaximized@TakionFrame@@UEAA_NXZ 0000000180023478     UtilsGui:UtilsGui.dll
 0002:00002480       __imp_?GetScrollVerticalOffset@TakionFrame@@UEBAHXZ 0000000180023480     UtilsGui:UtilsGui.dll
 0002:00002488       __imp_?GetScrollHorizontalOffset@TakionFrame@@UEBAHXZ 0000000180023488     UtilsGui:UtilsGui.dll
 0002:00002490       __imp_?ProcessKeyUp@TakionFrame@@UEAA_NEEPEAV1@@Z 0000000180023490     UtilsGui:UtilsGui.dll
 0002:00002498       __imp_?ProcessKeyDown@TakionFrame@@UEAA_NEE_NPEAV1@@Z 0000000180023498     UtilsGui:UtilsGui.dll
 0002:000024a0       __imp_?AcceptDate@TakionFrame@@UEAAXAEBII@Z 00000001800234a0     UtilsGui:UtilsGui.dll
 0002:000024a8       __imp_?AcceptPrice@TakionFrame@@UEAAXAEBVPrice@@I@Z 00000001800234a8     UtilsGui:UtilsGui.dll
 0002:000024b0       __imp_?AcceptText@TakionFrame@@UEAAXPEBDI@Z 00000001800234b0     UtilsGui:UtilsGui.dll
 0002:000024b8       __imp_?GetSysMenu@TakionFrame@@UEBAPEAVCMenu@@XZ 00000001800234b8     UtilsGui:UtilsGui.dll
 0002:000024c0       __imp_?GetInitialHeight@TakionFrame@@UEBAHXZ 00000001800234c0     UtilsGui:UtilsGui.dll
 0002:000024c8       __imp_?GetInitialWidth@TakionFrame@@UEBAHXZ 00000001800234c8     UtilsGui:UtilsGui.dll
 0002:000024d0       __imp_?GetInitialTop@TakionFrame@@UEBAHXZ 00000001800234d0     UtilsGui:UtilsGui.dll
 0002:000024d8       __imp_?GetInitialLeft@TakionFrame@@UEBAHXZ 00000001800234d8     UtilsGui:UtilsGui.dll
 0002:000024e0       __imp_?GetHitTest@TakionFrame@@UEBA_JAEBVCPoint@@@Z 00000001800234e0     UtilsGui:UtilsGui.dll
 0002:000024e8       __imp_?AdjustFrameRect@TakionFrame@@UEAAXXZ 00000001800234e8     UtilsGui:UtilsGui.dll
 0002:000024f0       __imp_?UpdateSystemRects@TakionFrame@@UEAAXXZ 00000001800234f0     UtilsGui:UtilsGui.dll
 0002:000024f8       __imp_?GetNormalRect@TakionFrame@@UEBAAEBVCRect@@XZ 00000001800234f8     UtilsGui:UtilsGui.dll
 0002:00002500       __imp_?SetCommandToolOrdinal@TakionFrame@@UEAAXI@Z 0000000180023500     UtilsGui:UtilsGui.dll
 0002:00002508       __imp_?GetTakionNamedFilter@TakionFrame@@UEBAPEBVTakionFilter@@XZ 0000000180023508     UtilsGui:UtilsGui.dll
 0002:00002510       __imp_?GetFilter@TakionFrame@@UEBAPEBVTakionFilter@@XZ 0000000180023510     UtilsGui:UtilsGui.dll
 0002:00002518       __imp_?LeaveFilter@TakionFrame@@UEAAXXZ 0000000180023518     UtilsGui:UtilsGui.dll
 0002:00002520       __imp_?NullifyNamedFilter@TakionFrame@@UEAAXXZ 0000000180023520     UtilsGui:UtilsGui.dll
 0002:00002528       __imp_?SetTakionNamedFilter@TakionFrame@@UEAAXPEAVTakionFilter@@AEBV?$basic_string@DU?$char_traits@D@std@@V?$allocator@D@2@@std@@@Z 0000000180023528     UtilsGui:UtilsGui.dll
 0002:00002530       __imp_?GetGraphicsTabInitInfo@TakionFrame@@UEBAPEBXAEBVCPoint@@@Z 0000000180023530     UtilsGui:UtilsGui.dll
 0002:00002538       __imp_?GetSettingsTabInitInfo@TakionFrame@@UEBAPEBXAEBVCPoint@@@Z 0000000180023538     UtilsGui:UtilsGui.dll
 0002:00002540       __imp_?GetSettingsTabPath@TakionFrame@@UEBAPEBDAEBVCPoint@@@Z 0000000180023540     UtilsGui:UtilsGui.dll
 0002:00002548       __imp_?CreateTakionWnd@TakionPopupWnd@@UEAA_NPEBVCRect@@_N@Z 0000000180023548     UtilsGui:UtilsGui.dll
 0002:00002550       __imp_?fromScratch@TakionFrame@@UEAAXXZ 0000000180023550     UtilsGui:UtilsGui.dll
 0002:00002558       __imp_?fromString@TakionFrame@@UEAAXAEAPEBD_K_NI@Z 0000000180023558     UtilsGui:UtilsGui.dll
 0002:00002560       __imp_?toString@TakionFrame@@UEBAXAEAV?$basic_string@DU?$char_traits@D@std@@V?$allocator@D@2@@std@@I@Z 0000000180023560     UtilsGui:UtilsGui.dll
 0002:00002568       __imp_?SetCustomColors@TakionFrame@@UEAAXPEBVGraphics@@PEAVGraphicsColorCollection@@PEBKG_NAEBVFilterStringAsNumberArray@@@Z 0000000180023568     UtilsGui:UtilsGui.dll
 0002:00002570       __imp_?SetCustomFont@TakionFrame@@UEAAXAEBVFontDescription@@_NI@Z 0000000180023570     UtilsGui:UtilsGui.dll
 0002:00002578       __imp_?GetCurrentFontParams@TakionFrame@@UEBA_NAEAV?$basic_string@DU?$char_traits@D@std@@V?$allocator@D@2@@std@@AEAVFontDescription@@1AEA_NAEAI@Z 0000000180023578     UtilsGui:UtilsGui.dll
 0002:00002580       __imp_?Help@TakionFrame@@UEAAXXZ 0000000180023580     UtilsGui:UtilsGui.dll
 0002:00002588       __imp_?GetHelpUrl@TakionFrame@@UEBA?AV?$basic_string@DU?$char_traits@D@std@@V?$allocator@D@2@@std@@XZ 0000000180023588     UtilsGui:UtilsGui.dll
 0002:00002590       __imp_?GetWindowName@TakionFrame@@UEBAPEBDXZ 0000000180023590     UtilsGui:UtilsGui.dll
 0002:00002598       __imp_?GetTitleColorTextInactive@TakionFrame@@UEBAKXZ 0000000180023598     UtilsGui:UtilsGui.dll
 0002:000025a0       __imp_?GetTitleColorTextActive@TakionFrame@@UEBAKXZ 00000001800235a0     UtilsGui:UtilsGui.dll
 0002:000025a8       __imp_?GetTitleColorInactive@TakionFrame@@UEBAKXZ 00000001800235a8     UtilsGui:UtilsGui.dll
 0002:000025b0       __imp_?GetTitleColorActive@TakionFrame@@UEBAKXZ 00000001800235b0     UtilsGui:UtilsGui.dll
 0002:000025b8       __imp_?GetBkColor@TakionPopupWnd@@UEBAKXZ 00000001800235b8     UtilsGui:UtilsGui.dll
 0002:000025c0       __imp_?NcMouseLeft@TakionBaseWnd@@MEAAXXZ 00000001800235c0     UtilsGui:UtilsGui.dll
 0002:000025c8       __imp_?NcMouseEntered@TakionBaseWnd@@MEAAXXZ 00000001800235c8     UtilsGui:UtilsGui.dll
 0002:000025d0       __imp_?OnMouseForcedReleaseCapture@TakionFrame@@MEAAXXZ 00000001800235d0     UtilsGui:UtilsGui.dll
 0002:000025d8       __imp_?MeasureMenuItem@TakionFrame@@MEAA_NPEAUtagMEASUREITEMSTRUCT@@@Z 00000001800235d8     UtilsGui:UtilsGui.dll
 0002:000025e0       __imp_?DrawMenuItem@TakionFrame@@MEAAXPEAUtagDRAWITEMSTRUCT@@@Z 00000001800235e0     UtilsGui:UtilsGui.dll
 0002:000025e8       __imp_?GetTakionInstanceHandle@TakionPopupWnd@@UEBAPEAUHINSTANCE__@@XZ 00000001800235e8     UtilsGui:UtilsGui.dll
 0002:000025f0       __imp_?GetDefaultGraphicsId@TakionBaseWnd@@UEBA?AV?$basic_string@DU?$char_traits@D@std@@V?$allocator@D@2@@std@@XZ 00000001800235f0     UtilsGui:UtilsGui.dll
 0002:000025f8       __imp_?GetToolId@TakionBaseWnd@@UEBAPEBDXZ 00000001800235f8     UtilsGui:UtilsGui.dll
 0002:00002600       __imp_?isChild@TakionBaseWnd@@UEBA_NXZ 0000000180023600     UtilsGui:UtilsGui.dll
 0002:00002608       __imp_?PostNcDestroy@TakionFrame@@MEAAXXZ 0000000180023608     UtilsGui:UtilsGui.dll
 0002:00002610       __imp_?OnNotify@TakionBaseWnd@@MEAAH_K_JPEA_J@Z 0000000180023610     UtilsGui:UtilsGui.dll
 0002:00002618       __imp_?OnCommand@TakionFrame@@MEAAH_K_J@Z 0000000180023618     UtilsGui:UtilsGui.dll
 0002:00002620       __imp_?PreCreateWindow@TakionPopupWnd@@MEAAHAEAUtagCREATESTRUCTA@@@Z 0000000180023620     UtilsGui:UtilsGui.dll
 0002:00002628       __imp_?GetMessageMap@TakionPopupWnd@@MEBAPEBUAFX_MSGMAP@@XZ 0000000180023628     UtilsGui:UtilsGui.dll
 0002:00002630       __imp_?CalculateSize@TakionMessageBox@@MEAAXXZ 0000000180023630     UtilsGui:UtilsGui.dll
 0002:00002638       __imp_?FillControls@TakionMessageBox@@MEAAXXZ 0000000180023638     UtilsGui:UtilsGui.dll
 0002:00002640       __imp_?PrepareToDisplay@TakionMessageBox@@MEAA_JPEAVCWnd@@PEBDIKKKKKKI111@Z 0000000180023640     UtilsGui:UtilsGui.dll
 0002:00002648       __imp_?UpdateColors@TakionMessageBox@@UEAAXXZ 0000000180023648     UtilsGui:UtilsGui.dll
 0002:00002650       __imp_?OnBlink@TakionMessageBox@@MEAAXXZ 0000000180023650     UtilsGui:UtilsGui.dll
 0002:00002658       __imp_?SetBkColor@ColoredDraggableDialog@@UEAAXK@Z 0000000180023658     UtilsGui:UtilsGui.dll
 0002:00002660       __imp_?Resize@TakionMessageBox@@MEAAX_N0@Z 0000000180023660     UtilsGui:UtilsGui.dll
 0002:00002668       __imp_?DoPaint@TakionMessageBox@@MEAAXAEBUtagRECT@@AEAVCDC@@@Z 0000000180023668     UtilsGui:UtilsGui.dll
 0002:00002670       __imp_?AfterClose@ColoredDraggableDialog@@MEAAXXZ 0000000180023670     UtilsGui:UtilsGui.dll
 0002:00002678       __imp_?BeforeDestroy@TakionMessageBox@@MEAAXXZ 0000000180023678     UtilsGui:UtilsGui.dll
 0002:00002680       __imp_?Apply@TakionDialog@@UEAAXXZ 0000000180023680     UtilsGui:UtilsGui.dll
 0002:00002688       __imp_?GetBkBrush@ColoredDraggableDialog@@UEBAPEAVCBrush@@XZ 0000000180023688     UtilsGui:UtilsGui.dll
 0002:00002690       __imp_?GetBkColor@ColoredDraggableDialog@@UEBAKXZ 0000000180023690     UtilsGui:UtilsGui.dll
 0002:00002698       __imp_?OnCancel@TakionMessageBox@@UEAAXXZ 0000000180023698     UtilsGui:UtilsGui.dll
 0002:000026a0       __imp_?OnOK@TakionMessageBox@@UEAAXXZ 00000001800236a0     UtilsGui:UtilsGui.dll
 0002:000026a8       __imp_?OnInitDialog@TakionMessageBox@@MEAAHXZ 00000001800236a8     UtilsGui:UtilsGui.dll
 0002:000026b0       __imp_?PreTranslateMessage@TakionMessageBox@@MEAAHPEAUtagMSG@@@Z 00000001800236b0     UtilsGui:UtilsGui.dll
 0002:000026b8       __imp_?DoDataExchange@TakionMessageBox@@MEAAXPEAVCDataExchange@@@Z 00000001800236b8     UtilsGui:UtilsGui.dll
 0002:000026c0       __imp_?GetMessageMap@TakionMessageBox@@MEBAPEBUAFX_MSGMAP@@XZ 00000001800236c0     UtilsGui:UtilsGui.dll
 0002:000026c8       __imp_?SaveDlgLayoutAs@ExtensionMainDialogBase@@QEAAXXZ 00000001800236c8     UtilsGui:UtilsGui.dll
 0002:000026d0       __imp_?RestoreDlgLayout@ExtensionMainDialogBase@@QEAAXXZ 00000001800236d0     UtilsGui:UtilsGui.dll
 0002:000026d8       __imp_?SaveDlgLayout@ExtensionMainDialogBase@@QEAAXXZ 00000001800236d8     UtilsGui:UtilsGui.dll
 0002:000026e0       __imp_?OpenDlgLayout@ExtensionMainDialogBase@@QEAAXXZ 00000001800236e0     UtilsGui:UtilsGui.dll
 0002:000026e8       __imp_??1TakionPopupWnd@@UEAA@XZ 00000001800236e8     UtilsGui:UtilsGui.dll
 0002:000026f0       __imp_?AddCheckBox@TakionMessageBox@@QEAAXPEBD_N111@Z 00000001800236f0     UtilsGui:UtilsGui.dll
 0002:000026f8       __imp_?AddCheckBox@TakionPopupWnd@@QEAAXPEBD_N111@Z 00000001800236f8     UtilsGui:UtilsGui.dll
 0002:00002700       __imp_??0TakionPopupWnd@@QEAA@PEAVMainMessageLoopWnd@@_NKIH@Z 0000000180023700     UtilsGui:UtilsGui.dll
 0002:00002708       __imp_?CreateModeless@TakionDialog@@QEAA_NPEAVCWnd@@@Z 0000000180023708     UtilsGui:UtilsGui.dll
 0002:00002710       __imp_?ApplyConfig@ExtensionMainDialogBase@@QEAAXI@Z 0000000180023710     UtilsGui:UtilsGui.dll
 0002:00002718       __imp_?SetConfig@ExtensionMainDialogBase@@QEAAXPEAVExtensionConfig@@@Z 0000000180023718     UtilsGui:UtilsGui.dll
 0002:00002720       __imp_?Serialize@ConfigBase@@QEAA_N_NPEBD10I@Z 0000000180023720     UtilsGui:UtilsGui.dll
 0002:00002728       __imp_?SetFileName@ConfigBase@@QEAA_NPEBD@Z 0000000180023728     UtilsGui:UtilsGui.dll
 0002:00002730       __imp_?AddMessage@TakionMessageBox@@QEAA_NAEBV?$basic_string@DU?$char_traits@D@std@@V?$allocator@D@2@@std@@_N1@Z 0000000180023730     UtilsGui:UtilsGui.dll
 0002:00002738       __imp_?DisplayModeless@TakionMessageBox@@QEAA_NPEAVCWnd@@PEBDIKKKKKK_NI111@Z 0000000180023738     UtilsGui:UtilsGui.dll
 0002:00002740       __imp_?ClearMessageList@TakionMessageBox@@QEAAX_N@Z 0000000180023740     UtilsGui:UtilsGui.dll
 0002:00002748       __imp_?DisplayModeless@TakionPopupWnd@@QEAA_NPEAVCWnd@@PEBDIKKKKKK_NI111@Z 0000000180023748     UtilsGui:UtilsGui.dll
 0002:00002750       __imp_?AddMessage@TakionPopupWnd@@QEAA_NPEBD_N1@Z 0000000180023750     UtilsGui:UtilsGui.dll
 0002:00002758       __imp_?ClearMessageList@TakionPopupWnd@@QEAAX_N@Z 0000000180023758     UtilsGui:UtilsGui.dll
 0002:00002760       __imp_?Corner@TakionDialog@@QEAAXXZ 0000000180023760     UtilsGui:UtilsGui.dll
 0002:00002768       __imp_?DisplayModal@TakionMessageBox@@QEAA_JPEAVCWnd@@PEBDIKKKKKKI111@Z 0000000180023768     UtilsGui:UtilsGui.dll
 0002:00002770       __imp_?AddMessage@TakionMessageBox@@QEAA_NPEBD_N1@Z 0000000180023770     UtilsGui:UtilsGui.dll
 0002:00002778       __imp_??1TakionMessageBox@@UEAA@XZ 0000000180023778     UtilsGui:UtilsGui.dll
 0002:00002780       __imp_??0TakionMessageBox@@QEAA@PEAVMainMessageLoopWnd@@_NKI@Z 0000000180023780     UtilsGui:UtilsGui.dll
 0002:00002788       __imp_?GetLabel@TakionSettingDialog@@QEBAPEBDXZ 0000000180023788     UtilsGui:UtilsGui.dll
 0002:00002790       __imp_?Top@TakionDialog@@QEAAXXZ 0000000180023790     UtilsGui:UtilsGui.dll
 0002:00002798       __imp_UGUI_GetModuleVersionNum 0000000180023798     UtilsGui:UtilsGui.dll
 0002:000027a0       __imp_??1ExtensionConfig@@UEAA@XZ 00000001800237a0     UtilsGui:UtilsGui.dll
 0002:000027a8       __imp_??4StringSettingRest@@QEAAAEAV0@AEBV0@@Z 00000001800237a8     UtilsGui:UtilsGui.dll
 0002:000027b0       __imp_?PreReadSetting@ConfigBase@@MEAA_NPEAVSetting@@AEBV?$basic_string@DU?$char_traits@D@std@@V?$allocator@D@2@@std@@PEBD@Z 00000001800237b0     UtilsGui:UtilsGui.dll
 0002:000027b8       __imp_?AdjustOldVersion@ConfigBase@@MEAAXXZ 00000001800237b8     UtilsGui:UtilsGui.dll
 0002:000027c0       __imp_?GetFlagCount@ConfigBase@@UEBAEXZ 00000001800237c0     UtilsGui:UtilsGui.dll
 0002:000027c8       __imp_?isSettingNameToRead@ConfigBase@@UEBA_NIAEBV?$basic_string@DU?$char_traits@D@std@@V?$allocator@D@2@@std@@@Z 00000001800237c8     UtilsGui:UtilsGui.dll
 0002:000027d0       __imp_?GetPosFileName@ConfigBase@@UEBAPEBDXZ 00000001800237d0     UtilsGui:UtilsGui.dll
 0002:000027d8       __imp_?GetLogFileName@ConfigBase@@UEBAPEBDXZ 00000001800237d8     UtilsGui:UtilsGui.dll
 0002:000027e0       __imp_?GetIniFileName@ConfigBase@@UEBAPEBDXZ 00000001800237e0     UtilsGui:UtilsGui.dll
 0002:000027e8       __imp_?Update@ExtensionConfig@@UEAAXXZ 00000001800237e8     UtilsGui:UtilsGui.dll
 0002:000027f0       __imp_??4ExtensionConfig@@QEAAAEAV0@AEBV0@@Z 00000001800237f0     UtilsGui:UtilsGui.dll
 0002:000027f8       __imp_?AddSetting@ConfigBase@@IEAAXPEBDAEAVSetting@@@Z 00000001800237f8     UtilsGui:UtilsGui.dll
 0002:00002800       __imp_??0SettingCollection@@IEAA@AEBI@Z 0000000180023800     UtilsGui:UtilsGui.dll
 0002:00002808       __imp_??1SettingCollection@@UEAA@XZ 0000000180023808     UtilsGui:UtilsGui.dll
 0002:00002810       __imp_?GetItemCount@Setting@@UEBAIXZ 0000000180023810     UtilsGui:UtilsGui.dll
 0002:00002818       __imp_?fromString@UIntSetting@@UEAAXAEAPEBD_KD@Z 0000000180023818     UtilsGui:UtilsGui.dll
 0002:00002820       __imp_?fromString@StringSettingRest@@UEAAXAEAPEBD_KD@Z 0000000180023820     UtilsGui:UtilsGui.dll
 0002:00002828       __imp_??0StringSettingRest@@QEAA@$$QEAV0@@Z 0000000180023828     UtilsGui:UtilsGui.dll
 0002:00002830       __imp_?EnableOkButton@TakionSettingTopDialog@@UEAAX_N@Z 0000000180023830     UtilsGui:UtilsGui.dll
 0002:00002838       __imp_??0StringSettingRest@@QEAA@AEBV0@@Z 0000000180023838     UtilsGui:UtilsGui.dll
 0002:00002840       __imp_??1UCharSetting@@UEAA@XZ 0000000180023840     UtilsGui:UtilsGui.dll
 0002:00002848       __imp_??0UCharSetting@@QEAA@AEBE@Z 0000000180023848     UtilsGui:UtilsGui.dll
 0002:00002850       __imp_??1UIntSetting@@UEAA@XZ 0000000180023850     UtilsGui:UtilsGui.dll
 0002:00002858       __imp_??0UIntSetting@@QEAA@AEBI@Z 0000000180023858     UtilsGui:UtilsGui.dll
 0002:00002860       __imp_??1PriceSetting@@UEAA@XZ 0000000180023860     UtilsGui:UtilsGui.dll
 0002:00002868       __imp_??0PriceSetting@@QEAA@EAEBVPrice@@@Z 0000000180023868     UtilsGui:UtilsGui.dll
 0002:00002870       __imp_??1CharSetting@@UEAA@XZ 0000000180023870     UtilsGui:UtilsGui.dll
 0002:00002878       __imp_??0CharSetting@@QEAA@AEBD@Z 0000000180023878     UtilsGui:UtilsGui.dll
 0002:00002880       __imp_??1StringSettingRest@@UEAA@XZ 0000000180023880     UtilsGui:UtilsGui.dll
 0002:00002888       __imp_??0StringSetting@@QEAA@AEBV?$basic_string@DU?$char_traits@D@std@@V?$allocator@D@2@@std@@@Z 0000000180023888     UtilsGui:UtilsGui.dll
 0002:00002890       __imp_??1StringSetting@@UEAA@XZ 0000000180023890     UtilsGui:UtilsGui.dll
 0002:00002898       __imp_??0StringSettingRest@@QEAA@AEBV?$basic_string@DU?$char_traits@D@std@@V?$allocator@D@2@@std@@@Z 0000000180023898     UtilsGui:UtilsGui.dll
 0002:000028a0       __imp_??1BoolSetting@@UEAA@XZ 00000001800238a0     UtilsGui:UtilsGui.dll
 0002:000028a8       __imp_??0BoolSetting@@QEAA@AEB_N@Z 00000001800238a8     UtilsGui:UtilsGui.dll
 0002:000028b0       __imp_??0ExtensionConfig@@IEAA@PEAVTakionDialog@@@Z 00000001800238b0     UtilsGui:UtilsGui.dll
 0002:000028b8       __imp_?AddButtons@DialogReset@@IEAAXHHHHHPEBD00@Z 00000001800238b8     UtilsGui:UtilsGui.dll
 0002:000028c0       __imp_?AddComponentIndirect@TakionDialog@@QEAAXPEBD0KKHHHHGG@Z 00000001800238c0     UtilsGui:UtilsGui.dll
 0002:000028c8       __imp_?OnCtlColor@TakionDialog@@IEAAPEAUHBRUSH__@@PEAVCDC@@PEAVCWnd@@I@Z 00000001800238c8     UtilsGui:UtilsGui.dll
 0002:000028d0       __imp_?TryUpdate@EditNoContext@@QEAA_NXZ 00000001800238d0     UtilsGui:UtilsGui.dll
 0002:000028d8       __imp_?AddEditBoxIndirect@TakionDialog@@QEAAXPEBDKKHHHHGG@Z 00000001800238d8     UtilsGui:UtilsGui.dll
 0002:000028e0       __imp_?AddStaticIndirect@TakionDialog@@QEAAXPEBDKKHHHHGG@Z 00000001800238e0     UtilsGui:UtilsGui.dll
 0002:000028e8       __imp_??0ValidEdit@@QEAA@AEBQEBDAEB_N101101PEAVCToolTipCtrl@@@Z 00000001800238e8     UtilsGui:UtilsGui.dll
 0002:000028f0       __imp_??1ComboBoxChar@@UEAA@XZ 00000001800238f0     UtilsGui:UtilsGui.dll
 0002:000028f8       __imp_??1ColorDateTimeCtrl@@UEAA@XZ 00000001800238f8     UtilsGui:UtilsGui.dll
 0002:00002900       __imp_?FillPriceFromSpinControl@TakionDialog@@SAXAEAVPrice@@AEBV?$UnsignedNumberTypeSpin@I@@I@Z 0000000180023900     UtilsGui:UtilsGui.dll
 0002:00002908       __imp_UGUI_IdleInterrupt   0000000180023908     UtilsGui:UtilsGui.dll
 0002:00002910       __imp_?SetBkColor@ColorDateTimeCtrl@@QEAA_NK@Z 0000000180023910     UtilsGui:UtilsGui.dll
 0002:00002918       __imp_?FillCharRange@ComboBoxChar@@QEAAXDAEBDAEB_N@Z 0000000180023918     UtilsGui:UtilsGui.dll
 0002:00002920       __imp_??1ValidEdit@@UEAA@XZ 0000000180023920     UtilsGui:UtilsGui.dll
 0002:00002928       __imp_?AddSpinCell@?$NumberTypeSpin@I@@QEAAXAEBIAEB_N0@Z 0000000180023928     UtilsGui:UtilsGui.dll
 0002:00002930       __imp_?SetColorInvalid@ComboBoxOwnerDraw@@QEAAXAEBK@Z 0000000180023930     UtilsGui:UtilsGui.dll
 0002:00002938       __imp_??0ColorDateTimeCtrl@@QEAA@GKPEBDPEAVCToolTipCtrl@@@Z 0000000180023938     UtilsGui:UtilsGui.dll
 0002:00002940       __imp_??1?$UnsignedNumberTypeSpin@I@@UEAA@XZ 0000000180023940     UtilsGui:UtilsGui.dll
 0002:00002948       __imp_??0?$UnsignedNumberTypeSpin@I@@QEAA@AEBI000AEBEAEBD12AEBHAEB_N44AEBK4AEBQEBDAEBQEAVCToolTipCtrl@@@Z 0000000180023948     UtilsGui:UtilsGui.dll
 0002:00002950       __imp_??0ComboBoxChar@@QEAA@KHPEBD@Z 0000000180023950     UtilsGui:UtilsGui.dll
 0002:00002958       __imp_?GetInsideScreen@FocusDialog@@UEBA_NAEAVCRect@@@Z 0000000180023958     UtilsGui:UtilsGui.dll
 0002:00002960       __imp_?CloseDialog@TakionDialog@@UEAAXXZ 0000000180023960     UtilsGui:UtilsGui.dll
 0002:00002968       __imp_?isCloseOnCommandExecution@FocusDialog@@UEBA_NXZ 0000000180023968     UtilsGui:UtilsGui.dll
 0002:00002970       __imp_?isExecuteCommands@FocusDialog@@UEBA_NXZ 0000000180023970     UtilsGui:UtilsGui.dll
 0002:00002978       __imp_?MoveControls@DialogValueReset@@MEAAX_N@Z 0000000180023978     UtilsGui:UtilsGui.dll
 0002:00002980       __imp_?InitializeValues@DialogReset@@MEAAXXZ 0000000180023980     UtilsGui:UtilsGui.dll
 0002:00002988       __imp_?HandleCommand@DialogEntry@@MEAA_NAEBVKey@@_N1@Z 0000000180023988     UtilsGui:UtilsGui.dll
 0002:00002990       __imp_?OnDeactivate@FocusDialog@@MEAAXXZ 0000000180023990     UtilsGui:UtilsGui.dll
 0002:00002998       __imp_?BeforeShow@DialogReset@@MEAAXXZ 0000000180023998     UtilsGui:UtilsGui.dll
 0002:000029a0       __imp_?CanShow@FocusDialog@@UEBA_NXZ 00000001800239a0     UtilsGui:UtilsGui.dll
 0002:000029a8       __imp_?Resize@DialogValueReset@@MEAAX_N0@Z 00000001800239a8     UtilsGui:UtilsGui.dll
 0002:000029b0       __imp_?DoActivate@FocusDialog@@MEAAXI_N@Z 00000001800239b0     UtilsGui:UtilsGui.dll
 0002:000029b8       __imp_?AfterClose@FocusDialog@@MEAAXXZ 00000001800239b8     UtilsGui:UtilsGui.dll
 0002:000029c0       __imp_?FinishDialog@DialogValueReset@@MEAAXH@Z 00000001800239c0     UtilsGui:UtilsGui.dll
 0002:000029c8       __imp_?Entering@TakionDialog@@MEAAXXZ 00000001800239c8     UtilsGui:UtilsGui.dll
 0002:000029d0       __imp_?isCloseOnEnter@TakionDialog@@MEBA_NXZ 00000001800239d0     UtilsGui:UtilsGui.dll
 0002:000029d8       __imp_?DisplayMenu@TakionDialog@@MEAAXAEBVCPoint@@@Z 00000001800239d8     UtilsGui:UtilsGui.dll
 0002:000029e0       __imp_?isToolTipsEnabled@TakionDialog@@UEBA_NXZ 00000001800239e0     UtilsGui:UtilsGui.dll
 0002:000029e8       __imp_?isToolTipsEnabledAdditional@TakionDialog@@UEBA_NXZ 00000001800239e8     UtilsGui:UtilsGui.dll
 0002:000029f0       __imp_?isTooltipConfigValid@TakionDialog@@UEBA_NXZ 00000001800239f0     UtilsGui:UtilsGui.dll
 0002:000029f8       __imp_?isPointForNcRButtonMenuOk@TakionDialog@@UEBA_NIVCPoint@@@Z 00000001800239f8     UtilsGui:UtilsGui.dll
 0002:00002a00       __imp_?isPointForRButtonMenuOk@TakionDialog@@UEBA_NIVCPoint@@@Z 0000000180023a00     UtilsGui:UtilsGui.dll
 0002:00002a08       __imp_?Apply@DialogReset@@MEAAXXZ 0000000180023a08     UtilsGui:UtilsGui.dll
 0002:00002a10       __imp_?GetCurrentLeaf@TakionDialog@@UEAAPEAVTakionSettingDialog@@XZ 0000000180023a10     UtilsGui:UtilsGui.dll
 0002:00002a18       __imp_?GetCurrentLeaf@TakionDialog@@UEBAPEBVTakionSettingDialog@@XZ 0000000180023a18     UtilsGui:UtilsGui.dll
 0002:00002a20       __imp_?isToDestroyOnFocus@FocusDialog@@UEBA_NXZ 0000000180023a20     UtilsGui:UtilsGui.dll
 0002:00002a28       __imp_?OnCancel@FocusDialog@@UEAAXXZ 0000000180023a28     UtilsGui:UtilsGui.dll
 0002:00002a30       __imp_?OnOK@TakionDialog@@UEAAXXZ 0000000180023a30     UtilsGui:UtilsGui.dll
 0002:00002a38       __imp_?OnInitDialog@DialogValueReset@@MEAAHXZ 0000000180023a38     UtilsGui:UtilsGui.dll
 0002:00002a40       __imp_?PreTranslateMessage@DialogReset@@MEAAHPEAUtagMSG@@@Z 0000000180023a40     UtilsGui:UtilsGui.dll
 0002:00002a48       __imp_?DoDataExchange@DialogReset@@MEAAXPEAVCDataExchange@@@Z 0000000180023a48     UtilsGui:UtilsGui.dll
 0002:00002a50       __imp_?GetThisMessageMap@DialogReset@@KAPEBUAFX_MSGMAP@@XZ 0000000180023a50     UtilsGui:UtilsGui.dll
 0002:00002a58       __imp_?Display@DialogValueReset@@QEAAXPEAVTakionFrame@@IPEAVCWnd@@AEBVCPoint@@HH@Z 0000000180023a58     UtilsGui:UtilsGui.dll
 0002:00002a60       __imp_?FillSpinControlFromSignedPrice@TakionDialog@@SAXAEBVSignedPrice@@AEAV?$SignedNumberTypeSpin@H@@I_N@Z 0000000180023a60     UtilsGui:UtilsGui.dll
 0002:00002a68       __imp_?EnableControl@TakionDialog@@SA_NPEAUHWND__@@_N0@Z 0000000180023a68     UtilsGui:UtilsGui.dll
 0002:00002a70       __imp_?isValid@DialogReset@@UEBA_NXZ 0000000180023a70     UtilsGui:UtilsGui.dll
 0002:00002a78       __imp_?EnableOkButton@DialogReset@@MEAAXXZ 0000000180023a78     UtilsGui:UtilsGui.dll
 0002:00002a80       __imp_?FillSignedPriceFromSpinControl@TakionDialog@@SAXAEAVSignedPrice@@AEBV?$SignedNumberTypeSpin@H@@I@Z 0000000180023a80     UtilsGui:UtilsGui.dll
 0002:00002a88       __imp_?UpdateValueNum@TakionSpin@@QEBAE_N@Z 0000000180023a88     UtilsGui:UtilsGui.dll
 0002:00002a90       __imp_??0SpinCell@@IEAA@_N0KK@Z 0000000180023a90     UtilsGui:UtilsGui.dll
 0002:00002a98       __imp_?AddSpinCell@TakionSpin@@QEAAXPEAVSpinCell@@@Z 0000000180023a98     UtilsGui:UtilsGui.dll
 0002:00002aa0       __imp_?charComma@TakionSpin@@2DB 0000000180023aa0     UtilsGui:UtilsGui.dll
 0002:00002aa8       __imp_?charDot@TakionSpin@@2DB 0000000180023aa8     UtilsGui:UtilsGui.dll
 0002:00002ab0       __imp_??0TakionSpin@@IEAA@EDEDH_N0KPEBDPEAVCToolTipCtrl@@@Z 0000000180023ab0     UtilsGui:UtilsGui.dll
 0002:00002ab8       __imp_?isSigned@TakionSpin@@UEBA_NXZ 0000000180023ab8     UtilsGui:UtilsGui.dll
 0002:00002ac0       __imp_?isValueNegative@TakionSpin@@UEBA_NXZ 0000000180023ac0     UtilsGui:UtilsGui.dll
 0002:00002ac8       __imp_?isValuePositive@TakionSpin@@UEBA_NXZ 0000000180023ac8     UtilsGui:UtilsGui.dll
 0002:00002ad0       __imp_?isNegative@TakionSpin@@UEBA_NXZ 0000000180023ad0     UtilsGui:UtilsGui.dll
 0002:00002ad8       __imp_?SetNegative@TakionSpin@@UEAA_NAEB_N0@Z 0000000180023ad8     UtilsGui:UtilsGui.dll
 0002:00002ae0       __imp_?ToggleNegative@TakionSpin@@UEAA_NAEB_N@Z 0000000180023ae0     UtilsGui:UtilsGui.dll
 0002:00002ae8       __imp_?CalculateMaxLength@TakionSpin@@MEAA_NXZ 0000000180023ae8     UtilsGui:UtilsGui.dll
 0002:00002af0       __imp_?CalculateMaxFirstDigit@TakionSpin@@MEAA_NXZ 0000000180023af0     UtilsGui:UtilsGui.dll
 0002:00002af8       __imp_?UpdateNegative@TakionSpin@@MEAAX_N@Z 0000000180023af8     UtilsGui:UtilsGui.dll
 0002:00002b00       __imp_??1TakionSpin@@UEAA@XZ 0000000180023b00     UtilsGui:UtilsGui.dll
 0002:00002b08       __imp_?GetMessageMap@TakionSpin@@MEBAPEBUAFX_MSGMAP@@XZ 0000000180023b08     UtilsGui:UtilsGui.dll
 0002:00002b10       __imp_?PreSubclassWindow@TakionSpin@@MEAAXXZ 0000000180023b10     UtilsGui:UtilsGui.dll
 0002:00002b18       __imp_?OnNotify@TakionCustomControl@@MEAAH_K_JPEA_J@Z 0000000180023b18     UtilsGui:UtilsGui.dll
 0002:00002b20       __imp_?PreTranslateMessage@TakionCustomControl@@MEAAHPEAUtagMSG@@@Z 0000000180023b20     UtilsGui:UtilsGui.dll
 0002:00002b28       __imp_?takionSpinClassName@TakionSpin@@2QEBDEB 0000000180023b28     UtilsGui:UtilsGui.dll
 0002:00002b30       __imp_?GetCustomClassName@TakionSpin@@UEBAPEBDXZ 0000000180023b30     UtilsGui:UtilsGui.dll
 0002:00002b38       __imp_?GetMyFont@TakionCaretCustomControl@@UEAAPEAVCFont@@XZ 0000000180023b38     UtilsGui:UtilsGui.dll
 0002:00002b40       __imp_?HasDisabledColor@TakionCustomControl@@UEBA_NXZ 0000000180023b40     UtilsGui:UtilsGui.dll
 0002:00002b48       __imp_?HasMenu@TakionCustomControl@@UEBA_NXZ 0000000180023b48     UtilsGui:UtilsGui.dll
 0002:00002b50       __imp_?ProcessKeyDown@TakionSpin@@MEAA_NIII@Z 0000000180023b50     UtilsGui:UtilsGui.dll
 0002:00002b58       __imp_?ProcessKeyUp@TakionSpin@@MEAA_NII@Z 0000000180023b58     UtilsGui:UtilsGui.dll
 0002:00002b60       __imp_?DcCreated@TakionCustomControl@@MEAAXXZ 0000000180023b60     UtilsGui:UtilsGui.dll
 0002:00002b68       __imp_?OnEnabledStatusChange@TakionSpin@@MEAAXXZ 0000000180023b68     UtilsGui:UtilsGui.dll
 0002:00002b70       __imp_?Resize@TakionCustomControl@@MEAAXIHH@Z 0000000180023b70     UtilsGui:UtilsGui.dll
 0002:00002b78       __imp_?DoSize@TakionSpin@@MEAAXIHHHH@Z 0000000180023b78     UtilsGui:UtilsGui.dll
 0002:00002b80       __imp_?PaintBackground@TakionCustomControl@@MEAAXAEBUtagRECT@@AEAVCDC@@@Z 0000000180023b80     UtilsGui:UtilsGui.dll
 0002:00002b88       __imp_?DoPaint@TakionSpin@@MEAAXAEBUtagRECT@@AEAVCDC@@@Z 0000000180023b88     UtilsGui:UtilsGui.dll
 0002:00002b90       __imp_?DoPaintClient@TakionSpin@@MEAAXAEBUtagRECT@@AEAVCDC@@@Z 0000000180023b90     UtilsGui:UtilsGui.dll
 0002:00002b98       __imp_?DoAdditionalPaint@TakionCustomControl@@MEAAXAEBUtagRECT@@AEAVCDC@@@Z 0000000180023b98     UtilsGui:UtilsGui.dll
 0002:00002ba0       __imp_?DrawMenuItem@TakionTextCustomControl@@MEAAXPEAUtagDRAWITEMSTRUCT@@@Z 0000000180023ba0     UtilsGui:UtilsGui.dll
 0002:00002ba8       __imp_?MeasureMenuItem@TakionTextCustomControl@@MEAA_NPEAUtagMEASUREITEMSTRUCT@@@Z 0000000180023ba8     UtilsGui:UtilsGui.dll
 0002:00002bb0       __imp_?DisplayClientMenu@TakionCustomControl@@MEAAXIVCPoint@@@Z 0000000180023bb0     UtilsGui:UtilsGui.dll
 0002:00002bb8       __imp_?AddMenuItems@TakionTextCustomControl@@MEAAXAEAVCMenu@@@Z 0000000180023bb8     UtilsGui:UtilsGui.dll
 0002:00002bc0       __imp_?SetClientCursor@TakionTextCustomControl@@MEAA_NXZ 0000000180023bc0     UtilsGui:UtilsGui.dll
 0002:00002bc8       __imp_?Wheel@TakionSpin@@MEAAXFIVCPoint@@@Z 0000000180023bc8     UtilsGui:UtilsGui.dll
 0002:00002bd0       __imp_?FocusGained@TakionSpin@@MEAAXXZ 0000000180023bd0     UtilsGui:UtilsGui.dll
 0002:00002bd8       __imp_?FocusLost@TakionSpin@@MEAAXXZ 0000000180023bd8     UtilsGui:UtilsGui.dll
 0002:00002be0       __imp_?OnFontChange@TakionSpin@@MEAAXPEAVCDC@@@Z 0000000180023be0     UtilsGui:UtilsGui.dll
 0002:00002be8       __imp_?UpdateTextRectsHeight@TakionSpin@@MEAA_NXZ 0000000180023be8     UtilsGui:UtilsGui.dll
 0002:00002bf0       __imp_?BorderColorChanged@TakionSpin@@MEAAXXZ 0000000180023bf0     UtilsGui:UtilsGui.dll
 0002:00002bf8       __imp_?PreSetMouseFocus@TakionCustomControl@@MEAAXXZ 0000000180023bf8     UtilsGui:UtilsGui.dll
 0002:00002c00       __imp_?DoUpdateCaretPosition@TakionSpin@@MEAAXXZ 0000000180023c00     UtilsGui:UtilsGui.dll
 0002:00002c08       __imp_?OnBuildCaret@TakionSpin@@MEAAXXZ 0000000180023c08     UtilsGui:UtilsGui.dll
 0002:00002c10       __imp_?CalculateEditRectLeft@TakionSpin@@UEBAHXZ 0000000180023c10     UtilsGui:UtilsGui.dll
 0002:00002c18       __imp_?CalculateEditRectRight@TakionSpin@@UEBAHXZ 0000000180023c18     UtilsGui:UtilsGui.dll
 0002:00002c20       __imp_?isContentValid@TakionTextCustomControl@@UEBA_NXZ 0000000180023c20     UtilsGui:UtilsGui.dll
 0002:00002c28       __imp_?isContentEmpty@TakionTextCustomControl@@UEBA_NXZ 0000000180023c28     UtilsGui:UtilsGui.dll
 0002:00002c30       __imp_?isPasteAvailable@TakionTextCustomControl@@UEBA_NXZ 0000000180023c30     UtilsGui:UtilsGui.dll
 0002:00002c38       __imp_?GetInEditCursor@TakionTextCustomControl@@UEBAPEAUHICON__@@XZ 0000000180023c38     UtilsGui:UtilsGui.dll
 0002:00002c40       __imp_?GetOutEditCursor@TakionTextCustomControl@@UEBAPEAUHICON__@@XZ 0000000180023c40     UtilsGui:UtilsGui.dll
 0002:00002c48       __imp_?WantChars@TakionTextCustomControl@@UEBA_NXZ 0000000180023c48     UtilsGui:UtilsGui.dll
 0002:00002c50       __imp_?GetEditLeftOffset@TakionSpin@@UEBAHXZ 0000000180023c50     UtilsGui:UtilsGui.dll
 0002:00002c58       __imp_?GetEditRightOffset@TakionSpin@@UEBAHXZ 0000000180023c58     UtilsGui:UtilsGui.dll
 0002:00002c60       __imp_?ProcessDigit@TakionSpin@@UEAA_NE_N0@Z 0000000180023c60     UtilsGui:UtilsGui.dll
 0002:00002c68       __imp_?ProcessCtrlChar@TakionSpin@@UEAA_NE_N0@Z 0000000180023c68     UtilsGui:UtilsGui.dll
 0002:00002c70       __imp_?AllVisible@TakionSpin@@UEBA_NXZ 0000000180023c70     UtilsGui:UtilsGui.dll
 0002:00002c78       __imp_?GetFirstChar@TakionSpin@@QEBADXZ 0000000180023c78     UtilsGui:UtilsGui.dll
 0002:00002c80       __imp_?GetNextChar@TakionSpin@@QEBADXZ 0000000180023c80     UtilsGui:UtilsGui.dll
 0002:00002c88       __imp_?InitScrolling@TakionSpin@@MEAAXPEAVSpinCell@@IE_N@Z 0000000180023c88     UtilsGui:UtilsGui.dll
 0002:00002c90       __imp_?NotifyParentAboutValueChange@TakionSpin@@MEAAX_N@Z 0000000180023c90     UtilsGui:UtilsGui.dll
 0002:00002c98       __imp_?UpdateValueStr@TakionSpin@@MEAAX_N@Z 0000000180023c98     UtilsGui:UtilsGui.dll
 0002:00002ca0       __imp_?charMinus@TakionSpin@@2DB 0000000180023ca0     UtilsGui:UtilsGui.dll
 0002:00002ca8       __imp_?GetCellCount@TakionSpin@@QEBAEXZ 0000000180023ca8     UtilsGui:UtilsGui.dll
 0002:00002cb0       __imp_?InsertDigitAtBegin@TakionSpin@@IEAAXE_N0@Z 0000000180023cb0     UtilsGui:UtilsGui.dll
 0002:00002cb8       __imp_?Pad@TakionSpin@@IEAA_NAEB_N@Z 0000000180023cb8     UtilsGui:UtilsGui.dll
 0002:00002cc0       __imp_?SetPrefix@TakionSpin@@QEAA_NDH@Z 0000000180023cc0     UtilsGui:UtilsGui.dll
 0002:00002cc8       __imp_?UpdatePrefixRect@TakionSpin@@IEAA_NXZ 0000000180023cc8     UtilsGui:UtilsGui.dll
 0002:00002cd0       __imp_?isToDestroyToolTipIfNoText@ControlToolTipHelper@@UEBA_NXZ 0000000180023cd0     UtilsGui:UtilsGui.dll
 0002:00002cd8       __imp_?GetToolTipRect@ControlToolTipHelper@@UEBAAEBVCRect@@XZ 0000000180023cd8     UtilsGui:UtilsGui.dll
 0002:00002ce0       __imp_?CanCreateToolTip@ControlToolTipHelper@@UEBA_NXZ 0000000180023ce0     UtilsGui:UtilsGui.dll
 0002:00002ce8       __imp_?ToolTipCreated@ControlToolTipHelper@@MEAAXXZ 0000000180023ce8     UtilsGui:UtilsGui.dll
 0002:00002cf0       __imp_?GetToolTipText@ControlToolTipHelper@@UEBAPEBDXZ 0000000180023cf0     UtilsGui:UtilsGui.dll
 0002:00002cf8       __imp_?UpdateTooltipText@ControlToolTipHelper@@MEAAXXZ 0000000180023cf8     UtilsGui:UtilsGui.dll
 0002:00002d00       __imp_?MouseEntered@TakionCustomControl@@MEAAXXZ 0000000180023d00     UtilsGui:UtilsGui.dll
 0002:00002d08       __imp_?MouseLeft@TakionSpin@@MEAAXXZ 0000000180023d08     UtilsGui:UtilsGui.dll
 0002:00002d10       __imp_?BeforeDestroy@TakionSpin@@MEAAXXZ 0000000180023d10     UtilsGui:UtilsGui.dll
 0002:00002d18       __imp_??1DialogValueReset@@UEAA@XZ 0000000180023d18     UtilsGui:UtilsGui.dll
 0002:00002d20       __imp_??0DialogValueReset@@IEAA@PEAVMainMessageLoopWnd@@PEAVCWnd@@_NPEAVTakionFrame@@1PEBDKKHHHH4G22@Z 0000000180023d20     UtilsGui:UtilsGui.dll
 0002:00002d28       __imp_??1TakionSettingPageBase@@UEAA@XZ 0000000180023d28     UtilsGui:UtilsGui.dll
 0002:00002d30       __imp_?GetHwnd@TakionDialog@@UEBAPEAUHWND__@@XZ 0000000180023d30     UtilsGui:UtilsGui.dll
 0002:00002d38       __imp_?OnMouseForcedReleaseCapture@TakionDialog@@UEAAXXZ 0000000180023d38     UtilsGui:UtilsGui.dll
 0002:00002d40       __imp_?GetInsideScreen@TakionDialogInterface@@UEBA_NAEAVCRect@@@Z 0000000180023d40     UtilsGui:UtilsGui.dll
 0002:00002d48       __imp_?UpdateSystemRects@TakionDialogInterface@@UEAAXXZ 0000000180023d48     UtilsGui:UtilsGui.dll
 0002:00002d50       __imp_?MoveToFrameRect@TakionDialog@@UEAAXXZ 0000000180023d50     UtilsGui:UtilsGui.dll
 0002:00002d58       __imp_?SetFrameRect@TakionDialog@@UEAAXAEBVCRect@@@Z 0000000180023d58     UtilsGui:UtilsGui.dll
 0002:00002d60       __imp_?DragWindow@TakionDialog@@UEAAXHH@Z 0000000180023d60     UtilsGui:UtilsGui.dll
 0002:00002d68       __imp_?OffsetFrameRectAndMove@TakionDialog@@UEAAXHH@Z 0000000180023d68     UtilsGui:UtilsGui.dll
 0002:00002d70       __imp_?AdjustFrameRect@TakionDialog@@UEAAXXZ 0000000180023d70     UtilsGui:UtilsGui.dll
 0002:00002d78       __imp_?CloseDialog@TakionSettingDialog@@UEAAXXZ 0000000180023d78     UtilsGui:UtilsGui.dll
 0002:00002d80       __imp_?isCloseOnCommandExecution@TakionDialogInterface@@UEBA_NXZ 0000000180023d80     UtilsGui:UtilsGui.dll
 0002:00002d88       __imp_?isExecuteCommands@TakionDialogInterface@@UEBA_NXZ 0000000180023d88     UtilsGui:UtilsGui.dll
 0002:00002d90       __imp_?SettingPageDestroyed@TakionSettingPageBase@@MEAAXXZ 0000000180023d90     UtilsGui:UtilsGui.dll
 0002:00002d98       __imp_?SetActiveTab@TakionSettingPageBase@@MEAAX_N@Z 0000000180023d98     UtilsGui:UtilsGui.dll
 0002:00002da0       __imp_?DestroyInitInfo@TakionSettingDialog@@MEAAXPEBX@Z 0000000180023da0     UtilsGui:UtilsGui.dll
 0002:00002da8       __imp_?DoApplyInitInfo@TakionSettingDialog@@MEAAXXZ 0000000180023da8     UtilsGui:UtilsGui.dll
 0002:00002db0       __imp_?NullifyInitInfo@TakionSettingDialog@@MEAAXXZ 0000000180023db0     UtilsGui:UtilsGui.dll
 0002:00002db8       __imp_?SetupControls@TakionSettingDialog@@MEAAXXZ 0000000180023db8     UtilsGui:UtilsGui.dll
 0002:00002dc0       __imp_?MeasurePageMenuItems@TakionSettingDialog@@UEBA_NPEAUtagMEASUREITEMSTRUCT@@@Z 0000000180023dc0     UtilsGui:UtilsGui.dll
 0002:00002dc8       __imp_?SetAlarm@TakionSettingTopDialog@@UEAAX_NI@Z 0000000180023dc8     UtilsGui:UtilsGui.dll
 0002:00002dd0       __imp_?GetRightMargin@TakionSettingTopDialog@@UEBAHXZ 0000000180023dd0     UtilsGui:UtilsGui.dll
 0002:00002dd8       __imp_?isExtensionMainDialog@ExtensionMainDialogBase@@UEBA_NXZ 0000000180023dd8     UtilsGui:UtilsGui.dll
 0002:00002de0       __imp_?isInitializedFromFile@ExtensionMainDialogBase@@UEBA_NXZ 0000000180023de0     UtilsGui:UtilsGui.dll
 0002:00002de8       __imp_?GetPosRect@ExtensionMainDialogBase@@UEAAXAEAVCRect@@@Z 0000000180023de8     UtilsGui:UtilsGui.dll
 0002:00002df0       __imp_?ExtractIsAlwaysOnTop@ExtensionMainDialogBase@@UEBA_NXZ 0000000180023df0     UtilsGui:UtilsGui.dll
 0002:00002df8       __imp_?ExtractIsShowToolTips@ExtensionMainDialogBase@@UEBA_NXZ 0000000180023df8     UtilsGui:UtilsGui.dll
 0002:00002e00       __imp_?SaveAlwaysOnTop@ExtensionMainDialogBase@@MEAAX_N@Z 0000000180023e00     UtilsGui:UtilsGui.dll
 0002:00002e08       __imp_?SaveShowToolTips@ExtensionMainDialogBase@@MEAAX_N@Z 0000000180023e08     UtilsGui:UtilsGui.dll
 0002:00002e10       __imp_?PlaceButtons@ExtensionMainDialogBase@@MEAA_NXZ 0000000180023e10     UtilsGui:UtilsGui.dll
 0002:00002e18       __imp_?GetExtensionFilePathAndName@ExtensionMainDialogBase@@UEBAPEBDXZ 0000000180023e18     UtilsGui:UtilsGui.dll
 0002:00002e20       __imp_?OnMouseForcedReleaseCapture@TakionSettingTabDialog@@UEAAXXZ 0000000180023e20     UtilsGui:UtilsGui.dll
 0002:00002e28       __imp_UGUI_DrawOwnerDrawStringMenuItem 0000000180023e28     UtilsGui:UtilsGui.dll
 0002:00002e30       __imp_?OnDrawItem@TakionBaseWnd@@IEAAXHPEAUtagDRAWITEMSTRUCT@@@Z 0000000180023e30     UtilsGui:UtilsGui.dll
 0002:00002e38       __imp_?OnMeasureItem@TakionBaseWnd@@IEAAXHPEAUtagMEASUREITEMSTRUCT@@@Z 0000000180023e38     UtilsGui:UtilsGui.dll
 0002:00002e40       __imp_?Display@DialogTextEntry@@QEAAX_N0PEAVTakionFrame@@PEAVCWnd@@I2PEBD00303KKIPEAVCFont@@HHHH00@Z 0000000180023e40     UtilsGui:UtilsGui.dll
 0002:00002e48       __imp_?AddChar@DialogTextEntry@@QEAAXE_N@Z 0000000180023e48     UtilsGui:UtilsGui.dll
 0002:00002e50       __imp_?PreCreateWindow@TakionFrame@@MEAAHAEAUtagCREATESTRUCTA@@@Z 0000000180023e50     UtilsGui:UtilsGui.dll
 0002:00002e58       __imp_?GetTakionInstanceHandle@TakionBaseWnd@@UEBAPEAUHINSTANCE__@@XZ 0000000180023e58     UtilsGui:UtilsGui.dll
 0002:00002e60       __imp_?GetHitTest@TakionResizableWnd@@UEBA_JAEBVCPoint@@@Z 0000000180023e60     UtilsGui:UtilsGui.dll
 0002:00002e68       __imp_?GetInsideScreen@TakionFrame@@MEBA_NAEAVCRect@@@Z 0000000180023e68     UtilsGui:UtilsGui.dll
 0002:00002e70       __imp_?GetBorderGraphicsName@TakionResizableWnd@@UEBA?AV?$basic_string@DU?$char_traits@D@std@@V?$allocator@D@2@@std@@XZ 0000000180023e70     UtilsGui:UtilsGui.dll
 0002:00002e78       __imp_?OnBorderResize@TakionResizableWnd@@MEAAXH@Z 0000000180023e78     UtilsGui:UtilsGui.dll
 0002:00002e80       __imp_?InvalidateItem@ListBoxOwnerDraw@@QEBAXHHH@Z 0000000180023e80     UtilsGui:UtilsGui.dll
 0002:00002e88       __imp_??0TakionFileDialog@@QEAA@PEAVMainMessageLoopWnd@@_NPEBD2K22PEAVCWnd@@@Z 0000000180023e88     UtilsGui:UtilsGui.dll
 0002:00002e90       __imp_??1TakionFileDialog@@UEAA@XZ 0000000180023e90     UtilsGui:UtilsGui.dll
 0002:00002e98       __imp_?DoModal@TakionFileDialog@@UEAA_JXZ 0000000180023e98     UtilsGui:UtilsGui.dll
 0002:00002ea0       __imp_??0UIntSetting@@QEAA@AEBV0@@Z 0000000180023ea0     UtilsGui:UtilsGui.dll
 0002:00002ea8       __imp_?FindItemByName@ComboBoxOwnerDraw@@QEBAHPEBD@Z 0000000180023ea8     UtilsGui:UtilsGui.dll
 0002:00002eb0       __imp_?FindItem@ComboBoxOwnerDraw@@QEBAHPEBXH@Z 0000000180023eb0     UtilsGui:UtilsGui.dll
 0002:00002eb8       __imp_?SetInvalid@ComboBoxOwnerDraw@@QEAA_NAEB_N@Z 0000000180023eb8     UtilsGui:UtilsGui.dll
 0002:00002ec0       __imp_?SetBkColorEnabled@TakionCustomControl@@QEAA_NK@Z 0000000180023ec0     UtilsGui:UtilsGui.dll
 0002:00002ec8       __imp_?m_visualBase@TakionDialogInterface@@2PEAVVisualBase@@EA 0000000180023ec8     UtilsGui:UtilsGui.dll
 0002:00002ed0       __imp_??0TakionSettingPageBase@@IEAA@PEAVMainMessageLoopWnd@@PEAVTakionSettingTabDialog@@PEBD@Z 0000000180023ed0     UtilsGui:UtilsGui.dll
 0002:00002ed8       __imp_?AddButtonIndirect@TakionDialog@@QEAAXPEBDKKHHHHGG@Z 0000000180023ed8     UtilsGui:UtilsGui.dll
 0002:00002ee0       __imp_?AddComboBoxIndirect@TakionDialog@@QEAAXPEBDKKHHHHGG@Z 0000000180023ee0     UtilsGui:UtilsGui.dll
 0002:00002ee8       __imp_?BeforeDestroy@TakionDialog@@MEAAXXZ 0000000180023ee8     UtilsGui:UtilsGui.dll
 0002:00002ef0       __imp_?OnInitDialog@TakionDialog@@MEAAHXZ 0000000180023ef0     UtilsGui:UtilsGui.dll
 0002:00002ef8       __imp_?SetValue@?$TypeSetting@V?$basic_string@DU?$char_traits@D@std@@V?$allocator@D@2@@std@@@@QEAA_NAEBV?$basic_string@DU?$char_traits@D@std@@V?$allocator@D@2@@std@@@Z 0000000180023ef8     UtilsGui:UtilsGui.dll
 0002:00002f00       __imp_?GetThisMessageMap@TakionSettingPageBase@@KAPEBUAFX_MSGMAP@@XZ 0000000180023f00     UtilsGui:UtilsGui.dll
 0002:00002f08       __imp_?GetMessageMap@TakionSettingPageBase@@MEBAPEBUAFX_MSGMAP@@XZ 0000000180023f08     UtilsGui:UtilsGui.dll
 0002:00002f10       __imp_?OnNotify@TakionDialog@@MEAAH_K_JPEA_J@Z 0000000180023f10     UtilsGui:UtilsGui.dll
 0002:00002f18       __imp_?PreTranslateMessage@TakionSettingDialog@@UEAAHPEAUtagMSG@@@Z 0000000180023f18     UtilsGui:UtilsGui.dll
 0002:00002f20       __imp_?DoModal@TakionDialog@@UEAA_JXZ 0000000180023f20     UtilsGui:UtilsGui.dll
 0002:00002f28       __imp_?OnOK@TakionSettingDialog@@UEAAXXZ 0000000180023f28     UtilsGui:UtilsGui.dll
 0002:00002f30       __imp_?OnCancel@TakionDialog@@UEAAXXZ 0000000180023f30     UtilsGui:UtilsGui.dll
 0002:00002f38       __imp_?GetBkColor@TakionDialog@@UEBAKXZ 0000000180023f38     UtilsGui:UtilsGui.dll
 0002:00002f40       __imp_?GetBkBrush@TakionDialog@@UEBAPEAVCBrush@@XZ 0000000180023f40     UtilsGui:UtilsGui.dll
 0002:00002f48       __imp_?isOrderDialog@TakionDialog@@UEBA_NXZ 0000000180023f48     UtilsGui:UtilsGui.dll
 0002:00002f50       __imp_?isToDestroyOnFocus@TakionDialog@@UEBA_NXZ 0000000180023f50     UtilsGui:UtilsGui.dll
 0002:00002f58       __imp_?GetCurrentLeaf@TakionSettingPageBase@@UEBAPEBVTakionSettingDialog@@XZ 0000000180023f58     UtilsGui:UtilsGui.dll
 0002:00002f60       __imp_?GetCurrentLeaf@TakionSettingPageBase@@UEAAPEAVTakionSettingDialog@@XZ 0000000180023f60     UtilsGui:UtilsGui.dll
 0002:00002f68       __imp_?GetFirstTabControl@TakionDialog@@UEBAPEAUHWND__@@XZ 0000000180023f68     UtilsGui:UtilsGui.dll
 0002:00002f70       __imp_?Apply@TakionSettingDialog@@UEAAXXZ 0000000180023f70     UtilsGui:UtilsGui.dll
 0002:00002f78       __imp_?Help@TakionDialog@@UEAAXXZ 0000000180023f78     UtilsGui:UtilsGui.dll
 0002:00002f80       __imp_?GetHelpUrl@TakionDialog@@UEBA?AV?$basic_string@DU?$char_traits@D@std@@V?$allocator@D@2@@std@@XZ 0000000180023f80     UtilsGui:UtilsGui.dll
 0002:00002f88       __imp_?GetTotalValue@TakionDialog@@UEBAPEBDIGPEADI@Z 0000000180023f88     UtilsGui:UtilsGui.dll
 0002:00002f90       __imp_?GetTitleRect@TakionDialog@@UEBAXPEBVListBoxOwnerDraw@@AEAVCRect@@1@Z 0000000180023f90     UtilsGui:UtilsGui.dll
 0002:00002f98       __imp_?isPointForRButtonMenuOk@TakionSettingPageBase@@UEBA_NIVCPoint@@@Z 0000000180023f98     UtilsGui:UtilsGui.dll
 0002:00002fa0       __imp_?isPointForNcRButtonMenuOk@TakionSettingPageBase@@UEBA_NIVCPoint@@@Z 0000000180023fa0     UtilsGui:UtilsGui.dll
 0002:00002fa8       __imp_?UpdateFrameBottom@TakionDialog@@UEAA_NXZ 0000000180023fa8     UtilsGui:UtilsGui.dll
 0002:00002fb0       __imp_?UpdateFrameRight@TakionDialog@@UEAA_NXZ 0000000180023fb0     UtilsGui:UtilsGui.dll
 0002:00002fb8       __imp_?HasActiveRectMenu@TakionDialog@@UEBA_NPEBVActiveRect@@@Z 0000000180023fb8     UtilsGui:UtilsGui.dll
 0002:00002fc0       __imp_?isTooltipConfigValid@TakionSettingDialog@@MEBA_NXZ 0000000180023fc0     UtilsGui:UtilsGui.dll
 0002:00002fc8       __imp_?isToolTipsEnabledAdditional@TakionSettingDialog@@MEBA_NXZ 0000000180023fc8     UtilsGui:UtilsGui.dll
 0002:00002fd0       __imp_?isToolTipsEnabled@TakionSettingDialog@@MEBA_NXZ 0000000180023fd0     UtilsGui:UtilsGui.dll
 0002:00002fd8       __imp_?InitControls@TakionDialog@@MEAAXXZ 0000000180023fd8     UtilsGui:UtilsGui.dll
 0002:00002fe0       __imp_?DisplayMenu@TakionSettingPageBase@@MEAAXAEBVCPoint@@@Z 0000000180023fe0     UtilsGui:UtilsGui.dll
 0002:00002fe8       __imp_?PreAddMenuItems@TakionDialog@@MEAAXAEAVCMenu@@@Z 0000000180023fe8     UtilsGui:UtilsGui.dll
 0002:00002ff0       __imp_?AddMenuItems@TakionDialog@@MEAAXAEAVCMenu@@@Z 0000000180023ff0     UtilsGui:UtilsGui.dll
 0002:00002ff8       __imp_?PostAddMenuItems@TakionDialog@@MEAAXAEAVCMenu@@@Z 0000000180023ff8     UtilsGui:UtilsGui.dll
 0002:00003000       __imp_?DrawMenuItem@TakionDialog@@MEAAXPEAUtagDRAWITEMSTRUCT@@@Z 0000000180024000     UtilsGui:UtilsGui.dll
 0002:00003008       __imp_?MeasureMenuItem@TakionDialog@@MEAA_NPEAUtagMEASUREITEMSTRUCT@@@Z 0000000180024008     UtilsGui:UtilsGui.dll
 0002:00003010       __imp_?DialogCancelled@TakionDialog@@MEAAXXZ 0000000180024010     UtilsGui:UtilsGui.dll
 0002:00003018       __imp_?ResizeControlsInitialized@TakionDialog@@MEAAXXZ 0000000180024018     UtilsGui:UtilsGui.dll
 0002:00003020       __imp_?OnResizeToFrame@TakionDialog@@MEAAXXZ 0000000180024020     UtilsGui:UtilsGui.dll
 0002:00003028       __imp_?isCloseOnEnter@TakionSettingDialog@@MEBA_NXZ 0000000180024028     UtilsGui:UtilsGui.dll
 0002:00003030       __imp_?TitleScrolledHorizontally@TakionDialog@@MEAAXIAEBVCRect@@H@Z 0000000180024030     UtilsGui:UtilsGui.dll
 0002:00003038       __imp_?TotalScrolledHorizontally@TakionDialog@@MEAAXIAEBVCRect@@H@Z 0000000180024038     UtilsGui:UtilsGui.dll
 0002:00003040       __imp_?PreWheel@TakionDialog@@MEAA_NIFVCPoint@@@Z 0000000180024040     UtilsGui:UtilsGui.dll
 0002:00003048       __imp_?Leaving@TakionDialog@@MEAAXXZ 0000000180024048     UtilsGui:UtilsGui.dll
 0002:00003050       __imp_?FinishDialog@TakionDialog@@MEAAXH@Z 0000000180024050     UtilsGui:UtilsGui.dll
 0002:00003058       __imp_?AfterClose@TakionDialog@@MEAAXXZ 0000000180024058     UtilsGui:UtilsGui.dll
 0002:00003060       __imp_?MouseEntered@TakionDialog@@MEAAXXZ 0000000180024060     UtilsGui:UtilsGui.dll
 0002:00003068       __imp_?MouseLeft@TakionDialog@@MEAAXXZ 0000000180024068     UtilsGui:UtilsGui.dll
 0002:00003070       __imp_?NcMouseEntered@TakionDialog@@MEAAXXZ 0000000180024070     UtilsGui:UtilsGui.dll
 0002:00003078       __imp_?NcMouseLeft@TakionDialog@@MEAAXXZ 0000000180024078     UtilsGui:UtilsGui.dll
 0002:00003080       __imp_?DCCreated@TakionDialog@@MEAAXXZ 0000000180024080     UtilsGui:UtilsGui.dll
 0002:00003088       __imp_?LBDragEnter@TakionDialog@@MEAA_JAEAUDRAGDROPINFO@@IPEAVListBoxOwnerDraw@@@Z 0000000180024088     UtilsGui:UtilsGui.dll
 0002:00003090       __imp_?LBItemDraggedAndDropped@TakionDialog@@MEAAXIGG@Z 0000000180024090     UtilsGui:UtilsGui.dll
 0002:00003098       __imp_?LBDragDropDone@TakionDialog@@MEAAXIHH@Z 0000000180024098     UtilsGui:UtilsGui.dll
 0002:000030a0       __imp_?LBDragDropAbort@TakionDialog@@MEAAXIH@Z 00000001800240a0     UtilsGui:UtilsGui.dll
 0002:000030a8       __imp_?ItemDropped@TakionDialog@@MEAAHPEAUHWND__@@PEAVListBoxOwnerDraw@@IPEAXAEAH@Z 00000001800240a8     UtilsGui:UtilsGui.dll
 0002:000030b0       __imp_?m_mainWnd@TakionBaseWnd@@2PEAVMainMessageLoopWnd@@EA 00000001800240b0     UtilsGui:UtilsGui.dll
 0002:000030b8       __imp_?ReadFromStreamAsString@SettingCollection@@UEAAXAEAV?$basic_ifstream@DU?$char_traits@D@std@@@std@@AEAV?$basic_string@DU?$char_traits@D@std@@V?$allocator@D@2@@3@@Z 00000001800240b8     UtilsGui:UtilsGui.dll
 0002:000030c0       __imp_?ResizeMouseArea@TakionDialog@@MEAA_NAEBVCPoint@@@Z 00000001800240c0     UtilsGui:UtilsGui.dll
 0002:000030c8       __imp_?UpdateResizeCursor@TakionDialog@@MEAAEAEBVCPoint@@_N@Z 00000001800240c8     UtilsGui:UtilsGui.dll
 0002:000030d0       __imp_?DoActivate@TakionDialog@@MEAAXI_N@Z 00000001800240d0     UtilsGui:UtilsGui.dll
 0002:000030d8       __imp_?DoPaint@TakionDialog@@MEAAXAEBUtagRECT@@AEAVCDC@@@Z 00000001800240d8     UtilsGui:UtilsGui.dll
 0002:000030e0       __imp_?DoAdditionalPaint@TakionDialog@@MEAAXAEBUtagRECT@@AEAVCDC@@@Z 00000001800240e0     UtilsGui:UtilsGui.dll
 0002:000030e8       __imp_?Resize@TakionDialog@@MEAAX_N0@Z 00000001800240e8     UtilsGui:UtilsGui.dll
 0002:000030f0       __imp_?AfterControlsResized@TakionDialog@@MEAAX_N0@Z 00000001800240f0     UtilsGui:UtilsGui.dll
 0002:000030f8       __imp_?CreateToolTip@TakionDialog@@MEAA_NXZ 00000001800240f8     UtilsGui:UtilsGui.dll
 0002:00003100       __imp_?DestroyToolTip@TakionDialog@@MEAA_NXZ 0000000180024100     UtilsGui:UtilsGui.dll
 0002:00003108       __imp_?ToolTipsEnabled@TakionDialog@@MEAAX_N@Z 0000000180024108     UtilsGui:UtilsGui.dll
 0002:00003110       __imp_?InitializeToolTips@TakionDialog@@MEAA_NXZ 0000000180024110     UtilsGui:UtilsGui.dll
 0002:00003118       __imp_?PropagateToolTipsEnabled@TakionDialog@@MEAA_N_N@Z 0000000180024118     UtilsGui:UtilsGui.dll
 0002:00003120       __imp_?ActiveRectChanged@TakionDialog@@MEAAXXZ 0000000180024120     UtilsGui:UtilsGui.dll
 0002:00003128       __imp_?AddActiveRectMenuItems@TakionDialog@@MEAAXAEAVCMenu@@PEBVActiveRect@@@Z 0000000180024128     UtilsGui:UtilsGui.dll
 0002:00003130       __imp_?DoDisplaySelection@TakionDialog@@MEAA_NAEBVCRect@@_N1@Z 0000000180024130     UtilsGui:UtilsGui.dll
 0002:00003138       __imp_?NoActiveRectPressed@TakionDialog@@MEAA_NXZ 0000000180024138     UtilsGui:UtilsGui.dll
 0002:00003140       __imp_?OnMakeSelection@TakionDialog@@MEAAXXZ 0000000180024140     UtilsGui:UtilsGui.dll
 0002:00003148       __imp_?isModified@TakionSettingDialog@@UEBA_NXZ 0000000180024148     UtilsGui:UtilsGui.dll
 0002:00003150       __imp_?isForceApply@TakionSettingDialog@@UEBA_NXZ 0000000180024150     UtilsGui:UtilsGui.dll
 0002:00003158       __imp_?PrepareForSavingLayout@TakionSettingDialog@@UEAAXXZ 0000000180024158     UtilsGui:UtilsGui.dll
 0002:00003160       __imp_?UpdateSettings@TakionSettingDialog@@UEAAXXZ 0000000180024160     UtilsGui:UtilsGui.dll
 0002:00003168       __imp_?UpdateControls@TakionSettingDialog@@UEAAXXZ 0000000180024168     UtilsGui:UtilsGui.dll
 0002:00003170       __imp_?PostInitDialog@TakionSettingDialog@@UEAAXXZ 0000000180024170     UtilsGui:UtilsGui.dll
 0002:00003178       __imp_?UpdateLeafControls@TakionSettingDialog@@UEAAXXZ 0000000180024178     UtilsGui:UtilsGui.dll
 0002:00003180       __imp_?isActiveTab@TakionSettingPageBase@@UEBA_NXZ 0000000180024180     UtilsGui:UtilsGui.dll
 0002:00003188       __imp_?GetSettingDialogs@TakionSettingDialog@@UEAAPEAV?$vector@PEAVTakionSettingDialog@@V?$allocator@PEAVTakionSettingDialog@@@std@@@std@@XZ 0000000180024188     UtilsGui:UtilsGui.dll
 0002:00003190       __imp_?isLeaf@TakionSettingPageBase@@UEBA_NXZ 0000000180024190     UtilsGui:UtilsGui.dll
 0002:00003198       __imp_?SetTabToOpen@TakionSettingDialog@@UEAA_NPEBDPEBX@Z 0000000180024198     UtilsGui:UtilsGui.dll
 0002:000031a0       __imp_?SetInitialTab@TakionSettingDialog@@UEAAXXZ 00000001800241a0     UtilsGui:UtilsGui.dll
 0002:000031a8       __imp_?GetLevel@TakionSettingPageBase@@UEBAIXZ 00000001800241a8     UtilsGui:UtilsGui.dll
 0002:000031b0       __imp_?GetCurrentTab@TakionSettingDialog@@UEBAHXZ 00000001800241b0     UtilsGui:UtilsGui.dll
 0002:000031b8       __imp_?GetMainTabDialog@TakionSettingDialog@@UEBAPEBVTakionSettingTabDialog@@XZ 00000001800241b8     UtilsGui:UtilsGui.dll
 0002:000031c0       __imp_?GetMainTabDialog@TakionSettingDialog@@UEAAPEAVTakionSettingTabDialog@@XZ 00000001800241c0     UtilsGui:UtilsGui.dll
 0002:000031c8       __imp_?GetTopDialogWidth@TakionSettingDialog@@UEBAHXZ 00000001800241c8     UtilsGui:UtilsGui.dll
 0002:000031d0       __imp_?GetTopDialogHeight@TakionSettingDialog@@UEBAHXZ 00000001800241d0     UtilsGui:UtilsGui.dll
 0002:000031d8       __imp_?RestoreLayout@TakionSettingDialog@@UEAAXXZ 00000001800241d8     UtilsGui:UtilsGui.dll
 0002:000031e0       __imp_?SameLayoutOnRestore@TakionSettingDialog@@UEAAXXZ 00000001800241e0     UtilsGui:UtilsGui.dll
 0002:000031e8       __imp_?GetOkButton@TakionSettingDialog@@UEAAAEAVCButton@@XZ 00000001800241e8     UtilsGui:UtilsGui.dll
 0002:000031f0       __imp_?GetApplyButton@TakionSettingDialog@@UEAAAEAVCButton@@XZ 00000001800241f0     UtilsGui:UtilsGui.dll
 0002:000031f8       __imp_?GetOnTopCheckBox@TakionSettingDialog@@UEAAAEAVCButton@@XZ 00000001800241f8     UtilsGui:UtilsGui.dll
 0002:00003200       __imp_?GetToolTipsCheckBox@TakionSettingDialog@@UEAAAEAVCButton@@XZ 0000000180024200     UtilsGui:UtilsGui.dll
 0002:00003208       __imp_?GetCancelButton@TakionSettingDialog@@UEAAAEAVCButton@@XZ 0000000180024208     UtilsGui:UtilsGui.dll
 0002:00003210       __imp_?GetHelpButton@TakionSettingDialog@@UEAAAEAVCButton@@XZ 0000000180024210     UtilsGui:UtilsGui.dll
 0002:00003218       __imp_?EnableApplyButton@TakionSettingDialog@@UEAAX_N@Z 0000000180024218     UtilsGui:UtilsGui.dll
 0002:00003220       __imp_?EnableOkButton@TakionSettingDialog@@UEAAX_N@Z 0000000180024220     UtilsGui:UtilsGui.dll
 0002:00003228       __imp_?isAlarm@TakionSettingPageBase@@UEBA_NXZ 0000000180024228     UtilsGui:UtilsGui.dll
 0002:00003230       __imp_?SetAlarm@TakionSettingPageBase@@UEAAX_NI@Z 0000000180024230     UtilsGui:UtilsGui.dll
 0002:00003238       __imp_?OnPageCommand@TakionSettingDialog@@UEAA_NK@Z 0000000180024238     UtilsGui:UtilsGui.dll
 0002:00003240       __imp_?AddPageMenuItems@TakionSettingDialog@@UEBAXAEAVCMenu@@AEBVCPoint@@@Z 0000000180024240     UtilsGui:UtilsGui.dll
 0002:00003248       __imp_?DrawPageMenuItems@TakionSettingDialog@@UEBA_NPEBUtagDRAWITEMSTRUCT@@@Z 0000000180024248     UtilsGui:UtilsGui.dll
 0002:00003250       \177UtilsGui_NULL_THUNK_DATA 0000000180024250     UtilsGui:UtilsGui.dll
 0002:00003258       __imp_memcpy               0000000180024258     vcruntime:VCRUNTIME140.dll
 0002:00003260       __imp_memcmp               0000000180024260     vcruntime:VCRUNTIME140.dll
 0002:00003268       __imp__CxxThrowException   0000000180024268     vcruntime:VCRUNTIME140.dll
 0002:00003270       __imp___std_terminate      0000000180024270     vcruntime:VCRUNTIME140.dll
 0002:00003278       __imp_memmove              0000000180024278     vcruntime:VCRUNTIME140.dll
 0002:00003280       __imp__purecall            0000000180024280     vcruntime:VCRUNTIME140.dll
 0002:00003288       __imp_strrchr              0000000180024288     vcruntime:VCRUNTIME140.dll
 0002:00003290       __imp___std_exception_copy 0000000180024290     vcruntime:VCRUNTIME140.dll
 0002:00003298       __imp___std_exception_destroy 0000000180024298     vcruntime:VCRUNTIME140.dll
 0002:000032a0       __imp_memset               00000001800242a0     vcruntime:VCRUNTIME140.dll
 0002:000032a8       __imp___C_specific_handler 00000001800242a8     vcruntime:VCRUNTIME140.dll
 0002:000032b0       __imp___vcrt_InitializeCriticalSectionEx 00000001800242b0     vcruntime:VCRUNTIME140.dll
 0002:000032b8       __imp___std_type_info_destroy_list 00000001800242b8     vcruntime:VCRUNTIME140.dll
 0002:000032c0       __imp___CxxFrameHandler3   00000001800242c0     vcruntime:VCRUNTIME140.dll
 0002:000032c8       \177VCRUNTIME140_NULL_THUNK_DATA 00000001800242c8     vcruntime:VCRUNTIME140.dll
 0002:000032d0       __imp_strtol               00000001800242d0     ucrt:api-ms-win-crt-convert-l1-1-0.dll
 0002:000032d8       __imp_strtod               00000001800242d8     ucrt:api-ms-win-crt-convert-l1-1-0.dll
 0002:000032e0       \177api-ms-win-crt-convert-l1-1-0_NULL_THUNK_DATA 00000001800242e0     ucrt:api-ms-win-crt-convert-l1-1-0.dll
 0002:000032e8       __imp__lock_file           00000001800242e8     ucrt:api-ms-win-crt-filesystem-l1-1-0.dll
 0002:000032f0       __imp__unlock_file         00000001800242f0     ucrt:api-ms-win-crt-filesystem-l1-1-0.dll
 0002:000032f8       \177api-ms-win-crt-filesystem-l1-1-0_NULL_THUNK_DATA 00000001800242f8     ucrt:api-ms-win-crt-filesystem-l1-1-0.dll
 0002:00003300       __imp_free                 0000000180024300     ucrt:api-ms-win-crt-heap-l1-1-0.dll
 0002:00003308       \177api-ms-win-crt-heap-l1-1-0_NULL_THUNK_DATA 0000000180024308     ucrt:api-ms-win-crt-heap-l1-1-0.dll
 0002:00003310       __imp__initialize_narrow_environment 0000000180024310     ucrt:api-ms-win-crt-runtime-l1-1-0.dll
 0002:00003318       __imp__initialize_onexit_table 0000000180024318     ucrt:api-ms-win-crt-runtime-l1-1-0.dll
 0002:00003320       __imp__register_onexit_function 0000000180024320     ucrt:api-ms-win-crt-runtime-l1-1-0.dll
 0002:00003328       __imp__seh_filter_dll      0000000180024328     ucrt:api-ms-win-crt-runtime-l1-1-0.dll
 0002:00003330       __imp__invalid_parameter_noinfo 0000000180024330     ucrt:api-ms-win-crt-runtime-l1-1-0.dll
 0002:00003338       __imp__initterm_e          0000000180024338     ucrt:api-ms-win-crt-runtime-l1-1-0.dll
 0002:00003340       __imp__initterm            0000000180024340     ucrt:api-ms-win-crt-runtime-l1-1-0.dll
 0002:00003348       __imp__cexit               0000000180024348     ucrt:api-ms-win-crt-runtime-l1-1-0.dll
 0002:00003350       __imp__crt_atexit          0000000180024350     ucrt:api-ms-win-crt-runtime-l1-1-0.dll
 0002:00003358       __imp__execute_onexit_table 0000000180024358     ucrt:api-ms-win-crt-runtime-l1-1-0.dll
 0002:00003360       __imp__errno               0000000180024360     ucrt:api-ms-win-crt-runtime-l1-1-0.dll
 0002:00003368       __imp__configure_narrow_argv 0000000180024368     ucrt:api-ms-win-crt-runtime-l1-1-0.dll
 0002:00003370       __imp__invalid_parameter_noinfo_noreturn 0000000180024370     ucrt:api-ms-win-crt-runtime-l1-1-0.dll
 0002:00003378       \177api-ms-win-crt-runtime-l1-1-0_NULL_THUNK_DATA 0000000180024378     ucrt:api-ms-win-crt-runtime-l1-1-0.dll
 0002:00003380       __imp_fputc                0000000180024380     ucrt:api-ms-win-crt-stdio-l1-1-0.dll
 0002:00003388       __imp_fgetc                0000000180024388     ucrt:api-ms-win-crt-stdio-l1-1-0.dll
 0002:00003390       __imp_fclose               0000000180024390     ucrt:api-ms-win-crt-stdio-l1-1-0.dll
 0002:00003398       __imp_ungetc               0000000180024398     ucrt:api-ms-win-crt-stdio-l1-1-0.dll
 0002:000033a0       __imp_setvbuf              00000001800243a0     ucrt:api-ms-win-crt-stdio-l1-1-0.dll
 0002:000033a8       __imp_fsetpos              00000001800243a8     ucrt:api-ms-win-crt-stdio-l1-1-0.dll
 0002:000033b0       __imp__fseeki64            00000001800243b0     ucrt:api-ms-win-crt-stdio-l1-1-0.dll
 0002:000033b8       __imp_fgetpos              00000001800243b8     ucrt:api-ms-win-crt-stdio-l1-1-0.dll
 0002:000033c0       __imp_fwrite               00000001800243c0     ucrt:api-ms-win-crt-stdio-l1-1-0.dll
 0002:000033c8       __imp__get_stream_buffer_pointers 00000001800243c8     ucrt:api-ms-win-crt-stdio-l1-1-0.dll
 0002:000033d0       __imp_fflush               00000001800243d0     ucrt:api-ms-win-crt-stdio-l1-1-0.dll
 0002:000033d8       \177api-ms-win-crt-stdio-l1-1-0_NULL_THUNK_DATA 00000001800243d8     ucrt:api-ms-win-crt-stdio-l1-1-0.dll
 0002:000033e0       __imp_toupper              00000001800243e0     ucrt:api-ms-win-crt-string-l1-1-0.dll
 0002:000033e8       __imp_isdigit              00000001800243e8     ucrt:api-ms-win-crt-string-l1-1-0.dll
 0002:000033f0       __imp_strcpy_s             00000001800243f0     ucrt:api-ms-win-crt-string-l1-1-0.dll
 0002:000033f8       __imp_strcmp               00000001800243f8     ucrt:api-ms-win-crt-string-l1-1-0.dll
 0002:00003400       \177api-ms-win-crt-string-l1-1-0_NULL_THUNK_DATA 0000000180024400     ucrt:api-ms-win-crt-string-l1-1-0.dll
 0002:00003408       __imp_ldiv                 0000000180024408     ucrt:api-ms-win-crt-utility-l1-1-0.dll
 0002:00003410       \177api-ms-win-crt-utility-l1-1-0_NULL_THUNK_DATA 0000000180024410     ucrt:api-ms-win-crt-utility-l1-1-0.dll
 0002:00003418       __imp_?Read@CArchive@@QEAAIPEAXI@Z 0000000180024418     mfc140:mfc140.dll
 0002:00003420       __imp_?Write@CArchive@@QEAAXPEBXI@Z 0000000180024420     mfc140:mfc140.dll
 0002:00003428       __imp_?Create@CPlex@@SAPEAU1@AEAPEAU1@_K1@Z 0000000180024428     mfc140:mfc140.dll
 0002:00003430       __imp_?GetRuntimeClass@CObject@@UEBAPEAUCRuntimeClass@@XZ 0000000180024430     mfc140:mfc140.dll
 0002:00003438       __imp_?WriteProfileStringA@CWinApp@@UEAAHPEBD00@Z 0000000180024438     mfc140:mfc140.dll
 0002:00003440       __imp_?GetProfileStringA@CWinApp@@UEAA?AV?$CStringT@DV?$StrTraitMFC_DLL@DV?$ChTraitsCRT@D@ATL@@@@@ATL@@PEBD00@Z 0000000180024440     mfc140:mfc140.dll
 0002:00003448       __imp_?WriteProfileInt@CWinApp@@UEAAHPEBD0H@Z 0000000180024448     mfc140:mfc140.dll
 0002:00003450       __imp_?GetProfileIntA@CWinApp@@UEAAIPEBD0H@Z 0000000180024450     mfc140:mfc140.dll
 0002:00003458       __imp_?Delete@CWinThread@@UEAAXXZ 0000000180024458     mfc140:mfc140.dll
 0002:00003460       __imp_?GetMainWnd@CWinThread@@UEAAPEAVCWnd@@XZ 0000000180024460     mfc140:mfc140.dll
 0002:00003468       __imp_?ProcessMessageFilter@CWinThread@@UEAAHHPEAUtagMSG@@@Z 0000000180024468     mfc140:mfc140.dll
 0002:00003470       __imp_?ProcessWndProcException@CWinApp@@UEAA_JPEAVCException@@PEBUtagMSG@@@Z 0000000180024470     mfc140:mfc140.dll
 0002:00003478       __imp_?IsIdleMessage@CWinThread@@UEAAHPEAUtagMSG@@@Z 0000000180024478     mfc140:mfc140.dll
 0002:00003480       __imp_?OnIdle@CWinApp@@UEAAHJ@Z 0000000180024480     mfc140:mfc140.dll
 0002:00003488       __imp_?PumpMessage@CWinThread@@UEAAHXZ 0000000180024488     mfc140:mfc140.dll
 0002:00003490       __imp_?PreTranslateMessage@CWinThread@@UEAAHPEAUtagMSG@@@Z 0000000180024490     mfc140:mfc140.dll
 0002:00003498       __imp_?Run@CWinApp@@UEAAHXZ 0000000180024498     mfc140:mfc140.dll
 0002:000034a0       __imp_?GetInterfaceMap@CCmdTarget@@MEBAPEBUAFX_INTERFACEMAP@@XZ 00000001800244a0     mfc140:mfc140.dll
 0002:000034a8       __imp_?GetMessageMap@CWinApp@@MEBAPEBUAFX_MSGMAP@@XZ 00000001800244a8     mfc140:mfc140.dll
 0002:000034b0       __imp_?OnFinalRelease@CCmdTarget@@UEAAXXZ 00000001800244b0     mfc140:mfc140.dll
 0002:000034b8       __imp_?GetRuntimeClass@CWinApp@@UEBAPEAUCRuntimeClass@@XZ 00000001800244b8     mfc140:mfc140.dll
 0002:000034c0       __imp_?ExitInstance@CWinApp@@UEAAHXZ 00000001800244c0     mfc140:mfc140.dll
 0002:000034c8       __imp_?InitInstance@CWinApp@@UEAAHXZ 00000001800244c8     mfc140:mfc140.dll
 0002:000034d0       __imp_??0CWinApp@@QEAA@PEBD@Z 00000001800244d0     mfc140:mfc140.dll
 0002:000034d8       __imp_??1CWinApp@@UEAA@XZ  00000001800244d8     mfc140:mfc140.dll
 0002:000034e0       __imp_?GetWindowTextA@CWnd@@QEBAXAEAV?$CStringT@DV?$StrTraitMFC_DLL@DV?$ChTraitsCRT@D@ATL@@@@@ATL@@@Z 00000001800244e0     mfc140:mfc140.dll
 0002:000034e8       __imp_??0?$CStringT@DV?$StrTraitMFC_DLL@DV?$ChTraitsCRT@D@ATL@@@@@ATL@@QEAA@XZ 00000001800244e8     mfc140:mfc140.dll
 0002:000034f0       __imp_??1?$CStringT@DV?$StrTraitMFC_DLL@DV?$ChTraitsCRT@D@ATL@@@@@ATL@@QEAA@XZ 00000001800244f0     mfc140:mfc140.dll
 0002:000034f8       __imp_?SetBkMode@CDC@@QEAAHH@Z 00000001800244f8     mfc140:mfc140.dll
 0002:00003500       __imp_?GetDlgCtrlID@CWnd@@QEBAHXZ 0000000180024500     mfc140:mfc140.dll
 0002:00003508       __imp_??1CButton@@UEAA@XZ  0000000180024508     mfc140:mfc140.dll
 0002:00003510       __imp_?GetRuntimeClass@CButton@@UEBAPEAUCRuntimeClass@@XZ 0000000180024510     mfc140:mfc140.dll
 0002:00003518       __imp_?OnChildNotify@CButton@@MEAAHI_K_JPEA_J@Z 0000000180024518     mfc140:mfc140.dll
 0002:00003520       __imp_?Create@CButton@@UEAAHPEBDKAEBUtagRECT@@PEAVCWnd@@I@Z 0000000180024520     mfc140:mfc140.dll
 0002:00003528       __imp_?DrawItem@CButton@@UEAAXPEAUtagDRAWITEMSTRUCT@@@Z 0000000180024528     mfc140:mfc140.dll
 0002:00003530       __imp_?GetRuntimeClass@CWnd@@UEBAPEAUCRuntimeClass@@XZ 0000000180024530     mfc140:mfc140.dll
 0002:00003538       __imp_??1CStatic@@UEAA@XZ  0000000180024538     mfc140:mfc140.dll
 0002:00003540       __imp_??0CWnd@@QEAA@XZ     0000000180024540     mfc140:mfc140.dll
 0002:00003548       __imp_?GetRuntimeClass@CStatic@@UEBAPEAUCRuntimeClass@@XZ 0000000180024548     mfc140:mfc140.dll
 0002:00003550       __imp_?OnCmdMsg@CCmdTarget@@UEAAHIHPEAXPEAUAFX_CMDHANDLERINFO@@@Z 0000000180024550     mfc140:mfc140.dll
 0002:00003558       __imp_?GetMessageMap@CWnd@@MEBAPEBUAFX_MSGMAP@@XZ 0000000180024558     mfc140:mfc140.dll
 0002:00003560       __imp_?OnNotify@CWnd@@MEAAH_K_JPEA_J@Z 0000000180024560     mfc140:mfc140.dll
 0002:00003568       __imp_?PreTranslateMessage@CWnd@@UEAAHPEAUtagMSG@@@Z 0000000180024568     mfc140:mfc140.dll
 0002:00003570       __imp_?OnChildNotify@CStatic@@MEAAHI_K_JPEA_J@Z 0000000180024570     mfc140:mfc140.dll
 0002:00003578       __imp_?CheckAutoCenter@CWnd@@UEAAHXZ 0000000180024578     mfc140:mfc140.dll
 0002:00003580       __imp_?SetOccDialogInfo@CWnd@@MEAAHPEAU_AFX_OCC_DIALOG_INFO@@@Z 0000000180024580     mfc140:mfc140.dll
 0002:00003588       __imp_?GetOccDialogInfo@CWnd@@MEAAPEAU_AFX_OCC_DIALOG_INFO@@XZ 0000000180024588     mfc140:mfc140.dll
 0002:00003590       __imp_?Create@CStatic@@UEAAHPEBDKAEBUtagRECT@@PEAVCWnd@@I@Z 0000000180024590     mfc140:mfc140.dll
 0002:00003598       __imp_?DrawItem@CStatic@@UEAAXPEAUtagDRAWITEMSTRUCT@@@Z 0000000180024598     mfc140:mfc140.dll
 0002:000035a0       __imp_?PreInitDialog@CDialog@@MEAAXXZ 00000001800245a0     mfc140:mfc140.dll
 0002:000035a8       __imp_?OnSetFont@CDialog@@UEAAXPEAVCFont@@@Z 00000001800245a8     mfc140:mfc140.dll
 0002:000035b0       __imp_?CreateIndirect@CDialog@@UEAAHPEBUDLGTEMPLATE@@PEAVCWnd@@PEAX@Z 00000001800245b0     mfc140:mfc140.dll
 0002:000035b8       __imp_?CreateIndirect@CDialog@@UEAAHPEAXPEAVCWnd@@@Z 00000001800245b8     mfc140:mfc140.dll
 0002:000035c0       __imp_?Create@CDialog@@UEAAHPEBDPEAVCWnd@@@Z 00000001800245c0     mfc140:mfc140.dll
 0002:000035c8       __imp_?GetOccDialogInfo@CDialog@@MEAAPEAU_AFX_OCC_DIALOG_INFO@@XZ 00000001800245c8     mfc140:mfc140.dll
 0002:000035d0       __imp_?SetOccDialogInfo@CDialog@@MEAAHPEAU_AFX_OCC_DIALOG_INFO@@@Z 00000001800245d0     mfc140:mfc140.dll
 0002:000035d8       __imp_?CreateControlSite@CWnd@@MEAAHPEAVCOleControlContainer@@PEAPEAVCOleControlSite@@IAEBU_GUID@@@Z 00000001800245d8     mfc140:mfc140.dll
 0002:000035e0       __imp_?CreateControlContainer@CWnd@@MEAAHPEAPEAVCOleControlContainer@@@Z 00000001800245e0     mfc140:mfc140.dll
 0002:000035e8       __imp_?IsFrameWnd@CWnd@@UEBAHXZ 00000001800245e8     mfc140:mfc140.dll
 0002:000035f0       __imp_?CheckAutoCenter@CDialog@@UEAAHXZ 00000001800245f0     mfc140:mfc140.dll
 0002:000035f8       __imp_?ResizeDynamicLayout@CWnd@@MEAAXXZ 00000001800245f8     mfc140:mfc140.dll
 0002:00003600       __imp_?OnGesturePressAndTap@CWnd@@MEAAHVCPoint@@J@Z 0000000180024600     mfc140:mfc140.dll
 0002:00003608       __imp_?OnGestureTwoFingerTap@CWnd@@MEAAHVCPoint@@@Z 0000000180024608     mfc140:mfc140.dll
 0002:00003610       __imp_?OnGestureRotate@CWnd@@MEAAHVCPoint@@N@Z 0000000180024610     mfc140:mfc140.dll
 0002:00003618       __imp_?OnGesturePan@CWnd@@MEAAHVCPoint@@0@Z 0000000180024618     mfc140:mfc140.dll
 0002:00003620       __imp_?OnGestureZoom@CWnd@@MEAAHVCPoint@@J@Z 0000000180024620     mfc140:mfc140.dll
 0002:00003628       __imp_?GetGestureStatus@CWnd@@MEAAKVCPoint@@@Z 0000000180024628     mfc140:mfc140.dll
 0002:00003630       __imp_?OnTouchInput@CWnd@@MEAAHVCPoint@@HHPEAUtagTOUCHINPUT@@@Z 0000000180024630     mfc140:mfc140.dll
 0002:00003638       __imp_?OnTouchInputs@CWnd@@MEAAHIPEAUtagTOUCHINPUT@@@Z 0000000180024638     mfc140:mfc140.dll
 0002:00003640       __imp_?OnChildNotify@CWnd@@MEAAHI_K_JPEA_J@Z 0000000180024640     mfc140:mfc140.dll
 0002:00003648       __imp_?PostNcDestroy@CWnd@@MEAAXXZ 0000000180024648     mfc140:mfc140.dll
 0002:00003650       __imp_?DefWindowProcA@CWnd@@MEAA_JI_K_J@Z 0000000180024650     mfc140:mfc140.dll
 0002:00003658       __imp_?OnWndMsg@CWnd@@MEAAHI_K_JPEA_J@Z 0000000180024658     mfc140:mfc140.dll
 0002:00003660       __imp_?WindowProc@CWnd@@MEAA_JI_K_J@Z 0000000180024660     mfc140:mfc140.dll
 0002:00003668       __imp_?OnAmbientProperty@CWnd@@UEAAHPEAVCOleControlSite@@JPEAUtagVARIANT@@@Z 0000000180024668     mfc140:mfc140.dll
 0002:00003670       __imp_?GetSuperWndProcAddr@CWnd@@MEAAPEAP6A_JPEAUHWND__@@I_K_J@ZXZ 0000000180024670     mfc140:mfc140.dll
 0002:00003678       __imp_?WriteCount@CArchive@@QEAAX_K@Z 0000000180024678     mfc140:mfc140.dll
 0002:00003680       __imp_?CreateAccessibleProxy@CWnd@@UEAAJ_K_JPEA_J@Z 0000000180024680     mfc140:mfc140.dll
 0002:00003688       __imp_?SetProxy@CWnd@@UEAAJPEAUIAccessibleProxy@@@Z 0000000180024688     mfc140:mfc140.dll
 0002:00003690       __imp_?put_accValue@CWnd@@UEAAJUtagVARIANT@@PEA_W@Z 0000000180024690     mfc140:mfc140.dll
 0002:00003698       __imp_?put_accName@CWnd@@UEAAJUtagVARIANT@@PEA_W@Z 0000000180024698     mfc140:mfc140.dll
 0002:000036a0       __imp_?AfxThrowArchiveException@@YAXHPEBD@Z 00000001800246a0     mfc140:mfc140.dll
 0002:000036a8       __imp_?accHitTest@CWnd@@UEAAJJJPEAUtagVARIANT@@@Z 00000001800246a8     mfc140:mfc140.dll
 0002:000036b0       __imp_?accNavigate@CWnd@@UEAAJJUtagVARIANT@@PEAU2@@Z 00000001800246b0     mfc140:mfc140.dll
 0002:000036b8       __imp_?accLocation@CWnd@@UEAAJPEAJ000UtagVARIANT@@@Z 00000001800246b8     mfc140:mfc140.dll
 0002:000036c0       __imp_?accSelect@CWnd@@UEAAJJUtagVARIANT@@@Z 00000001800246c0     mfc140:mfc140.dll
 0002:000036c8       __imp_?get_accDefaultAction@CWnd@@UEAAJUtagVARIANT@@PEAPEA_W@Z 00000001800246c8     mfc140:mfc140.dll
