 TakionAdditionalColumns

 Timestamp is 64c534a0 (Sat Jul 29 11:47:44 2023)

 Preferred load address is 0000000180000000

 Start         Length     Name                   Class
 0001:00000000 00000090H .text$di                CODE
 0001:00000090 000040e0H .text$mn                CODE
 0001:00004170 00000012H .text$mn$00             CODE
 0001:00004182 000000feH .text$x                 CODE
 0001:00004280 00000060H .text$yd                CODE
 0002:00000000 00000e88H .idata$5                DATA
 0002:00000e88 00000010H .00cfg                  DATA
 0002:00000e98 00000008H .CRT$XCA                DATA
 0002:00000ea0 00000010H .CRT$XCL                DATA
 0002:00000eb0 00000008H .CRT$XCU                DATA
 0002:00000eb8 00000008H .CRT$XCZ                DATA
 0002:00000ec0 00000008H .CRT$XIA                DATA
 0002:00000ec8 00000008H .CRT$XIC                DATA
 0002:00000ed0 00000008H .CRT$XIZ                DATA
 0002:00000ed8 00000008H .CRT$XLA                DATA
 0002:00000ee0 00000008H .CRT$XLZ                DATA
 0002:00000ee8 00000008H .CRT$XPA                DATA
 0002:00000ef0 00000008H .CRT$XPZ                DATA
 0002:00000ef8 00000008H .CRT$XTA                DATA
 0002:00000f00 00000010H .CRT$XTZ                DATA
 0002:00000f10 000021b8H .rdata                  DATA
 0002:000030c8 00000028H .rdata$T                DATA
 0002:000030f0 0000217cH .rdata$r                DATA
 0002:0000526c 0000034cH .rdata$zzzdbg           DATA
 0002:000055b8 00000008H .rtc$IAA                DATA
 0002:000055c0 00000008H .rtc$IZZ                DATA
 0002:000055c8 00000008H .rtc$TAA                DATA
 0002:000055d0 00000010H .rtc$TZZ                DATA
 0002:000055e0 000003c0H .xdata                  DATA
 0002:000059a0 00000000H ATL$__a                 DATA
 0002:000059a0 00000000H ATL$__z                 DATA
 0002:000059a0 000009b4H .edata                  DATA
 0002:00006354 000000f0H .idata$2                DATA
 0002:00006444 00000014H .idata$3                DATA
 0002:00006458 00000e88H .idata$4                DATA
 0002:000072e0 00004ef0H .idata$6                DATA
 0003:00000000 00000040H .data                   DATA
 0003:00000040 00000d60H .data$r                 DATA
 0003:00000da0 00000a30H .bss                    DATA
 0004:00000000 000004e0H .pdata                  DATA
 0005:00000000 00000034H .gfids$y                DATA
 0006:00000000 00000004H .tls                    DATA
 0006:00000004 00000004H .tls$                   DATA
 0006:00000008 00000001H .tls$ZZZ                DATA
 0007:00000000 000000a0H .rsrc$01                DATA
 0007:000000a0 000005d0H .rsrc$02                DATA

  Address         Publics by Value              Rva+Base               Lib:Object

 0000:00000000       __dynamic_value_reloc_table 0000000000000000     <absolute>
 0000:00000000       __guard_iat_count          0000000000000000     <absolute>
 0000:00000000       __guard_iat_table          0000000000000000     <absolute>
 0000:00000000       __guard_fids_count         0000000000000000     <absolute>
 0000:00000000       ___safe_se_handler_table   0000000000000000     <absolute>
 0000:00000000       __guard_longjmp_table      0000000000000000     <absolute>
 0000:00000000       ___safe_se_handler_count   0000000000000000     <absolute>
 0000:00000000       __guard_longjmp_count      0000000000000000     <absolute>
 0000:00000000       __guard_fids_table         0000000000000000     <absolute>
 0000:00000100       __guard_flags              0000000000000100     <absolute>
 0000:00000000       __ImageBase                0000000180000000     <linker-defined>
 0001:00000090       __vcrt_thread_attach       0000000180001090 f   msvcrt:ucrt_stubs.obj
 0001:00000090       __acrt_initialize          0000000180001090 f   msvcrt:ucrt_stubs.obj
 0001:00000090       __vcrt_thread_detach       0000000180001090 f   msvcrt:ucrt_stubs.obj
 0001:00000090       __scrt_stub_for_acrt_thread_attach 0000000180001090 f   msvcrt:ucrt_stubs.obj
 0001:00000090       __acrt_uninitialize        0000000180001090 f   msvcrt:ucrt_stubs.obj
 0001:00000090       IsTraderIdValid            0000000180001090 f   ColumnFunctions.obj
 0001:00000090       AdditionalMsLock           0000000180001090 f   ColumnFunctions.obj
 0001:00000090       __vcrt_uninitialize        0000000180001090 f   msvcrt:ucrt_stubs.obj
 0001:00000090       __scrt_stub_for_acrt_uninitialize_critical 0000000180001090 f   msvcrt:ucrt_stubs.obj
 0001:00000090       __scrt_stub_for_acrt_uninitialize 0000000180001090 f   msvcrt:ucrt_stubs.obj
 0001:00000090       __vcrt_initialize          0000000180001090 f   msvcrt:ucrt_stubs.obj
 0001:00000090       __acrt_thread_detach       0000000180001090 f   msvcrt:ucrt_stubs.obj
 0001:00000090       __acrt_thread_attach       0000000180001090 f   msvcrt:ucrt_stubs.obj
 0001:00000090       __scrt_stub_for_acrt_initialize 0000000180001090 f   msvcrt:ucrt_stubs.obj
 0001:00000090       __scrt_stub_for_acrt_thread_detach 0000000180001090 f   msvcrt:ucrt_stubs.obj
 0001:00000090       __acrt_uninitialize_critical 0000000180001090 f   msvcrt:ucrt_stubs.obj
 0001:00000090       __vcrt_uninitialize_critical 0000000180001090 f   msvcrt:ucrt_stubs.obj
 0001:000000a0       GetMsAdditionalColumnCount 00000001800010a0 f   ColumnFunctions.obj
 0001:000000b0       MsUpdateNonCumulativeRowValue 00000001800010b0 f   ColumnFunctions.obj
 0001:000000b0       MsRemoveNonCumulativeRowValue 00000001800010b0 f   ColumnFunctions.obj
 0001:000000b0       OrdUpdateNonCumulativeRowValue 00000001800010b0 f   ColumnFunctions.obj
 0001:000000b0       OrdAddNonCumulativeRowValue 00000001800010b0 f   ColumnFunctions.obj
 0001:000000b0       OrdRemoveNonCumulativeRowValue 00000001800010b0 f   ColumnFunctions.obj
 0001:000000b0       MsAddNonCumulativeRowValue 00000001800010b0 f   ColumnFunctions.obj
 0001:000000c0       IsMsColumnPosition         00000001800010c0 f   ColumnFunctions.obj
 0001:000000d0       ApplyMsPosition            00000001800010d0 f   ColumnFunctions.obj
 0001:00000110       InvalidateMsPositionColumns 0000000180001110 f   ColumnFunctions.obj
 0001:00000140       InvalidateMsPositionTotals 0000000180001140 f   ColumnFunctions.obj
 0001:000001a0       UpdateMsPositionValues     00000001800011a0 f   ColumnFunctions.obj
 0001:000001e0       AdjustMsPositionTotals     00000001800011e0 f   ColumnFunctions.obj
 0001:00000230       CreateMsTotalRowValue      0000000180001230 f   ColumnFunctions.obj
 0001:00000320       GetMsCellColor             0000000180001320 f   ColumnFunctions.obj
 0001:00000320       GetActCellColor            0000000180001320 f   ColumnFunctions.obj
 0001:00000320       GetOrdCellColor            0000000180001320 f   ColumnFunctions.obj
 0001:00000330       ?AssertValid@CObject@@UEBAXXZ 0000000180001330 f   TakionAdditionalColumns.obj
 0001:00000330       ExtensionTerminate         0000000180001330 f   TakionAdditionalColumns.obj
 0001:00000330       ?__empty_global_delete@@YAXPEAX_K@Z 0000000180001330 f   ColumnFunctions.obj
 0001:00000330       AdditionalMsLockWait       0000000180001330 f   ColumnFunctions.obj
 0001:00000330       ?__global_delete@@YAXPEAX_K@Z 0000000180001330 f   * CIL library *:* CIL module *
 0001:00000330       ?Serialize@CObject@@UEAAXAEAVCArchive@@@Z 0000000180001330 f   TakionAdditionalColumns.obj
 0001:00000330       _guard_check_icall_nop     0000000180001330 f   msvcrt:guard_support.obj
 0001:00000330       ?Dump@CObject@@UEBAXAEAVCDumpContext@@@Z 0000000180001330 f   TakionAdditionalColumns.obj
 0001:00000330       AdditionalMsUnlock         0000000180001330 f   ColumnFunctions.obj
 0001:00000340       CreateMsRowValue           0000000180001340 f   ColumnFunctions.obj
 0001:00000860       GetMsColumnInfo            0000000180001860 f   ColumnFunctions.obj
 0001:000009e0       GetPosAdditionalColumnCount 00000001800019e0 f   ColumnFunctions.obj
 0001:000009f0       PosUpdateNonCumulativeRowValue 00000001800019f0 f   ColumnFunctions.obj
 0001:00000b50       PosRemoveNonCumulativeRowValue 0000000180001b50 f   ColumnFunctions.obj
 0001:00000b50       PosAddNonCumulativeRowValue 0000000180001b50 f   ColumnFunctions.obj
 0001:00000b60       CreatePosTotalRowValue     0000000180001b60 f   ColumnFunctions.obj
 0001:00000bf0       GetPosCellColor            0000000180001bf0 f   ColumnFunctions.obj
 0001:00000d40       CreatePosRowValue          0000000180001d40 f   ColumnFunctions.obj
 0001:000014f0       GetPosColumnInfo           00000001800024f0 f   ColumnFunctions.obj
 0001:00001720       GetActAdditionalColumnCount 0000000180002720 f   ColumnFunctions.obj
 0001:00001730       ActUpdateNonCumulativeRowValue 0000000180002730 f   ColumnFunctions.obj
 0001:00001890       ActRemoveNonCumulativeRowValue 0000000180002890 f   ColumnFunctions.obj
 0001:00001890       ActAddNonCumulativeRowValue 0000000180002890 f   ColumnFunctions.obj
 0001:000018a0       CreateActTotalRowValue     00000001800028a0 f   ColumnFunctions.obj
 0001:00001930       CreateActRowValue          0000000180002930 f   ColumnFunctions.obj
 0001:00001b40       GetActColumnInfo           0000000180002b40 f   ColumnFunctions.obj
 0001:00001c00       ?GetApplicationRecoveryParameter@CWinApp@@UEAAPEAXXZ 0000000180002c00 f   TakionAdditionalColumns.obj
 0001:00001c00       GetOrdAdditionalColumnCount 0000000180002c00 f   ColumnFunctions.obj
 0001:00001c00       ?GetApplicationRestartFlags@CWinApp@@UEAAKXZ 0000000180002c00 f   TakionAdditionalColumns.obj
 0001:00001c00       ?_AfxInitManaged@@YAHXZ    0000000180002c00 f   stdafx.obj
 0001:00001c00       _is_c_termination_complete 0000000180002c00 f   msvcrt:ucrt_stubs.obj
 0001:00001c00       __scrt_stub_for_is_c_termination_complete 0000000180002c00 f   msvcrt:ucrt_stubs.obj
 0001:00001c10       CreateOrdTotalRowValue     0000000180002c10 f   ColumnFunctions.obj
 0001:00001c20       CreateOrdRowValue          0000000180002c20 f   ColumnFunctions.obj
 0001:00001c30       GetOrdColumnInfo           0000000180002c30 f   ColumnFunctions.obj
 0001:00001c64       ??_9Security@@$BA@AA       0000000180002c64 f i ColumnFunctions.obj
 0001:00001c6c       ??_9Security@@$BBAI@AA     0000000180002c6c f i ColumnFunctions.obj
 0001:00001c78       ??_9Security@@$BBAA@AA     0000000180002c78 f i ColumnFunctions.obj
 0001:00001c90       ??_GSecurityIntRowValueDiff@@UEAAPEAXI@Z 0000000180002c90 f i ColumnFunctions.obj
 0001:00001c90       ??_ESecurityIntRowValueDiff@@UEAAPEAXI@Z 0000000180002c90 f i * CIL library *:* CIL module *
 0001:00001cd0       ??_GSecurityPriceRowValueDiffAbs@@UEAAPEAXI@Z 0000000180002cd0 f i ColumnFunctions.obj
 0001:00001cd0       ??_ESecurityPriceRowValueDiffAbs@@UEAAPEAXI@Z 0000000180002cd0 f i * CIL library *:* CIL module *
 0001:00001d10       ??_GSecurityUIntByIntDivisionFraction@@UEAAPEAXI@Z 0000000180002d10 f i ColumnFunctions.obj
 0001:00001d10       ??_ESecurityUIntByIntDivisionFraction@@UEAAPEAXI@Z 0000000180002d10 f i * CIL library *:* CIL module *
 0001:00001d50       ??_ESecurityIntByIntDivisionFraction@@UEAAPEAXI@Z 0000000180002d50 f i * CIL library *:* CIL module *
 0001:00001d50       ??_GSecurityIntByIntDivisionFraction@@UEAAPEAXI@Z 0000000180002d50 f i ColumnFunctions.obj
 0001:00001d90       ??_GSecurityPriceXIntAbs@@UEAAPEAXI@Z 0000000180002d90 f i ColumnFunctions.obj
 0001:00001d90       ??_ESecurityPriceXIntAbs@@UEAAPEAXI@Z 0000000180002d90 f i * CIL library *:* CIL module *
 0001:00001dd0       ??_EPositionMoneyPerShareInventoryRowValue@@UEAAPEAXI@Z 0000000180002dd0 f i * CIL library *:* CIL module *
 0001:00001dd0       ??_GPositionMoneyPerShareInventoryRowValue@@UEAAPEAXI@Z 0000000180002dd0 f i ColumnFunctions.obj
 0001:00001e10       ??_GPositionSecurityUCharAsCharOrdinalRowValue@@UEAAPEAXI@Z 0000000180002e10 f i ColumnFunctions.obj
 0001:00001e10       ??_EPositionSecurityUCharAsCharOrdinalRowValue@@UEAAPEAXI@Z 0000000180002e10 f i * CIL library *:* CIL module *
 0001:00001e50       ??_GPositionSecurityIntByIntDivision@@UEAAPEAXI@Z 0000000180002e50 f i ColumnFunctions.obj
 0001:00001e50       ??_EPositionSecurityIntByIntDivision@@UEAAPEAXI@Z 0000000180002e50 f i * CIL library *:* CIL module *
 0001:00001e90       ??_GPositionSecurityPriceRowValue@@UEAAPEAXI@Z 0000000180002e90 f i ColumnFunctions.obj
 0001:00001e90       ??_EPositionSecurityPriceRowValue@@UEAAPEAXI@Z 0000000180002e90 f i * CIL library *:* CIL module *
 0001:00001ed0       ??_EPositionSecurityUIntRowValue@@UEAAPEAXI@Z 0000000180002ed0 f i * CIL library *:* CIL module *
 0001:00001ed0       ??_GPositionSecurityUIntRowValue@@UEAAPEAXI@Z 0000000180002ed0 f i ColumnFunctions.obj
 0001:00001f10       ??_EPositionUIntRowValueNull@@UEAAPEAXI@Z 0000000180002f10 f i * CIL library *:* CIL module *
 0001:00001f10       ??_GPositionUIntRowValueNull@@UEAAPEAXI@Z 0000000180002f10 f i ColumnFunctions.obj
 0001:00001f50       ??_GPositionSecurityUIntDevidedByUIntAlternateInventoryRowValue@@UEAAPEAXI@Z 0000000180002f50 f i ColumnFunctions.obj
 0001:00001f50       ??_EPositionSecurityUIntDevidedByUIntAlternateInventoryRowValue@@UEAAPEAXI@Z 0000000180002f50 f i * CIL library *:* CIL module *
 0001:00001f90       ??_GPositionSecurityUIntDevidedByUIntInventoryRowValue@@UEAAPEAXI@Z 0000000180002f90 f i ColumnFunctions.obj
 0001:00001f90       ??_EPositionSecurityUIntDevidedByUIntInventoryRowValue@@UEAAPEAXI@Z 0000000180002f90 f i * CIL library *:* CIL module *
 0001:00001fd0       ??_EAccountMoneyPerShareInventoryRowValue@@UEAAPEAXI@Z 0000000180002fd0 f i * CIL library *:* CIL module *
 0001:00001fd0       ??_GAccountMoneyPerShareInventoryRowValue@@UEAAPEAXI@Z 0000000180002fd0 f i ColumnFunctions.obj
 0001:00002010       ??_EUIntRowValue@@UEAAPEAXI@Z 0000000180003010 f i * CIL library *:* CIL module *
 0001:00002010       ??_GUIntRowValue@@UEAAPEAXI@Z 0000000180003010 f i ColumnFunctions.obj
 0001:00002050       ??_GMoneyRowValue@@UEAAPEAXI@Z 0000000180003050 f i ColumnFunctions.obj
 0001:00002050       ??_EMoneyRowValue@@UEAAPEAXI@Z 0000000180003050 f i * CIL library *:* CIL module *
 0001:00002090       GetExtensionVersion        0000000180003090 f   TakionAdditionalColumns.obj
 0001:000020a0       GetUtilsVersion            00000001800030a0 f   TakionAdditionalColumns.obj
 0001:000020b0       GetUtilsHeaderVersion      00000001800030b0 f   TakionAdditionalColumns.obj
 0001:000020c0       GetTakionUtilsVersion      00000001800030c0 f   TakionAdditionalColumns.obj
 0001:000020d0       GetTakionUtilsHeaderVersion 00000001800030d0 f   TakionAdditionalColumns.obj
 0001:000020d0       GetTakionGuiHeaderVersion  00000001800030d0 f   TakionAdditionalColumns.obj
 0001:000020d0       GetTakionDataHeaderVersion 00000001800030d0 f   TakionAdditionalColumns.obj
 0001:000020e0       GetTakionGuiVersion        00000001800030e0 f   TakionAdditionalColumns.obj
 0001:000020f0       GetTakionDataVersion       00000001800030f0 f   TakionAdditionalColumns.obj
 0001:00002100       GetTakionLogVersion        0000000180003100 f   TakionAdditionalColumns.obj
 0001:00002110       GetTakionLogHeaderVersion  0000000180003110 f   TakionAdditionalColumns.obj
 0001:00002120       GetObserverVersion         0000000180003120 f   TakionAdditionalColumns.obj
 0001:00002130       GetObserverHeaderVersion   0000000180003130 f   TakionAdditionalColumns.obj
 0001:00002140       GetTakionExtensionDescription 0000000180003140 f   TakionAdditionalColumns.obj
 0001:00002160       GetTakionExtensionProductName 0000000180003160 f   TakionAdditionalColumns.obj
 0001:00002170       ExtensionInitialize        0000000180003170 f   TakionAdditionalColumns.obj
 0001:00002190       ??0TakionAdditionalColumns@@QEAA@XZ 0000000180003190 f   TakionAdditionalColumns.obj
 0001:00002230       ??_ETakionAdditionalColumns@@UEAAPEAXI@Z 0000000180003230 f i * CIL library *:* CIL module *
 0001:00002230       ??_GTakionAdditionalColumns@@UEAAPEAXI@Z 0000000180003230 f i TakionAdditionalColumns.obj
 0001:000022c0       ?InitInstance@TakionAdditionalColumns@@UEAAHXZ 00000001800032c0 f   TakionAdditionalColumns.obj
 0001:00002320       ?ExitInstance@TakionAdditionalColumns@@UEAAHXZ 0000000180003320 f   TakionAdditionalColumns.obj
 0001:00002330       ?GetApplicationRecoveryPingInterval@CWinApp@@UEAAKXZ 0000000180003330 f i TakionAdditionalColumns.obj
 0001:00002340       ?RestoreAutosavedFilesAtRestart@CWinApp@@UEBAHXZ 0000000180003340 f i TakionAdditionalColumns.obj
 0001:00002350       ?ReopenPreviousFilesAtRestart@CWinApp@@UEBAHXZ 0000000180003350 f i TakionAdditionalColumns.obj
 0001:00002360       ?SupportsAutosaveAtInterval@CWinApp@@UEBAHXZ 0000000180003360 f i TakionAdditionalColumns.obj
 0001:00002370       ?SupportsAutosaveAtRestart@CWinApp@@UEBAHXZ 0000000180003370 f i TakionAdditionalColumns.obj
 0001:00002380       ?SupportsApplicationRecovery@CWinApp@@UEBAHXZ 0000000180003380 f i TakionAdditionalColumns.obj
 0001:00002390       ?SupportsRestartManager@CWinApp@@UEBAHXZ 0000000180003390 f i TakionAdditionalColumns.obj
 0001:000023a0       ??3CObject@@SAXPEAX@Z      00000001800033a0 f i TakionAdditionalColumns.obj
 0001:000023b0       ??1?$basic_string@DU?$char_traits@D@std@@V?$allocator@D@2@@std@@QEAA@XZ 00000001800033b0 f i TakionAdditionalColumns.obj
 0001:00002440       ?_AtlInitializeCriticalSectionEx@ATL@@YAHPEAU_RTL_CRITICAL_SECTION@@KK@Z 0000000180003440 f i stdafx.obj
 0001:00002448       ?SetPosition@RowValue@@UEAAXPEBVPositionData@@@Z 0000000180003448 f   TakionGui:TakionGui.dll
 0001:0000244e       ?SetValue@?$TypedNumericRowValue@VMoney@@@@UEAA_NAEBVMoney@@@Z 000000018000344e f   TakionGui:TakionGui.dll
 0001:00002454       ?CompareToZero@?$TypedNumericRowValue@VMoney@@@@UEBAFAEBVMoney@@@Z 0000000180003454 f   TakionGui:TakionGui.dll
 0001:0000245a       ?CalculateTick@?$TypedNumericRowValue@VMoney@@@@MEAAXAEBVMoney@@AEAV2@@Z 000000018000345a f   TakionGui:TakionGui.dll
 0001:00002460       ?CanBeNegative@RowValue@@UEBA_NXZ 0000000180003460 f   TakionGui:TakionGui.dll
 0001:00002466       ?CompareValueToZero@?$TypedNumericRowValue@VMoney@@@@UEBAFXZ 0000000180003466 f   TakionGui:TakionGui.dll
 0001:0000246c       ?isValueZero@?$TypedNumericRowValue@VMoney@@@@UEBA_NXZ 000000018000346c f   TakionGui:TakionGui.dll
 0001:00002472       ?isObjectValueZero@?$TypedNumericRowValue@VMoney@@@@UEBA_NXZ 0000000180003472 f   TakionGui:TakionGui.dll
 0001:00002478       ?GetObjectValue@?$TypedRowValue@VMoney@@@@UEBAAEBVMoney@@XZ 0000000180003478 f   TakionGui:TakionGui.dll
 0001:0000247e       ?UpdateValue@?$TypedRowValue@VMoney@@@@UEAA_NXZ 000000018000347e f   TakionGui:TakionGui.dll
 0001:00002484       ?InitValue@?$TypedRowValue@VMoney@@@@UEAAXXZ 0000000180003484 f   TakionGui:TakionGui.dll
 0001:0000248a       ?InitializeValue@?$TypedRowValue@VMoney@@@@MEAAXXZ 000000018000348a f   TakionGui:TakionGui.dll
 0001:00002490       ?isValueChanged@?$TypedRowValue@VMoney@@@@UEBA_NXZ 0000000180003490 f   TakionGui:TakionGui.dll
 0001:00002496       ?toString@MoneyRowValue@@UEBAXAEAV?$basic_string@DU?$char_traits@D@std@@V?$allocator@D@2@@std@@@Z 0000000180003496 f   TakionGui:TakionGui.dll
 0001:0000249c       ?isValueEmpty@?$TypedRowValue@VMoney@@@@UEBA_NXZ 000000018000349c f   TakionGui:TakionGui.dll
 0001:000024a2       ?Compare@?$TypedRowValue@VMoney@@@@UEBAFAEBVRowValue@@@Z 00000001800034a2 f   TakionGui:TakionGui.dll
 0001:000024a8       ?CompareValue@?$TypedRowValue@VMoney@@@@UEBAFAEBVMoney@@@Z 00000001800034a8 f   TakionGui:TakionGui.dll
 0001:000024ae       ?CompareAhead@?$TypedRowValue@VMoney@@@@UEBAFAEBVRowValue@@@Z 00000001800034ae f   TakionGui:TakionGui.dll
 0001:000024b4       ?isObjectValueEmpty@?$TypedRowValue@VMoney@@@@UEBA_NXZ 00000001800034b4 f   TakionGui:TakionGui.dll
 0001:000024ba       ?NullifyTick@?$TypedNumericRowValue@VMoney@@@@UEAAXXZ 00000001800034ba f   TakionGui:TakionGui.dll
 0001:000024c0       ?NullifyLastDiff@?$TypedNumericRowValue@VMoney@@@@UEBAXXZ 00000001800034c0 f   TakionGui:TakionGui.dll
 0001:000024c6       ?Add@?$TypedNumericRowValue@VMoney@@@@UEAA_NAEBVRowValue@@@Z 00000001800034c6 f   TakionGui:TakionGui.dll
 0001:000024cc       ?Subtract@?$TypedNumericRowValue@VMoney@@@@UEAA_NAEBVRowValue@@@Z 00000001800034cc f   TakionGui:TakionGui.dll
 0001:000024d2       ?Adjust@?$TypedNumericRowValue@VMoney@@@@UEAA_NAEBVRowValue@@@Z 00000001800034d2 f   TakionGui:TakionGui.dll
 0001:000024d8       ?Reset@?$TypedNumericRowValue@VMoney@@@@UEAAXXZ 00000001800034d8 f   TakionGui:TakionGui.dll
 0001:000024de       ?GetCount@RowValue@@UEBAIXZ 00000001800034de f   TakionGui:TakionGui.dll
 0001:000024e4       ?GetTickMillisecond@?$TypedNumericRowValue@VMoney@@@@UEBAIXZ 00000001800034e4 f   TakionGui:TakionGui.dll
 0001:000024ea       ?GetStringValue@RowValue@@UEBAPEBDXZ 00000001800034ea f   TakionGui:TakionGui.dll
 0001:000024f0       ?GetUIntValue@RowValue@@UEBAIXZ 00000001800034f0 f   TakionGui:TakionGui.dll
 0001:000024f6       ?GetUInt64Value@RowValue@@UEBA_KXZ 00000001800034f6 f   TakionGui:TakionGui.dll
 0001:000024fc       ?GetIntValue@RowValue@@UEBAHXZ 00000001800034fc f   TakionGui:TakionGui.dll
 0001:00002502       ?GetPriceValue@RowValue@@UEBA?AVPrice@@XZ 0000000180003502 f   TakionGui:TakionGui.dll
 0001:00002508       ?GetSignedPriceValue@RowValue@@UEBA?AVSignedPrice@@XZ 0000000180003508 f   TakionGui:TakionGui.dll
 0001:0000250e       ?SetSecurity@RowValue@@UEAAXPEBVSecurity@@@Z 000000018000350e f   TakionGui:TakionGui.dll
 0001:00002514       ?isComma@?$CommaRowValue@VMoney@@@@UEBAPEB_NXZ 0000000180003514 f   TakionGui:TakionGui.dll
 0001:0000251a       ?SetComma@?$CommaRowValue@VMoney@@@@UEAAXPEB_N@Z 000000018000351a f   TakionGui:TakionGui.dll
 0001:00002520       ?GetDecDigits@?$DecRowValue@VMoney@@@@UEBAPEBEXZ 0000000180003520 f   TakionGui:TakionGui.dll
 0001:00002526       ?SetDecDigits@?$DecRowValue@VMoney@@@@UEAAXPEBE@Z 0000000180003526 f   TakionGui:TakionGui.dll
 0001:0000252c       ?isTruncate@?$DecRowValue@VMoney@@@@UEBAPEB_NXZ 000000018000352c f   TakionGui:TakionGui.dll
 0001:00002532       ?SetTruncate@?$DecRowValue@VMoney@@@@UEAAXPEB_N@Z 0000000180003532 f   TakionGui:TakionGui.dll
 0001:00002538       ?GetLastIntDiff@RowValue@@UEBAHXZ 0000000180003538 f   TakionGui:TakionGui.dll
 0001:0000253e       ?GetNonZeroCount@RowValue@@UEBAIXZ 000000018000353e f   TakionGui:TakionGui.dll
 0001:00002544       ?GetObjectValueCopy@?$TypedRowValue@VMoney@@@@UEBA?AVMoney@@XZ 0000000180003544 f   TakionGui:TakionGui.dll
 0001:0000254a       ?CanBeNegative@?$TypedUnsignedRowValue@I@@UEBA_NXZ 000000018000354a f   TakionGui:TakionGui.dll
 0001:00002550       ?CompareValueToZero@?$TypedUnsignedRowValue@I@@UEBAFXZ 0000000180003550 f   TakionGui:TakionGui.dll
 0001:00002556       ?isValueZero@?$TypedNumericRowValue@I@@UEBA_NXZ 0000000180003556 f   TakionGui:TakionGui.dll
 0001:0000255c       ?isObjectValueZero@?$TypedNumericRowValue@I@@UEBA_NXZ 000000018000355c f   TakionGui:TakionGui.dll
 0001:00002562       ?GetObjectValue@?$TypedRowValue@I@@UEBAAEBIXZ 0000000180003562 f   TakionGui:TakionGui.dll
 0001:00002568       ?UpdateValue@?$TypedRowValue@I@@UEAA_NXZ 0000000180003568 f   TakionGui:TakionGui.dll
 0001:0000256e       ?InitValue@?$TypedRowValue@I@@UEAAXXZ 000000018000356e f   TakionGui:TakionGui.dll
 0001:00002574       ?InitializeValue@?$TypedRowValue@I@@MEAAXXZ 0000000180003574 f   TakionGui:TakionGui.dll
 0001:0000257a       ?isValueChanged@?$TypedRowValue@I@@UEBA_NXZ 000000018000357a f   TakionGui:TakionGui.dll
 0001:00002580       ?toString@?$CommaUnsignedNumberRowValue@I@@UEBAXAEAV?$basic_string@DU?$char_traits@D@std@@V?$allocator@D@2@@std@@@Z 0000000180003580 f   TakionGui:TakionGui.dll
 0001:00002586       ?isValueEmpty@?$TypedRowValue@I@@UEBA_NXZ 0000000180003586 f   TakionGui:TakionGui.dll
 0001:0000258c       ?Compare@?$TypedRowValue@I@@UEBAFAEBVRowValue@@@Z 000000018000358c f   TakionGui:TakionGui.dll
 0001:00002592       ?CompareValue@?$TypedRowValue@I@@UEBAFAEBI@Z 0000000180003592 f   TakionGui:TakionGui.dll
 0001:00002598       ?CompareAhead@?$TypedRowValue@I@@UEBAFAEBVRowValue@@@Z 0000000180003598 f   TakionGui:TakionGui.dll
 0001:0000259e       ?isObjectValueEmpty@?$TypedRowValue@I@@UEBA_NXZ 000000018000359e f   TakionGui:TakionGui.dll
 0001:000025a4       ?NullifyTick@?$TypedNumericRowValue@I@@UEAAXXZ 00000001800035a4 f   TakionGui:TakionGui.dll
 0001:000025aa       ?NullifyLastDiff@?$TypedNumericRowValue@I@@UEBAXXZ 00000001800035aa f   TakionGui:TakionGui.dll
 0001:000025b0       ?Add@?$TypedNumericRowValue@I@@UEAA_NAEBVRowValue@@@Z 00000001800035b0 f   TakionGui:TakionGui.dll
 0001:000025b6       ?SetValue@?$TypedNumericRowValue@I@@UEAA_NAEBI@Z 00000001800035b6 f   TakionGui:TakionGui.dll
 0001:000025bc       ?CompareToZero@?$TypedNumericRowValue@I@@UEBAFAEBH@Z 00000001800035bc f   TakionGui:TakionGui.dll
 0001:000025c2       ?Subtract@?$TypedNumericRowValue@I@@UEAA_NAEBVRowValue@@@Z 00000001800035c2 f   TakionGui:TakionGui.dll
 0001:000025c8       ?Adjust@?$TypedUnsignedRowValue@I@@UEAA_NAEBVRowValue@@@Z 00000001800035c8 f   TakionGui:TakionGui.dll
 0001:000025ce       ?Reset@?$TypedNumericRowValue@I@@UEAAXXZ 00000001800035ce f   TakionGui:TakionGui.dll
 0001:000025d4       ?GetTickMillisecond@?$TypedNumericRowValue@I@@UEBAIXZ 00000001800035d4 f   TakionGui:TakionGui.dll
 0001:000025da       ?GetUIntValue@UIntRowValue@@UEBAIXZ 00000001800035da f   TakionGui:TakionGui.dll
 0001:000025e0       ?isComma@?$CommaUnsignedRowValue@I@@UEBAPEB_NXZ 00000001800035e0 f   TakionGui:TakionGui.dll
 0001:000025e6       ?SetComma@?$CommaUnsignedRowValue@I@@UEAAXPEB_N@Z 00000001800035e6 f   TakionGui:TakionGui.dll
 0001:000025ec       ?GetDecDigits@RowValue@@UEBAPEBEXZ 00000001800035ec f   TakionGui:TakionGui.dll
 0001:000025f2       ?SetDecDigits@RowValue@@UEAAXPEBE@Z 00000001800035f2 f   TakionGui:TakionGui.dll
 0001:000025f8       ?isTruncate@RowValue@@UEBAPEB_NXZ 00000001800035f8 f   TakionGui:TakionGui.dll
 0001:000025fe       ?SetTruncate@RowValue@@UEAAXPEB_N@Z 00000001800035fe f   TakionGui:TakionGui.dll
 0001:00002604       ?GetObjectValueCopy@?$TypedRowValue@I@@UEBAIXZ 0000000180003604 f   TakionGui:TakionGui.dll
 0001:0000260a       ?CalculateTick@?$TypedUnsignedRowValue@I@@MEAAXAEBIAEAH@Z 000000018000360a f   TakionGui:TakionGui.dll
 0001:00002610       ?isObjectValueZero@AccountMoneyPerShareInventoryRowValue@@UEBA_NXZ 0000000180003610 f   TakionGui:TakionGui.dll
 0001:00002616       ?UpdateValue@AccountMoneyPerShareInventoryRowValue@@UEAA_NXZ 0000000180003616 f   TakionGui:TakionGui.dll
 0001:0000261c       ?isValueChanged@AccountMoneyPerShareInventoryRowValue@@UEBA_NXZ 000000018000361c f   TakionGui:TakionGui.dll
 0001:00002622       ?CompareAhead@AccountMoneyPerShareInventoryRowValue@@UEBAFAEBVRowValue@@@Z 0000000180003622 f   TakionGui:TakionGui.dll
 0001:00002628       ?InitializeValue@AccountMoneyPerShareInventoryRowValue@@MEAAXXZ 0000000180003628 f   TakionGui:TakionGui.dll
 0001:0000262e       ?CanBeNegative@?$MonetaryUnsignedRowValue@VPrice@@@@MEBA_NXZ 000000018000362e f   TakionGui:TakionGui.dll
 0001:00002634       ?CompareValueToZero@?$TypedUnsignedRowValue@VPrice@@@@UEBAFXZ 0000000180003634 f   TakionGui:TakionGui.dll
 0001:0000263a       ?isValueZero@PositionSecurityUIntDevidedByUIntInventoryRowValue@@UEBA_NXZ 000000018000363a f   TakionGui:TakionGui.dll
 0001:00002640       ?isObjectValueZero@PositionSecurityUIntDevidedByUIntInventoryRowValue@@UEBA_NXZ 0000000180003640 f   TakionGui:TakionGui.dll
 0001:00002646       ?GetSecurityObjectValue@PositionSecurityUIntDevidedByUIntInventoryRowValue@@UEBAAEBIXZ 0000000180003646 f   TakionGui:TakionGui.dll
 0001:0000264c       ?UpdateValue@PositionSecurityUIntDevidedByUIntInventoryRowValue@@UEAA_NXZ 000000018000364c f   TakionGui:TakionGui.dll
 0001:00002652       ?SetValue@?$TypedNumericRowValue@VPrice@@@@UEAA_NAEBVPrice@@@Z 0000000180003652 f   TakionGui:TakionGui.dll
 0001:00002658       ?CompareToZero@?$TypedNumericRowValue@VPrice@@@@UEBAFAEBVSignedPrice@@@Z 0000000180003658 f   TakionGui:TakionGui.dll
 0001:0000265e       ?InitValue@?$TypedRowValue@VPrice@@@@UEAAXXZ 000000018000365e f   TakionGui:TakionGui.dll
 0001:00002664       ?InitializeValue@?$TypedRowValue@VPrice@@@@MEAAXXZ 0000000180003664 f   TakionGui:TakionGui.dll
 0001:0000266a       ?GetObjectValue@?$TypedRowValue@VPrice@@@@UEBAAEBVPrice@@XZ 000000018000366a f   TakionGui:TakionGui.dll
 0001:00002670       ?isValueChanged@PositionSecurityUIntDevidedByUIntInventoryRowValue@@UEBA_NXZ 0000000180003670 f   TakionGui:TakionGui.dll
 0001:00002676       ?toString@PriceRowValue@@UEBAXAEAV?$basic_string@DU?$char_traits@D@std@@V?$allocator@D@2@@std@@@Z 0000000180003676 f   TakionGui:TakionGui.dll
 0001:0000267c       ?isValueEmpty@?$TypedRowValue@VPrice@@@@UEBA_NXZ 000000018000367c f   TakionGui:TakionGui.dll
 0001:00002682       ?Compare@?$TypedRowValue@VPrice@@@@UEBAFAEBVRowValue@@@Z 0000000180003682 f   TakionGui:TakionGui.dll
 0001:00002688       ?CompareValue@?$TypedRowValue@VPrice@@@@UEBAFAEBVPrice@@@Z 0000000180003688 f   TakionGui:TakionGui.dll
 0001:0000268e       ?CompareAhead@PositionSecurityUIntDevidedByUIntInventoryRowValue@@UEBAFAEBVRowValue@@@Z 000000018000368e f   TakionGui:TakionGui.dll
 0001:00002694       ?isObjectValueEmpty@?$TypedRowValue@VPrice@@@@UEBA_NXZ 0000000180003694 f   TakionGui:TakionGui.dll
 0001:0000269a       ?NullifyTick@?$TypedNumericRowValue@VPrice@@@@UEAAXXZ 000000018000369a f   TakionGui:TakionGui.dll
 0001:000026a0       ?NullifyLastDiff@?$TypedNumericRowValue@VPrice@@@@UEBAXXZ 00000001800036a0 f   TakionGui:TakionGui.dll
 0001:000026a6       ?Add@?$TypedNumericRowValue@VPrice@@@@UEAA_NAEBVRowValue@@@Z 00000001800036a6 f   TakionGui:TakionGui.dll
 0001:000026ac       ?Subtract@?$TypedNumericRowValue@VPrice@@@@UEAA_NAEBVRowValue@@@Z 00000001800036ac f   TakionGui:TakionGui.dll
 0001:000026b2       ?Adjust@?$TypedUnsignedRowValue@VPrice@@@@UEAA_NAEBVRowValue@@@Z 00000001800036b2 f   TakionGui:TakionGui.dll
 0001:000026b8       ?Reset@?$TypedNumericRowValue@VPrice@@@@UEAAXXZ 00000001800036b8 f   TakionGui:TakionGui.dll
 0001:000026be       ?GetTickMillisecond@?$TypedNumericRowValue@VPrice@@@@UEBAIXZ 00000001800036be f   TakionGui:TakionGui.dll
 0001:000026c4       ?GetPriceValue@PriceRowValue@@UEBA?AVPrice@@XZ 00000001800036c4 f   TakionGui:TakionGui.dll
 0001:000026ca       ?SetPosition@PositionSecurityUIntDevidedByUIntInventoryRowValue@@UEAAXPEBVPositionData@@@Z 00000001800036ca f   TakionGui:TakionGui.dll
 0001:000026d0       ?isComma@?$CommaUnsignedRowValue@VPrice@@@@UEBAPEB_NXZ 00000001800036d0 f   TakionGui:TakionGui.dll
 0001:000026d6       ?SetComma@?$CommaUnsignedRowValue@VPrice@@@@UEAAXPEB_N@Z 00000001800036d6 f   TakionGui:TakionGui.dll
 0001:000026dc       ?GetDecDigits@?$DecUnsignedRowValue@VPrice@@@@UEBAPEBEXZ 00000001800036dc f   TakionGui:TakionGui.dll
 0001:000026e2       ?SetDecDigits@?$DecUnsignedRowValue@VPrice@@@@UEAAXPEBE@Z 00000001800036e2 f   TakionGui:TakionGui.dll
 0001:000026e8       ?isTruncate@?$DecUnsignedRowValue@VPrice@@@@UEBAPEB_NXZ 00000001800036e8 f   TakionGui:TakionGui.dll
 0001:000026ee       ?SetTruncate@?$DecUnsignedRowValue@VPrice@@@@UEAAXPEB_N@Z 00000001800036ee f   TakionGui:TakionGui.dll
 0001:000026f4       ?GetObjectValueCopy@?$TypedRowValue@VPrice@@@@UEBA?AVPrice@@XZ 00000001800036f4 f   TakionGui:TakionGui.dll
 0001:000026fa       ?InitializeValue@PositionSecurityUIntDevidedByUIntInventoryRowValue@@MEAAXXZ 00000001800036fa f   TakionGui:TakionGui.dll
 0001:00002700       ?CalculateTick@?$TypedUnsignedRowValue@VPrice@@@@MEAAXAEBVPrice@@AEAVSignedPrice@@@Z 0000000180003700 f   TakionGui:TakionGui.dll
 0001:00002706       ?GetSecurityObjectValue@PositionSecurityUIntDevidedByUIntAlternateInventoryRowValue@@UEBAAEBIXZ 0000000180003706 f   TakionGui:TakionGui.dll
 0001:0000270c       ?isValueChanged@PositionUIntRowValueNull@@UEBA_NXZ 000000018000370c f   TakionGui:TakionGui.dll
 0001:00002712       ?isValueEmpty@PositionUIntRowValueNull@@UEBA_NXZ 0000000180003712 f   TakionGui:TakionGui.dll
 0001:00002718       ?isObjectValueEmpty@PositionUIntRowValueNull@@UEBA_NXZ 0000000180003718 f   TakionGui:TakionGui.dll
 0001:0000271e       ?SetPosition@PositionUIntRowValue@@UEAAXPEBVPositionData@@@Z 000000018000371e f   TakionGui:TakionGui.dll
 0001:00002724       ?GetObjectValue@PositionUIntRowValueNull@@UEBAAEBIXZ 0000000180003724 f   TakionGui:TakionGui.dll
 0001:0000272a       ?SetValue@PositionUIntRowValueNull@@UEAA_NAEBI@Z 000000018000372a f   TakionGui:TakionGui.dll
 0001:00002730       ?InitializeValue@PositionUIntRowValueNull@@MEAAXXZ 0000000180003730 f   TakionGui:TakionGui.dll
 0001:00002736       ?GetObjectValue@PositionSecurityUIntRowValue@@UEBAAEBIXZ 0000000180003736 f   TakionGui:TakionGui.dll
 0001:0000273c       ?isValueZero@?$TypedNumericRowValue@VPrice@@@@UEBA_NXZ 000000018000373c f   TakionGui:TakionGui.dll
 0001:00002742       ?isObjectValueZero@?$TypedNumericRowValue@VPrice@@@@UEBA_NXZ 0000000180003742 f   TakionGui:TakionGui.dll
 0001:00002748       ?UpdateValue@?$TypedRowValue@VPrice@@@@UEAA_NXZ 0000000180003748 f   TakionGui:TakionGui.dll
 0001:0000274e       ?isValueChanged@?$TypedRowValue@VPrice@@@@UEBA_NXZ 000000018000374e f   TakionGui:TakionGui.dll
 0001:00002754       ?CompareAhead@?$TypedRowValue@VPrice@@@@UEBAFAEBVRowValue@@@Z 0000000180003754 f   TakionGui:TakionGui.dll
 0001:0000275a       ?GetObjectValue@PositionSecurityPriceRowValue@@UEBAAEBVPrice@@XZ 000000018000375a f   TakionGui:TakionGui.dll
 0001:00002760       ?isValueZero@PositionSecurityIntByIntDivision@@UEBA_NXZ 0000000180003760 f   TakionGui:TakionGui.dll
 0001:00002766       ?isObjectValueZero@PositionSecurityIntByIntDivision@@UEBA_NXZ 0000000180003766 f   TakionGui:TakionGui.dll
 0001:0000276c       ?UpdateValue@PositionSecurityIntByIntDivision@@UEAA_NXZ 000000018000376c f   TakionGui:TakionGui.dll
 0001:00002772       ?isValueChanged@PositionSecurityIntByIntDivision@@UEBA_NXZ 0000000180003772 f   TakionGui:TakionGui.dll
 0001:00002778       ?CompareAhead@PositionSecurityIntByIntDivision@@UEBAFAEBVRowValue@@@Z 0000000180003778 f   TakionGui:TakionGui.dll
 0001:0000277e       ?InitializeValue@PositionSecurityIntByIntDivision@@MEAAXXZ 000000018000377e f   TakionGui:TakionGui.dll
 0001:00002784       ?CanBeNegative@?$TypedUnsignedRowValue@E@@UEBA_NXZ 0000000180003784 f   TakionGui:TakionGui.dll
 0001:0000278a       ?CompareValueToZero@?$TypedUnsignedRowValue@E@@UEBAFXZ 000000018000378a f   TakionGui:TakionGui.dll
 0001:00002790       ?isValueZero@?$TypedNumericRowValue@E@@UEBA_NXZ 0000000180003790 f   TakionGui:TakionGui.dll
 0001:00002796       ?isObjectValueZero@?$TypedNumericRowValue@E@@UEBA_NXZ 0000000180003796 f   TakionGui:TakionGui.dll
 0001:0000279c       ?UpdateValue@?$TypedRowValue@E@@UEAA_NXZ 000000018000379c f   TakionGui:TakionGui.dll
 0001:000027a2       ?InitValue@?$TypedRowValue@E@@UEAAXXZ 00000001800037a2 f   TakionGui:TakionGui.dll
 0001:000027a8       ?InitializeValue@?$TypedRowValue@E@@MEAAXXZ 00000001800037a8 f   TakionGui:TakionGui.dll
 0001:000027ae       ?isValueChanged@?$TypedRowValue@E@@UEBA_NXZ 00000001800037ae f   TakionGui:TakionGui.dll
 0001:000027b4       ?toString@UCharAsCharRowValue@@UEBAXAEAV?$basic_string@DU?$char_traits@D@std@@V?$allocator@D@2@@std@@@Z 00000001800037b4 f   TakionGui:TakionGui.dll
 0001:000027ba       ?isValueEmpty@?$TypedRowValue@E@@UEBA_NXZ 00000001800037ba f   TakionGui:TakionGui.dll
 0001:000027c0       ?Compare@?$TypedRowValue@E@@UEBAFAEBVRowValue@@@Z 00000001800037c0 f   TakionGui:TakionGui.dll
 0001:000027c6       ?CompareValue@?$TypedRowValue@E@@UEBAFAEBE@Z 00000001800037c6 f   TakionGui:TakionGui.dll
 0001:000027cc       ?CompareAhead@?$TypedRowValue@E@@UEBAFAEBVRowValue@@@Z 00000001800037cc f   TakionGui:TakionGui.dll
 0001:000027d2       ?isObjectValueEmpty@?$TypedRowValue@E@@UEBA_NXZ 00000001800037d2 f   TakionGui:TakionGui.dll
 0001:000027d8       ?NullifyTick@?$TypedNumericRowValue@E@@UEAAXXZ 00000001800037d8 f   TakionGui:TakionGui.dll
 0001:000027de       ?NullifyLastDiff@?$TypedNumericRowValue@E@@UEBAXXZ 00000001800037de f   TakionGui:TakionGui.dll
 0001:000027e4       ?Add@?$TypedNumericRowValue@E@@UEAA_NAEBVRowValue@@@Z 00000001800037e4 f   TakionGui:TakionGui.dll
 0001:000027ea       ?CompareToZero@?$TypedNumericRowValue@E@@UEBAFAEBC@Z 00000001800037ea f   TakionGui:TakionGui.dll
 0001:000027f0       ?Subtract@?$TypedNumericRowValue@E@@UEAA_NAEBVRowValue@@@Z 00000001800037f0 f   TakionGui:TakionGui.dll
 0001:000027f6       ?Adjust@?$TypedUnsignedRowValue@E@@UEAA_NAEBVRowValue@@@Z 00000001800037f6 f   TakionGui:TakionGui.dll
 0001:000027fc       ?Reset@?$TypedNumericRowValue@E@@UEAAXXZ 00000001800037fc f   TakionGui:TakionGui.dll
 0001:00002802       ?GetTickMillisecond@?$TypedNumericRowValue@E@@UEBAIXZ 0000000180003802 f   TakionGui:TakionGui.dll
 0001:00002808       ?isComma@RowValue@@UEBAPEB_NXZ 0000000180003808 f   TakionGui:TakionGui.dll
 0001:0000280e       ?SetComma@RowValue@@UEAAXPEB_N@Z 000000018000380e f   TakionGui:TakionGui.dll
 0001:00002814       ?GetObjectValue@PositionSecurityUCharAsCharOrdinalRowValue@@UEBAAEBEXZ 0000000180003814 f   TakionGui:TakionGui.dll
 0001:0000281a       ?GetObjectValueCopy@?$TypedRowValue@E@@UEBAEXZ 000000018000381a f   TakionGui:TakionGui.dll
 0001:00002820       ?SetValue@UCharAsCharRowValue@@UEAA_NAEBE@Z 0000000180003820 f   TakionGui:TakionGui.dll
 0001:00002826       ?CalculateTick@?$TypedUnsignedRowValue@E@@MEAAXAEBEAEAC@Z 0000000180003826 f   TakionGui:TakionGui.dll
 0001:0000282c       ?isObjectValueZero@PositionMoneyPerShareInventoryRowValue@@UEBA_NXZ 000000018000382c f   TakionGui:TakionGui.dll
 0001:00002832       ?UpdateValue@PositionMoneyPerShareInventoryRowValue@@UEAA_NXZ 0000000180003832 f   TakionGui:TakionGui.dll
 0001:00002838       ?isValueChanged@PositionMoneyPerShareInventoryRowValue@@UEBA_NXZ 0000000180003838 f   TakionGui:TakionGui.dll
 0001:0000283e       ?CompareAhead@PositionMoneyPerShareInventoryRowValue@@UEBAFAEBVRowValue@@@Z 000000018000383e f   TakionGui:TakionGui.dll
 0001:00002844       ?SetPosition@PositionMoneyInventoryVRowValue@@UEAAXPEBVPositionData@@@Z 0000000180003844 f   TakionGui:TakionGui.dll
 0001:0000284a       ?InitializeValue@PositionMoneyPerShareInventoryRowValue@@MEAAXXZ 000000018000384a f   TakionGui:TakionGui.dll
 0001:00002850       ?CanBeNegative@SecurityPriceXIntAbs@@UEBA_NXZ 0000000180003850 f   TakionGui:TakionGui.dll
 0001:00002856       ?isObjectValueZero@SecurityPriceXInt@@UEBA_NXZ 0000000180003856 f   TakionGui:TakionGui.dll
 0001:0000285c       ?UpdateValue@SecurityPriceXInt@@UEAA_NXZ 000000018000385c f   TakionGui:TakionGui.dll
 0001:00002862       ?isValueChanged@SecurityPriceXInt@@UEBA_NXZ 0000000180003862 f   TakionGui:TakionGui.dll
 0001:00002868       ?CompareAhead@SecurityPriceXInt@@UEBAFAEBVRowValue@@@Z 0000000180003868 f   TakionGui:TakionGui.dll
 0001:0000286e       ?SetSecurity@SecurityPriceXInt@@UEAAXPEBVSecurity@@@Z 000000018000386e f   TakionGui:TakionGui.dll
 0001:00002874       ?InitializeValue@SecurityPriceXInt@@MEAAXXZ 0000000180003874 f   TakionGui:TakionGui.dll
 0001:0000287a       ?CalculateNumber@SecurityPriceXIntAbs@@UEBAHAEBH@Z 000000018000387a f   TakionGui:TakionGui.dll
 0001:00002880       ?isValueZero@SecurityIntByIntDivision@@UEBA_NXZ 0000000180003880 f   TakionGui:TakionGui.dll
 0001:00002886       ?isObjectValueZero@SecurityIntByIntDivision@@UEBA_NXZ 0000000180003886 f   TakionGui:TakionGui.dll
 0001:0000288c       ?UpdateValue@SecurityIntByIntDivisionFraction@@UEAA_NXZ 000000018000388c f   TakionGui:TakionGui.dll
 0001:00002892       ?isValueChanged@SecurityIntByIntDivision@@UEBA_NXZ 0000000180003892 f   TakionGui:TakionGui.dll
 0001:00002898       ?CompareAhead@SecurityIntByIntDivisionFraction@@UEBAFAEBVRowValue@@@Z 0000000180003898 f   TakionGui:TakionGui.dll
 0001:0000289e       ?SetSecurity@SecurityIntByIntDivision@@UEAAXPEBVSecurity@@@Z 000000018000389e f   TakionGui:TakionGui.dll
 0001:000028a4       ?InitializeValue@SecurityIntByIntDivisionFraction@@MEAAXXZ 00000001800038a4 f   TakionGui:TakionGui.dll
 0001:000028aa       ?CanBeNegative@SecurityUIntByIntDivision@@UEBA_NXZ 00000001800038aa f   TakionGui:TakionGui.dll
 0001:000028b0       ?isValueZero@SecurityUIntByIntDivisionNegative@@UEBA_NXZ 00000001800038b0 f   TakionGui:TakionGui.dll
 0001:000028b6       ?isObjectValueZero@SecurityUIntByIntDivisionNegative@@UEBA_NXZ 00000001800038b6 f   TakionGui:TakionGui.dll
 0001:000028bc       ?UpdateValue@SecurityUIntByIntDivisionNegative@@UEAA_NXZ 00000001800038bc f   TakionGui:TakionGui.dll
 0001:000028c2       ?isValueChanged@SecurityUIntByIntDivisionNegative@@UEBA_NXZ 00000001800038c2 f   TakionGui:TakionGui.dll
 0001:000028c8       ?CompareAhead@SecurityUIntByIntDivisionNegative@@UEBAFAEBVRowValue@@@Z 00000001800038c8 f   TakionGui:TakionGui.dll
 0001:000028ce       ?SetSecurity@SecurityUIntByIntDivisionNegative@@UEAAXPEBVSecurity@@@Z 00000001800038ce f   TakionGui:TakionGui.dll
 0001:000028d4       ?InitializeValue@SecurityUIntByIntDivisionNegative@@MEAAXXZ 00000001800038d4 f   TakionGui:TakionGui.dll
 0001:000028da       ?CalculateValue@SecurityUIntByIntDivisionFraction@@UEBA?AVMoney@@XZ 00000001800038da f   TakionGui:TakionGui.dll
 0001:000028e0       ?DeriveValue@SecurityUIntByIntDivisionFraction@@UEBA?AVMoney@@XZ 00000001800038e0 f   TakionGui:TakionGui.dll
 0001:000028e6       ?CanBeNegative@SecurityPriceRowValueDiffAbs@@UEBA_NXZ 00000001800038e6 f   TakionGui:TakionGui.dll
 0001:000028ec       ?CompareValueToZero@?$TypedNumericRowValue@VSignedPrice@@@@UEBAFXZ 00000001800038ec f   TakionGui:TakionGui.dll
 0001:000028f2       ?isValueZero@SecurityPriceRowValueDiff@@UEBA_NXZ 00000001800038f2 f   TakionGui:TakionGui.dll
 0001:000028f8       ?isObjectValueZero@SecurityPriceRowValueDiff@@UEBA_NXZ 00000001800038f8 f   TakionGui:TakionGui.dll
 0001:000028fe       ?UpdateValue@SecurityPriceRowValueDiff@@UEAA_NXZ 00000001800038fe f   TakionGui:TakionGui.dll
 0001:00002904       ?SetValue@?$TypedNumericRowValue@VSignedPrice@@@@UEAA_NAEBVSignedPrice@@@Z 0000000180003904 f   TakionGui:TakionGui.dll
 0001:0000290a       ?CompareToZero@?$TypedNumericRowValue@VSignedPrice@@@@UEBAFAEBVSignedPrice@@@Z 000000018000390a f   TakionGui:TakionGui.dll
 0001:00002910       ?CalculateTick@?$TypedNumericRowValue@VSignedPrice@@@@MEAAXAEBVSignedPrice@@AEAV2@@Z 0000000180003910 f   TakionGui:TakionGui.dll
 0001:00002916       ?InitValue@?$TypedRowValue@VSignedPrice@@@@UEAAXXZ 0000000180003916 f   TakionGui:TakionGui.dll
 0001:0000291c       ?GetObjectValue@?$TypedRowValue@VSignedPrice@@@@UEBAAEBVSignedPrice@@XZ 000000018000391c f   TakionGui:TakionGui.dll
 0001:00002922       ?isValueChanged@SecurityPriceRowValueDiff@@UEBA_NXZ 0000000180003922 f   TakionGui:TakionGui.dll
 0001:00002928       ?toString@SignedPriceRowValue@@UEBAXAEAV?$basic_string@DU?$char_traits@D@std@@V?$allocator@D@2@@std@@@Z 0000000180003928 f   TakionGui:TakionGui.dll
 0001:0000292e       ?isValueEmpty@?$TypedRowValue@VSignedPrice@@@@UEBA_NXZ 000000018000392e f   TakionGui:TakionGui.dll
 0001:00002934       ?Compare@?$TypedRowValue@VSignedPrice@@@@UEBAFAEBVRowValue@@@Z 0000000180003934 f   TakionGui:TakionGui.dll
 0001:0000293a       ?CompareValue@?$TypedRowValue@VSignedPrice@@@@UEBAFAEBVSignedPrice@@@Z 000000018000393a f   TakionGui:TakionGui.dll
 0001:00002940       ?CompareAhead@SecurityPriceRowValueDiff@@UEBAFAEBVRowValue@@@Z 0000000180003940 f   TakionGui:TakionGui.dll
 0001:00002946       ?isObjectValueEmpty@?$TypedRowValue@VSignedPrice@@@@UEBA_NXZ 0000000180003946 f   TakionGui:TakionGui.dll
 0001:0000294c       ?NullifyTick@?$TypedNumericRowValue@VSignedPrice@@@@UEAAXXZ 000000018000394c f   TakionGui:TakionGui.dll
 0001:00002952       ?NullifyLastDiff@?$TypedNumericRowValue@VSignedPrice@@@@UEBAXXZ 0000000180003952 f   TakionGui:TakionGui.dll
 0001:00002958       ?Add@?$TypedNumericRowValue@VSignedPrice@@@@UEAA_NAEBVRowValue@@@Z 0000000180003958 f   TakionGui:TakionGui.dll
 0001:0000295e       ?Subtract@?$TypedNumericRowValue@VSignedPrice@@@@UEAA_NAEBVRowValue@@@Z 000000018000395e f   TakionGui:TakionGui.dll
 0001:00002964       ?Adjust@?$TypedNumericRowValue@VSignedPrice@@@@UEAA_NAEBVRowValue@@@Z 0000000180003964 f   TakionGui:TakionGui.dll
 0001:0000296a       ?Reset@?$TypedNumericRowValue@VSignedPrice@@@@UEAAXXZ 000000018000396a f   TakionGui:TakionGui.dll
 0001:00002970       ?GetTickMillisecond@?$TypedNumericRowValue@VSignedPrice@@@@UEBAIXZ 0000000180003970 f   TakionGui:TakionGui.dll
 0001:00002976       ?SetSecurity@SecurityPriceRowValueDiff@@UEAAXPEBVSecurity@@@Z 0000000180003976 f   TakionGui:TakionGui.dll
 0001:0000297c       ?isComma@?$CommaRowValue@VSignedPrice@@@@UEBAPEB_NXZ 000000018000397c f   TakionGui:TakionGui.dll
 0001:00002982       ?SetComma@?$CommaRowValue@VSignedPrice@@@@UEAAXPEB_N@Z 0000000180003982 f   TakionGui:TakionGui.dll
 0001:00002988       ?GetDecDigits@?$DecRowValue@VSignedPrice@@@@UEBAPEBEXZ 0000000180003988 f   TakionGui:TakionGui.dll
 0001:0000298e       ?SetDecDigits@?$DecRowValue@VSignedPrice@@@@UEAAXPEBE@Z 000000018000398e f   TakionGui:TakionGui.dll
 0001:00002994       ?isTruncate@?$DecRowValue@VSignedPrice@@@@UEBAPEB_NXZ 0000000180003994 f   TakionGui:TakionGui.dll
 0001:0000299a       ?SetTruncate@?$DecRowValue@VSignedPrice@@@@UEAAXPEB_N@Z 000000018000399a f   TakionGui:TakionGui.dll
 0001:000029a0       ?GetObjectValueCopy@?$TypedRowValue@VSignedPrice@@@@UEBA?AVSignedPrice@@XZ 00000001800039a0 f   TakionGui:TakionGui.dll
 0001:000029a6       ?InitializeValue@SecurityPriceRowValueDiff@@MEAAXXZ 00000001800039a6 f   TakionGui:TakionGui.dll
 0001:000029ac       ?DeriveValue@SecurityPriceRowValueDiffAbs@@UEBA?AVSignedPrice@@AEBVPrice@@0@Z 00000001800039ac f   TakionGui:TakionGui.dll
 0001:000029b2       ?CompareValueToZero@?$TypedNumericRowValue@H@@UEBAFXZ 00000001800039b2 f   TakionGui:TakionGui.dll
 0001:000029b8       ?isValueZero@SecurityIntRowValueDiff@@UEBA_NXZ 00000001800039b8 f   TakionGui:TakionGui.dll
 0001:000029be       ?isObjectValueZero@SecurityIntRowValueDiff@@UEBA_NXZ 00000001800039be f   TakionGui:TakionGui.dll
 0001:000029c4       ?UpdateValue@SecurityIntRowValueDiff@@UEAA_NXZ 00000001800039c4 f   TakionGui:TakionGui.dll
 0001:000029ca       ?SetValue@?$TypedNumericRowValue@H@@UEAA_NAEBH@Z 00000001800039ca f   TakionGui:TakionGui.dll
 0001:000029d0       ?CompareToZero@?$TypedNumericRowValue@H@@UEBAFAEBH@Z 00000001800039d0 f   TakionGui:TakionGui.dll
 0001:000029d6       ?CalculateTick@?$TypedNumericRowValue@H@@MEAAXAEBHAEAH@Z 00000001800039d6 f   TakionGui:TakionGui.dll
 0001:000029dc       ?InitValue@?$TypedRowValue@H@@UEAAXXZ 00000001800039dc f   TakionGui:TakionGui.dll
 0001:000029e2       ?GetObjectValue@?$TypedRowValue@H@@UEBAAEBHXZ 00000001800039e2 f   TakionGui:TakionGui.dll
 0001:000029e8       ?isValueChanged@SecurityIntRowValueDiff@@UEBA_NXZ 00000001800039e8 f   TakionGui:TakionGui.dll
 0001:000029ee       ?toString@IntRowValue@@UEBAXAEAV?$basic_string@DU?$char_traits@D@std@@V?$allocator@D@2@@std@@@Z 00000001800039ee f   TakionGui:TakionGui.dll
 0001:000029f4       ?Compare@?$TypedRowValue@H@@UEBAFAEBVRowValue@@@Z 00000001800039f4 f   TakionGui:TakionGui.dll
 0001:000029fa       ?CompareValue@?$TypedRowValue@H@@UEBAFAEBH@Z 00000001800039fa f   TakionGui:TakionGui.dll
 0001:00002a00       ?CompareAhead@SecurityIntRowValueDiff@@UEBAFAEBVRowValue@@@Z 0000000180003a00 f   TakionGui:TakionGui.dll
 0001:00002a06       ?isValueEmpty@?$TypedRowValue@H@@UEBA_NXZ 0000000180003a06 f   TakionGui:TakionGui.dll
 0001:00002a0c       ?isObjectValueEmpty@?$TypedRowValue@H@@UEBA_NXZ 0000000180003a0c f   TakionGui:TakionGui.dll
 0001:00002a12       ?NullifyTick@?$TypedNumericRowValue@H@@UEAAXXZ 0000000180003a12 f   TakionGui:TakionGui.dll
 0001:00002a18       ?NullifyLastDiff@?$TypedNumericRowValue@H@@UEBAXXZ 0000000180003a18 f   TakionGui:TakionGui.dll
 0001:00002a1e       ?Add@?$TypedNumericRowValue@H@@UEAA_NAEBVRowValue@@@Z 0000000180003a1e f   TakionGui:TakionGui.dll
 0001:00002a24       ?Subtract@?$TypedNumericRowValue@H@@UEAA_NAEBVRowValue@@@Z 0000000180003a24 f   TakionGui:TakionGui.dll
 0001:00002a2a       ?Adjust@?$TypedNumericRowValue@H@@UEAA_NAEBVRowValue@@@Z 0000000180003a2a f   TakionGui:TakionGui.dll
 0001:00002a30       ?Reset@?$TypedNumericRowValue@H@@UEAAXXZ 0000000180003a30 f   TakionGui:TakionGui.dll
 0001:00002a36       ?GetTickMillisecond@?$TypedNumericRowValue@H@@UEBAIXZ 0000000180003a36 f   TakionGui:TakionGui.dll
 0001:00002a3c       ?GetIntValue@IntRowValue@@UEBAHXZ 0000000180003a3c f   TakionGui:TakionGui.dll
 0001:00002a42       ?SetSecurity@SecurityIntRowValueDiff@@UEAAXPEBVSecurity@@@Z 0000000180003a42 f   TakionGui:TakionGui.dll
 0001:00002a48       ?isComma@?$CommaRowValue@H@@UEBAPEB_NXZ 0000000180003a48 f   TakionGui:TakionGui.dll
 0001:00002a4e       ?SetComma@?$CommaRowValue@H@@UEAAXPEB_N@Z 0000000180003a4e f   TakionGui:TakionGui.dll
 0001:00002a54       ?GetObjectValueCopy@?$TypedRowValue@H@@UEBAHXZ 0000000180003a54 f   TakionGui:TakionGui.dll
 0001:00002a5a       ?InitializeValue@SecurityIntRowValueDiff@@MEAAXXZ 0000000180003a5a f   TakionGui:TakionGui.dll
 0001:00002a60       ??3@YAXPEAX@Z              0000000180003a60 f   mfc140:mfc140.dll
 0001:00002a66       ??2@YAPEAX_K@Z             0000000180003a66 f   mfc140:mfc140.dll
 0001:00002a6c       ?GetRuntimeClass@CWinApp@@UEBAPEAUCRuntimeClass@@XZ 0000000180003a6c f   mfc140:mfc140.dll
 0001:00002a72       ?OnCmdMsg@CCmdTarget@@UEAAHIHPEAXPEAUAFX_CMDHANDLERINFO@@@Z 0000000180003a72 f   mfc140:mfc140.dll
 0001:00002a78       ?OnFinalRelease@CCmdTarget@@UEAAXXZ 0000000180003a78 f   mfc140:mfc140.dll
 0001:00002a7e       ?IsInvokeAllowed@CCmdTarget@@UEAAHJ@Z 0000000180003a7e f   mfc140:mfc140.dll
 0001:00002a84       ?GetDispatchIID@CCmdTarget@@UEAAHPEAU_GUID@@@Z 0000000180003a84 f   mfc140:mfc140.dll
 0001:00002a8a       ?GetTypeInfoCount@CCmdTarget@@UEAAIXZ 0000000180003a8a f   mfc140:mfc140.dll
 0001:00002a90       ?GetTypeLibCache@CCmdTarget@@UEAAPEAVCTypeLibCache@@XZ 0000000180003a90 f   mfc140:mfc140.dll
 0001:00002a96       ?GetTypeLib@CCmdTarget@@UEAAJKPEAPEAUITypeLib@@@Z 0000000180003a96 f   mfc140:mfc140.dll
 0001:00002a9c       ?GetMessageMap@CWinApp@@MEBAPEBUAFX_MSGMAP@@XZ 0000000180003a9c f   mfc140:mfc140.dll
 0001:00002aa2       ?GetCommandMap@CCmdTarget@@MEBAPEBUAFX_OLECMDMAP@@XZ 0000000180003aa2 f   mfc140:mfc140.dll
 0001:00002aa8       ?GetDispatchMap@CCmdTarget@@MEBAPEBUAFX_DISPMAP@@XZ 0000000180003aa8 f   mfc140:mfc140.dll
 0001:00002aae       ?GetConnectionMap@CCmdTarget@@MEBAPEBUAFX_CONNECTIONMAP@@XZ 0000000180003aae f   mfc140:mfc140.dll
 0001:00002ab4       ?GetInterfaceMap@CCmdTarget@@MEBAPEBUAFX_INTERFACEMAP@@XZ 0000000180003ab4 f   mfc140:mfc140.dll
 0001:00002aba       ?GetEventSinkMap@CCmdTarget@@MEBAPEBUAFX_EVENTSINKMAP@@XZ 0000000180003aba f   mfc140:mfc140.dll
 0001:00002ac0       ?OnCreateAggregates@CCmdTarget@@UEAAHXZ 0000000180003ac0 f   mfc140:mfc140.dll
 0001:00002ac6       ?GetInterfaceHook@CCmdTarget@@UEAAPEAUIUnknown@@PEBX@Z 0000000180003ac6 f   mfc140:mfc140.dll
 0001:00002acc       ?GetExtraConnectionPoints@CCmdTarget@@MEAAHPEAVCPtrArray@@@Z 0000000180003acc f   mfc140:mfc140.dll
 0001:00002ad2       ?GetConnectionHook@CCmdTarget@@MEAAPEAUIConnectionPoint@@AEBU_GUID@@@Z 0000000180003ad2 f   mfc140:mfc140.dll
 0001:00002ad8       ?Run@CWinApp@@UEAAHXZ      0000000180003ad8 f   mfc140:mfc140.dll
 0001:00002ade       ?PreTranslateMessage@CWinThread@@UEAAHPEAUtagMSG@@@Z 0000000180003ade f   mfc140:mfc140.dll
 0001:00002ae4       ?PumpMessage@CWinThread@@UEAAHXZ 0000000180003ae4 f   mfc140:mfc140.dll
 0001:00002aea       ?OnIdle@CWinApp@@UEAAHJ@Z  0000000180003aea f   mfc140:mfc140.dll
 0001:00002af0       ?IsIdleMessage@CWinThread@@UEAAHPEAUtagMSG@@@Z 0000000180003af0 f   mfc140:mfc140.dll
 0001:00002af6       ?ProcessWndProcException@CWinApp@@UEAA_JPEAVCException@@PEBUtagMSG@@@Z 0000000180003af6 f   mfc140:mfc140.dll
 0001:00002afc       ?ProcessMessageFilter@CWinThread@@UEAAHHPEAUtagMSG@@@Z 0000000180003afc f   mfc140:mfc140.dll
 0001:00002b02       ?GetMainWnd@CWinThread@@UEAAPEAVCWnd@@XZ 0000000180003b02 f   mfc140:mfc140.dll
 0001:00002b08       ?Delete@CWinThread@@UEAAXXZ 0000000180003b08 f   mfc140:mfc140.dll
 0001:00002b0e       ?GetProfileIntA@CWinApp@@UEAAIPEBD0H@Z 0000000180003b0e f   mfc140:mfc140.dll
 0001:00002b14       ?WriteProfileInt@CWinApp@@UEAAHPEBD0H@Z 0000000180003b14 f   mfc140:mfc140.dll
 0001:00002b1a       ?GetProfileStringA@CWinApp@@UEAA?AV?$CStringT@DV?$StrTraitMFC_DLL@DV?$ChTraitsCRT@D@ATL@@@@@ATL@@PEBD00@Z 0000000180003b1a f   mfc140:mfc140.dll
 0001:00002b20       ?WriteProfileStringA@CWinApp@@UEAAHPEBD00@Z 0000000180003b20 f   mfc140:mfc140.dll
 0001:00002b26       ?GetProfileBinary@CWinApp@@UEAAHPEBD0PEAPEAEPEAI@Z 0000000180003b26 f   mfc140:mfc140.dll
 0001:00002b2c       ?WriteProfileBinary@CWinApp@@UEAAHPEBD0PEAEI@Z 0000000180003b2c f   mfc140:mfc140.dll
 0001:00002b32       ?InitLibId@CWinApp@@UEAAXXZ 0000000180003b32 f   mfc140:mfc140.dll
 0001:00002b38       ?Register@CWinApp@@UEAAHXZ 0000000180003b38 f   mfc140:mfc140.dll
 0001:00002b3e       ?Unregister@CWinApp@@UEAAHXZ 0000000180003b3e f   mfc140:mfc140.dll
 0001:00002b44       ?OpenDocumentFile@CWinApp@@UEAAPEAVCDocument@@PEBDH@Z 0000000180003b44 f   mfc140:mfc140.dll
 0001:00002b4a       ?OpenDocumentFile@CWinApp@@UEAAPEAVCDocument@@PEBD@Z 0000000180003b4a f   mfc140:mfc140.dll
 0001:00002b50       ?AddToRecentFileList@CWinApp@@UEAAXPEBD@Z 0000000180003b50 f   mfc140:mfc140.dll
 0001:00002b56       ?InitApplication@CWinApp@@UEAAHXZ 0000000180003b56 f   mfc140:mfc140.dll
 0001:00002b5c       ?SaveAllModified@CWinApp@@UEAAHXZ 0000000180003b5c f   mfc140:mfc140.dll
 0001:00002b62       ?DoMessageBox@CWinApp@@UEAAHPEBDII@Z 0000000180003b62 f   mfc140:mfc140.dll
 0001:00002b68       ?DoWaitCursor@CWinApp@@UEAAXH@Z 0000000180003b68 f   mfc140:mfc140.dll
 0001:00002b6e       ?OnDDECommand@CWinApp@@UEAAHPEAD@Z 0000000180003b6e f   mfc140:mfc140.dll
 0001:00002b74       ?WinHelpA@CWinApp@@UEAAX_KI@Z 0000000180003b74 f   mfc140:mfc140.dll
 0001:00002b7a       ?HtmlHelpA@CWinApp@@UEAAX_KI@Z 0000000180003b7a f   mfc140:mfc140.dll
 0001:00002b80       ?WinHelpInternal@CWinApp@@UEAAX_KI@Z 0000000180003b80 f   mfc140:mfc140.dll
 0001:00002b86       ?RegisterWithRestartManager@CWinApp@@UEAAJPEB_WKP6AKPEAX@Z1KK@Z 0000000180003b86 f   mfc140:mfc140.dll
 0001:00002b8c       ?RegisterWithRestartManager@CWinApp@@UEAAJHAEBV?$CStringT@DV?$StrTraitMFC_DLL@DV?$ChTraitsCRT@D@ATL@@@@@ATL@@@Z 0000000180003b8c f   mfc140:mfc140.dll
 0001:00002b92       ?ApplicationRecoveryCallback@CWinApp@@UEAAKPEAX@Z 0000000180003b92 f   mfc140:mfc140.dll
 0001:00002b98       ?GetDataRecoveryHandler@CWinApp@@UEAAPEAVCDataRecoveryHandler@@XZ 0000000180003b98 f   mfc140:mfc140.dll
 0001:00002b9e       ?IsTaskbarInteractionEnabled@CWinApp@@UEAAHXZ 0000000180003b9e f   mfc140:mfc140.dll
 0001:00002ba4       ?RestartInstance@CWinApp@@UEAAHXZ 0000000180003ba4 f   mfc140:mfc140.dll
 0001:00002baa       ?LoadAppLangResourceDLL@CWinApp@@UEAAPEAUHINSTANCE__@@XZ 0000000180003baa f   mfc140:mfc140.dll
 0001:00002bb0       ?LoadSysPolicies@CWinApp@@UEAAHXZ 0000000180003bb0 f   mfc140:mfc140.dll
 0001:00002bb8       RawDllMain                 0000000180003bb8 f   mfcs140:dllmodul.obj
 0001:00002c14       ??_E_AFX_DLL_MODULE_STATE@@UEAAPEAXI@Z 0000000180003c14 f i mfcs140:dllmodul.obj
 0001:00002c14       ??_G_AFX_DLL_MODULE_STATE@@UEAAPEAXI@Z 0000000180003c14 f i mfcs140:dllmodul.obj
 0001:00002c58       ?AfxWndProcDllStatic@@YA_JPEAUHWND__@@I_K_J@Z 0000000180003c58 f   mfcs140:dllmodul.obj
 0001:00002ccc       DllMain                    0000000180003ccc f   mfcs140:dllmodul.obj
 0001:00002d14       InternalDllMain            0000000180003d14 f   mfcs140:dllmodul.obj
 0001:00002ec0       ??2CObject@@SAPEAX_K@Z     0000000180003ec0 f i mfcs140:dllmodulx.obj
 0001:00002ec8       ?AfxGetApp@@YAPEAVCWinApp@@XZ 0000000180003ec8 f i mfcs140:dllmodulx.obj
 0001:00002ef0       __security_check_cookie    0000000180003ef0 f   msvcrt:_amdsecgs_.obj
 0001:00002f14       ??3@YAXPEAX_K@Z            0000000180003f14 f   msvcrt:delete_scalar_size.obj
 0001:00002f1c       ??_Etype_info@@UEAAPEAXI@Z 0000000180003f1c f i msvcrt:std_type_info_static.obj
 0001:00002f1c       ??_Gtype_info@@UEAAPEAXI@Z 0000000180003f1c f i msvcrt:std_type_info_static.obj
 0001:00002f48       __scrt_acquire_startup_lock 0000000180003f48 f   msvcrt:utility.obj
 0001:00002f84       __scrt_dllmain_after_initialize_c 0000000180003f84 f   msvcrt:utility.obj
 0001:00002fb8       __scrt_dllmain_before_initialize_c 0000000180003fb8 f   msvcrt:utility.obj
 0001:00002fd0       __scrt_dllmain_crt_thread_attach 0000000180003fd0 f   msvcrt:utility.obj
 0001:00002ff8       __scrt_dllmain_crt_thread_detach 0000000180003ff8 f   msvcrt:utility.obj
 0001:00003010       __scrt_dllmain_exception_filter 0000000180004010 f   msvcrt:utility.obj
 0001:00003074       __scrt_dllmain_uninitialize_c 0000000180004074 f   msvcrt:utility.obj
 0001:000030a4       __scrt_dllmain_uninitialize_critical 00000001800040a4 f   msvcrt:utility.obj
 0001:000030b8       __scrt_initialize_crt      00000001800040b8 f   msvcrt:utility.obj
 0001:00003104       __scrt_initialize_onexit_tables 0000000180004104 f   msvcrt:utility.obj
 0001:000031d0       __scrt_is_nonwritable_in_current_image 00000001800041d0 f   msvcrt:utility.obj
 0001:0000326c       __scrt_release_startup_lock 000000018000426c f   msvcrt:utility.obj
 0001:00003290       __scrt_uninitialize_crt    0000000180004290 f   msvcrt:utility.obj
 0001:000032bc       _onexit                    00000001800042bc f   msvcrt:utility.obj
 0001:0000330c       atexit                     000000018000430c f   msvcrt:utility.obj
 0001:000037b8       _DllMainCRTStartup         00000001800047b8 f   msvcrt:dll_dllmain.obj
 0001:000037f8       _guard_check_icall         00000001800047f8 f i msvcrt:checkcfg.obj
 0001:00003800       __raise_securityfailure    0000000180004800 f   msvcrt:gs_report.obj
 0001:00003834       __report_gsfailure         0000000180004834 f   msvcrt:gs_report.obj
 0001:0000397c       __isa_available_init       000000018000497c f   msvcrt:_cpu_disp_.obj
 0001:00003b44       _get_startup_argv_mode     0000000180004b44 f   msvcrt:argv_mode.obj
 0001:00003b4c       __scrt_is_ucrt_dll_in_use  0000000180004b4c f   msvcrt:ucrt_detection.obj
 0001:00003b58       __scrt_fastfail            0000000180004b58 f   msvcrt:utility_desktop.obj
 0001:00003ca0       __security_init_cookie     0000000180004ca0 f   msvcrt:gs_support.obj
 0001:00003d4c       ?__scrt_initialize_type_info@@YAXXZ 0000000180004d4c f   msvcrt:tncleanup.obj
 0001:00003d5c       ?__scrt_uninitialize_type_info@@YAXXZ 0000000180004d5c f   msvcrt:tncleanup.obj
 0001:00003d68       __local_stdio_printf_options 0000000180004d68 f i msvcrt:default_local_stdio_options.obj
 0001:00003d70       __local_stdio_scanf_options 0000000180004d70 f i msvcrt:default_local_stdio_options.obj
 0001:00003d78       __scrt_initialize_default_local_stdio_options 0000000180004d78 f   msvcrt:default_local_stdio_options.obj
 0001:00003d94       __scrt_get_dyn_tls_init_callback 0000000180004d94 f   msvcrt:dyn_tls_init.obj
 0001:00003d9c       _RTC_Initialize            0000000180004d9c f   msvcrt:_initsect_.obj
 0001:00003de8       _RTC_Terminate             0000000180004de8 f   msvcrt:_initsect_.obj
 0001:00003e34       __GSHandlerCheck           0000000180004e34 f   msvcrt:_gshandler_.obj
 0001:00003e54       __GSHandlerCheckCommon     0000000180004e54 f   msvcrt:_gshandler_.obj
 0001:00003eb0       IsProcessorFeaturePresent  0000000180004eb0 f   kernel32:KERNEL32.dll
 0001:00003eb8       ??0CAtlBaseModule@ATL@@QEAA@XZ 0000000180004eb8 f   atls:atlbase.obj
 0001:00003f60       ??1CAtlBaseModule@ATL@@QEAA@XZ 0000000180004f60 f   atls:atlbase.obj
 0001:00003f94       memset                     0000000180004f94 f   vcruntime:VCRUNTIME140.dll
 0001:00003f9a       __C_specific_handler       0000000180004f9a f   vcruntime:VCRUNTIME140.dll
 0001:00003fa0       __CxxFrameHandler3         0000000180004fa0 f   vcruntime:VCRUNTIME140.dll
 0001:00003fa6       __vcrt_InitializeCriticalSectionEx 0000000180004fa6 f   vcruntime:VCRUNTIME140.dll
 0001:00003fac       __std_type_info_destroy_list 0000000180004fac f   vcruntime:VCRUNTIME140.dll
 0001:00003fb2       free                       0000000180004fb2 f   ucrt:api-ms-win-crt-heap-l1-1-0.dll
 0001:00003fb8       _seh_filter_dll            0000000180004fb8 f   ucrt:api-ms-win-crt-runtime-l1-1-0.dll
 0001:00003fbe       _configure_narrow_argv     0000000180004fbe f   ucrt:api-ms-win-crt-runtime-l1-1-0.dll
 0001:00003fc4       _initialize_narrow_environment 0000000180004fc4 f   ucrt:api-ms-win-crt-runtime-l1-1-0.dll
 0001:00003fca       _initialize_onexit_table   0000000180004fca f   ucrt:api-ms-win-crt-runtime-l1-1-0.dll
 0001:00003fd0       _register_onexit_function  0000000180004fd0 f   ucrt:api-ms-win-crt-runtime-l1-1-0.dll
 0001:00003fd6       _execute_onexit_table      0000000180004fd6 f   ucrt:api-ms-win-crt-runtime-l1-1-0.dll
 0001:00003fdc       _crt_atexit                0000000180004fdc f   ucrt:api-ms-win-crt-runtime-l1-1-0.dll
 0001:00003fe2       _cexit                     0000000180004fe2 f   ucrt:api-ms-win-crt-runtime-l1-1-0.dll
 0001:00003fe8       _initterm                  0000000180004fe8 f   ucrt:api-ms-win-crt-runtime-l1-1-0.dll
 0001:00003fee       _initterm_e                0000000180004fee f   ucrt:api-ms-win-crt-runtime-l1-1-0.dll
 0001:00003ff4       ?Delete@CException@@QEAAXXZ 0000000180004ff4 f   mfc140:mfc140.dll
 0001:00003ffa       ??3CNoTrackObject@@SAXPEAX@Z 0000000180004ffa f   mfc140:mfc140.dll
 0001:00004000       ??0AFX_MODULE_STATE@@QEAA@HP6A_JPEAUHWND__@@I_K_J@ZKH@Z 0000000180005000 f   mfc140:mfc140.dll
 0001:00004006       ??1AFX_MODULE_STATE@@UEAA@XZ 0000000180005006 f   mfc140:mfc140.dll
 0001:0000400c       ?AfxSetModuleState@@YAPEAVAFX_MODULE_STATE@@PEAV1@@Z 000000018000500c f   mfc140:mfc140.dll
 0001:00004012       ?AfxGetModuleState@@YAPEAVAFX_MODULE_STATE@@XZ 0000000180005012 f   mfc140:mfc140.dll
 0001:00004018       ??0AFX_MAINTAIN_STATE2@@QEAA@PEAVAFX_MODULE_STATE@@@Z 0000000180005018 f   mfc140:mfc140.dll
 0001:0000401e       ??1AFX_MAINTAIN_STATE2@@QEAA@XZ 000000018000501e f   mfc140:mfc140.dll
 0001:00004024       ?AfxWinInit@@YAHPEAUHINSTANCE__@@0PEADH@Z 0000000180005024 f   mfc140:mfc140.dll
 0001:0000402a       ?AfxWndProc@@YA_JPEAUHWND__@@I_K_J@Z 000000018000502a f   mfc140:mfc140.dll
 0001:00004030       ?AfxTermThread@@YAXPEAUHINSTANCE__@@@Z 0000000180005030 f   mfc140:mfc140.dll
 0001:00004036       ?AfxWinTerm@@YAXXZ         0000000180005036 f   mfc140:mfc140.dll
 0001:0000403c       ??0CDynLinkLibrary@@QEAA@AEAUAFX_EXTENSION_MODULE@@H@Z 000000018000503c f   mfc140:mfc140.dll
 0001:00004042       ?AfxInitExtensionModule@@YAHAEAUAFX_EXTENSION_MODULE@@PEAUHINSTANCE__@@@Z 0000000180005042 f   mfc140:mfc140.dll
 0001:00004048       ?AfxTermExtensionModule@@YAXAEAUAFX_EXTENSION_MODULE@@H@Z 0000000180005048 f   mfc140:mfc140.dll
 0001:0000404e       ?AfxCoreInitModule@@YAXXZ  000000018000504e f   mfc140:mfc140.dll
 0001:00004054       ?AfxLockTempMaps@@YAXXZ    0000000180005054 f   mfc140:mfc140.dll
 0001:0000405a       ?AfxUnlockTempMaps@@YAHH@Z 000000018000505a f   mfc140:mfc140.dll
 0001:00004060       _RawDllMainProxy           0000000180005060 f   mfcs140:rawdllmainproxy.obj
 0001:00004180       _guard_dispatch_icall_nop  0000000180005180 f   msvcrt:_guard_dispatch_.obj
 0002:00000000       __imp_OutputDebugStringW   0000000180006000     kernel32:KERNEL32.dll
 0002:00000008       __imp_InitializeCriticalSectionEx 0000000180006008     kernel32:KERNEL32.dll
 0002:00000010       __imp_GetLastError         0000000180006010     kernel32:KERNEL32.dll
 0002:00000018       __imp_InitializeSListHead  0000000180006018     kernel32:KERNEL32.dll
 0002:00000020       __imp_GetSystemTimeAsFileTime 0000000180006020     kernel32:KERNEL32.dll
 0002:00000028       __imp_GetCurrentThreadId   0000000180006028     kernel32:KERNEL32.dll
 0002:00000030       __imp_GetCurrentProcessId  0000000180006030     kernel32:KERNEL32.dll
 0002:00000038       __imp_QueryPerformanceCounter 0000000180006038     kernel32:KERNEL32.dll
 0002:00000040       __imp_IsDebuggerPresent    0000000180006040     kernel32:KERNEL32.dll
 0002:00000048       __imp_IsProcessorFeaturePresent 0000000180006048     kernel32:KERNEL32.dll
 0002:00000050       __imp_TerminateProcess     0000000180006050     kernel32:KERNEL32.dll
 0002:00000058       __imp_GetCurrentProcess    0000000180006058     kernel32:KERNEL32.dll
 0002:00000060       __imp_SetUnhandledExceptionFilter 0000000180006060     kernel32:KERNEL32.dll
 0002:00000068       __imp_UnhandledExceptionFilter 0000000180006068     kernel32:KERNEL32.dll
 0002:00000070       __imp_RtlVirtualUnwind     0000000180006070     kernel32:KERNEL32.dll
 0002:00000078       __imp_RtlLookupFunctionEntry 0000000180006078     kernel32:KERNEL32.dll
 0002:00000080       __imp_RtlCaptureContext    0000000180006080     kernel32:KERNEL32.dll
 0002:00000088       __imp_GetProcAddress       0000000180006088     kernel32:KERNEL32.dll
 0002:00000090       __imp_GetModuleHandleW     0000000180006090     kernel32:KERNEL32.dll
 0002:00000098       __imp_CreateEventW         0000000180006098     kernel32:KERNEL32.dll
 0002:000000a0       __imp_CloseHandle          00000001800060a0     kernel32:KERNEL32.dll
 0002:000000a8       __imp_LocalFree            00000001800060a8     kernel32:KERNEL32.dll
 0002:000000b0       __imp_LocalAlloc           00000001800060b0     kernel32:KERNEL32.dll
 0002:000000b8       __imp_DeleteCriticalSection 00000001800060b8     kernel32:KERNEL32.dll
 0002:000000c0       \177KERNEL32_NULL_THUNK_DATA 00000001800060c0     kernel32:KERNEL32.dll
 0002:000000c8       __imp_O_GetModuleVersionNum 00000001800060c8     Observer:Observer.dll
 0002:000000d0       \177Observer_NULL_THUNK_DATA 00000001800060d0     Observer:Observer.dll
 0002:000000d8       __imp_TD_GetModuleVersionNum 00000001800060d8     TakionData:TakionData.dll
 0002:000000e0       \177TakionData_NULL_THUNK_DATA 00000001800060e0     TakionData:TakionData.dll
 0002:000000e8       __imp_??0PositionSecurityUIntDevidedByUIntAlternateInventoryRowValue@@QEAA@AEBQEBVPositionData@@AEBQEBVSecurity@@AEB_NPEB_NPEBE3P81@EBAAEBI2@ZP82@EBAAEBIXZ6AEBI2@Z 00000001800060e8     TakionGui:TakionGui.dll
 0002:000000f0       __imp_??1PositionSecurityUIntDevidedByUIntInventoryRowValue@@UEAA@XZ 00000001800060f0     TakionGui:TakionGui.dll
 0002:000000f8       __imp_??0AccountMoneyPerShareInventoryRowValue@@QEAA@PEBVAccount@@AEB_NPEB_NPEBE2P81@EBA?AVMoney@@1@ZP81@EBAAEBIXZI_N66@Z 00000001800060f8     TakionGui:TakionGui.dll
 0002:00000100       __imp_?CanBeNegative@RowValue@@UEBA_NXZ 0000000180006100     TakionGui:TakionGui.dll
 0002:00000108       __imp_?CompareValueToZero@?$TypedNumericRowValue@VMoney@@@@UEBAFXZ 0000000180006108     TakionGui:TakionGui.dll
 0002:00000110       __imp_?isValueZero@?$TypedNumericRowValue@VMoney@@@@UEBA_NXZ 0000000180006110     TakionGui:TakionGui.dll
 0002:00000118       __imp_?isObjectValueZero@?$TypedNumericRowValue@VMoney@@@@UEBA_NXZ 0000000180006118     TakionGui:TakionGui.dll
 0002:00000120       __imp_?GetObjectValue@?$TypedRowValue@VMoney@@@@UEBAAEBVMoney@@XZ 0000000180006120     TakionGui:TakionGui.dll
 0002:00000128       __imp_?UpdateValue@?$TypedRowValue@VMoney@@@@UEAA_NXZ 0000000180006128     TakionGui:TakionGui.dll
 0002:00000130       __imp_?InitValue@?$TypedRowValue@VMoney@@@@UEAAXXZ 0000000180006130     TakionGui:TakionGui.dll
 0002:00000138       __imp_?InitializeValue@?$TypedRowValue@VMoney@@@@MEAAXXZ 0000000180006138     TakionGui:TakionGui.dll
 0002:00000140       __imp_?isValueChanged@?$TypedRowValue@VMoney@@@@UEBA_NXZ 0000000180006140     TakionGui:TakionGui.dll
 0002:00000148       __imp_?toString@MoneyRowValue@@UEBAXAEAV?$basic_string@DU?$char_traits@D@std@@V?$allocator@D@2@@std@@@Z 0000000180006148     TakionGui:TakionGui.dll
 0002:00000150       __imp_?isValueEmpty@?$TypedRowValue@VMoney@@@@UEBA_NXZ 0000000180006150     TakionGui:TakionGui.dll
 0002:00000158       __imp_?Compare@?$TypedRowValue@VMoney@@@@UEBAFAEBVRowValue@@@Z 0000000180006158     TakionGui:TakionGui.dll
 0002:00000160       __imp_?CompareValue@?$TypedRowValue@VMoney@@@@UEBAFAEBVMoney@@@Z 0000000180006160     TakionGui:TakionGui.dll
 0002:00000168       __imp_?CompareAhead@?$TypedRowValue@VMoney@@@@UEBAFAEBVRowValue@@@Z 0000000180006168     TakionGui:TakionGui.dll
 0002:00000170       __imp_?isObjectValueEmpty@?$TypedRowValue@VMoney@@@@UEBA_NXZ 0000000180006170     TakionGui:TakionGui.dll
 0002:00000178       __imp_?NullifyTick@?$TypedNumericRowValue@VMoney@@@@UEAAXXZ 0000000180006178     TakionGui:TakionGui.dll
 0002:00000180       __imp_?NullifyLastDiff@?$TypedNumericRowValue@VMoney@@@@UEBAXXZ 0000000180006180     TakionGui:TakionGui.dll
 0002:00000188       __imp_?Add@?$TypedNumericRowValue@VMoney@@@@UEAA_NAEBVRowValue@@@Z 0000000180006188     TakionGui:TakionGui.dll
 0002:00000190       __imp_?Subtract@?$TypedNumericRowValue@VMoney@@@@UEAA_NAEBVRowValue@@@Z 0000000180006190     TakionGui:TakionGui.dll
 0002:00000198       __imp_?Adjust@?$TypedNumericRowValue@VMoney@@@@UEAA_NAEBVRowValue@@@Z 0000000180006198     TakionGui:TakionGui.dll
 0002:000001a0       __imp_?Reset@?$TypedNumericRowValue@VMoney@@@@UEAAXXZ 00000001800061a0     TakionGui:TakionGui.dll
 0002:000001a8       __imp_?GetCount@RowValue@@UEBAIXZ 00000001800061a8     TakionGui:TakionGui.dll
 0002:000001b0       __imp_?GetTickMillisecond@?$TypedNumericRowValue@VMoney@@@@UEBAIXZ 00000001800061b0     TakionGui:TakionGui.dll
 0002:000001b8       __imp_?GetStringValue@RowValue@@UEBAPEBDXZ 00000001800061b8     TakionGui:TakionGui.dll
 0002:000001c0       __imp_?GetUIntValue@RowValue@@UEBAIXZ 00000001800061c0     TakionGui:TakionGui.dll
 0002:000001c8       __imp_?GetUInt64Value@RowValue@@UEBA_KXZ 00000001800061c8     TakionGui:TakionGui.dll
 0002:000001d0       __imp_?GetIntValue@RowValue@@UEBAHXZ 00000001800061d0     TakionGui:TakionGui.dll
 0002:000001d8       __imp_?GetPriceValue@RowValue@@UEBA?AVPrice@@XZ 00000001800061d8     TakionGui:TakionGui.dll
 0002:000001e0       __imp_?GetSignedPriceValue@RowValue@@UEBA?AVSignedPrice@@XZ 00000001800061e0     TakionGui:TakionGui.dll
 0002:000001e8       __imp_?SetSecurity@RowValue@@UEAAXPEBVSecurity@@@Z 00000001800061e8     TakionGui:TakionGui.dll
 0002:000001f0       __imp_?isComma@?$CommaRowValue@VMoney@@@@UEBAPEB_NXZ 00000001800061f0     TakionGui:TakionGui.dll
 0002:000001f8       __imp_?SetComma@?$CommaRowValue@VMoney@@@@UEAAXPEB_N@Z 00000001800061f8     TakionGui:TakionGui.dll
 0002:00000200       __imp_?GetDecDigits@?$DecRowValue@VMoney@@@@UEBAPEBEXZ 0000000180006200     TakionGui:TakionGui.dll
 0002:00000208       __imp_?SetDecDigits@?$DecRowValue@VMoney@@@@UEAAXPEBE@Z 0000000180006208     TakionGui:TakionGui.dll
 0002:00000210       __imp_?isTruncate@?$DecRowValue@VMoney@@@@UEBAPEB_NXZ 0000000180006210     TakionGui:TakionGui.dll
 0002:00000218       __imp_?SetTruncate@?$DecRowValue@VMoney@@@@UEAAXPEB_N@Z 0000000180006218     TakionGui:TakionGui.dll
 0002:00000220       __imp_?GetLastIntDiff@RowValue@@UEBAHXZ 0000000180006220     TakionGui:TakionGui.dll
 0002:00000228       __imp_?GetNonZeroCount@RowValue@@UEBAIXZ 0000000180006228     TakionGui:TakionGui.dll
 0002:00000230       __imp_?GetObjectValueCopy@?$TypedRowValue@VMoney@@@@UEBA?AVMoney@@XZ 0000000180006230     TakionGui:TakionGui.dll
 0002:00000238       __imp_?CanBeNegative@?$TypedUnsignedRowValue@I@@UEBA_NXZ 0000000180006238     TakionGui:TakionGui.dll
 0002:00000240       __imp_?CompareValueToZero@?$TypedUnsignedRowValue@I@@UEBAFXZ 0000000180006240     TakionGui:TakionGui.dll
 0002:00000248       __imp_?isValueZero@?$TypedNumericRowValue@I@@UEBA_NXZ 0000000180006248     TakionGui:TakionGui.dll
 0002:00000250       __imp_?isObjectValueZero@?$TypedNumericRowValue@I@@UEBA_NXZ 0000000180006250     TakionGui:TakionGui.dll
 0002:00000258       __imp_?GetObjectValue@?$TypedRowValue@I@@UEBAAEBIXZ 0000000180006258     TakionGui:TakionGui.dll
 0002:00000260       __imp_?UpdateValue@?$TypedRowValue@I@@UEAA_NXZ 0000000180006260     TakionGui:TakionGui.dll
 0002:00000268       __imp_?InitValue@?$TypedRowValue@I@@UEAAXXZ 0000000180006268     TakionGui:TakionGui.dll
 0002:00000270       __imp_?InitializeValue@?$TypedRowValue@I@@MEAAXXZ 0000000180006270     TakionGui:TakionGui.dll
 0002:00000278       __imp_?isValueChanged@?$TypedRowValue@I@@UEBA_NXZ 0000000180006278     TakionGui:TakionGui.dll
 0002:00000280       __imp_?toString@?$CommaUnsignedNumberRowValue@I@@UEBAXAEAV?$basic_string@DU?$char_traits@D@std@@V?$allocator@D@2@@std@@@Z 0000000180006280     TakionGui:TakionGui.dll
 0002:00000288       __imp_?isValueEmpty@?$TypedRowValue@I@@UEBA_NXZ 0000000180006288     TakionGui:TakionGui.dll
 0002:00000290       __imp_?Compare@?$TypedRowValue@I@@UEBAFAEBVRowValue@@@Z 0000000180006290     TakionGui:TakionGui.dll
 0002:00000298       __imp_?CompareValue@?$TypedRowValue@I@@UEBAFAEBI@Z 0000000180006298     TakionGui:TakionGui.dll
 0002:000002a0       __imp_?CompareAhead@?$TypedRowValue@I@@UEBAFAEBVRowValue@@@Z 00000001800062a0     TakionGui:TakionGui.dll
 0002:000002a8       __imp_?isObjectValueEmpty@?$TypedRowValue@I@@UEBA_NXZ 00000001800062a8     TakionGui:TakionGui.dll
 0002:000002b0       __imp_?NullifyTick@?$TypedNumericRowValue@I@@UEAAXXZ 00000001800062b0     TakionGui:TakionGui.dll
 0002:000002b8       __imp_?NullifyLastDiff@?$TypedNumericRowValue@I@@UEBAXXZ 00000001800062b8     TakionGui:TakionGui.dll
 0002:000002c0       __imp_?Add@?$TypedNumericRowValue@I@@UEAA_NAEBVRowValue@@@Z 00000001800062c0     TakionGui:TakionGui.dll
 0002:000002c8       __imp_?SetValue@?$TypedNumericRowValue@I@@UEAA_NAEBI@Z 00000001800062c8     TakionGui:TakionGui.dll
 0002:000002d0       __imp_?CompareToZero@?$TypedNumericRowValue@I@@UEBAFAEBH@Z 00000001800062d0     TakionGui:TakionGui.dll
 0002:000002d8       __imp_?Subtract@?$TypedNumericRowValue@I@@UEAA_NAEBVRowValue@@@Z 00000001800062d8     TakionGui:TakionGui.dll
 0002:000002e0       __imp_?Adjust@?$TypedUnsignedRowValue@I@@UEAA_NAEBVRowValue@@@Z 00000001800062e0     TakionGui:TakionGui.dll
 0002:000002e8       __imp_?Reset@?$TypedNumericRowValue@I@@UEAAXXZ 00000001800062e8     TakionGui:TakionGui.dll
 0002:000002f0       __imp_?GetTickMillisecond@?$TypedNumericRowValue@I@@UEBAIXZ 00000001800062f0     TakionGui:TakionGui.dll
 0002:000002f8       __imp_?GetUIntValue@UIntRowValue@@UEBAIXZ 00000001800062f8     TakionGui:TakionGui.dll
 0002:00000300       __imp_?isComma@?$CommaUnsignedRowValue@I@@UEBAPEB_NXZ 0000000180006300     TakionGui:TakionGui.dll
 0002:00000308       __imp_?SetComma@?$CommaUnsignedRowValue@I@@UEAAXPEB_N@Z 0000000180006308     TakionGui:TakionGui.dll
 0002:00000310       __imp_?GetDecDigits@RowValue@@UEBAPEBEXZ 0000000180006310     TakionGui:TakionGui.dll
 0002:00000318       __imp_?SetDecDigits@RowValue@@UEAAXPEBE@Z 0000000180006318     TakionGui:TakionGui.dll
 0002:00000320       __imp_?isTruncate@RowValue@@UEBAPEB_NXZ 0000000180006320     TakionGui:TakionGui.dll
 0002:00000328       __imp_?SetTruncate@RowValue@@UEAAXPEB_N@Z 0000000180006328     TakionGui:TakionGui.dll
 0002:00000330       __imp_?GetObjectValueCopy@?$TypedRowValue@I@@UEBAIXZ 0000000180006330     TakionGui:TakionGui.dll
 0002:00000338       __imp_?CalculateTick@?$TypedUnsignedRowValue@I@@MEAAXAEBIAEAH@Z 0000000180006338     TakionGui:TakionGui.dll
 0002:00000340       __imp_??1AccountMoneyPerShareInventoryRowValue@@UEAA@XZ 0000000180006340     TakionGui:TakionGui.dll
 0002:00000348       __imp_?isObjectValueZero@AccountMoneyPerShareInventoryRowValue@@UEBA_NXZ 0000000180006348     TakionGui:TakionGui.dll
 0002:00000350       __imp_?UpdateValue@AccountMoneyPerShareInventoryRowValue@@UEAA_NXZ 0000000180006350     TakionGui:TakionGui.dll
 0002:00000358       __imp_?isValueChanged@AccountMoneyPerShareInventoryRowValue@@UEBA_NXZ 0000000180006358     TakionGui:TakionGui.dll
 0002:00000360       __imp_?CompareAhead@AccountMoneyPerShareInventoryRowValue@@UEBAFAEBVRowValue@@@Z 0000000180006360     TakionGui:TakionGui.dll
 0002:00000368       __imp_?InitializeValue@AccountMoneyPerShareInventoryRowValue@@MEAAXXZ 0000000180006368     TakionGui:TakionGui.dll
 0002:00000370       __imp_?CanBeNegative@?$MonetaryUnsignedRowValue@VPrice@@@@MEBA_NXZ 0000000180006370     TakionGui:TakionGui.dll
 0002:00000378       __imp_?CompareValueToZero@?$TypedUnsignedRowValue@VPrice@@@@UEBAFXZ 0000000180006378     TakionGui:TakionGui.dll
 0002:00000380       __imp_?isValueZero@PositionSecurityUIntDevidedByUIntInventoryRowValue@@UEBA_NXZ 0000000180006380     TakionGui:TakionGui.dll
 0002:00000388       __imp_?isObjectValueZero@PositionSecurityUIntDevidedByUIntInventoryRowValue@@UEBA_NXZ 0000000180006388     TakionGui:TakionGui.dll
 0002:00000390       __imp_?GetSecurityObjectValue@PositionSecurityUIntDevidedByUIntInventoryRowValue@@UEBAAEBIXZ 0000000180006390     TakionGui:TakionGui.dll
 0002:00000398       __imp_?UpdateValue@PositionSecurityUIntDevidedByUIntInventoryRowValue@@UEAA_NXZ 0000000180006398     TakionGui:TakionGui.dll
 0002:000003a0       __imp_?SetValue@?$TypedNumericRowValue@VPrice@@@@UEAA_NAEBVPrice@@@Z 00000001800063a0     TakionGui:TakionGui.dll
 0002:000003a8       __imp_?CompareToZero@?$TypedNumericRowValue@VPrice@@@@UEBAFAEBVSignedPrice@@@Z 00000001800063a8     TakionGui:TakionGui.dll
 0002:000003b0       __imp_?InitValue@?$TypedRowValue@VPrice@@@@UEAAXXZ 00000001800063b0     TakionGui:TakionGui.dll
 0002:000003b8       __imp_?InitializeValue@?$TypedRowValue@VPrice@@@@MEAAXXZ 00000001800063b8     TakionGui:TakionGui.dll
 0002:000003c0       __imp_?GetObjectValue@?$TypedRowValue@VPrice@@@@UEBAAEBVPrice@@XZ 00000001800063c0     TakionGui:TakionGui.dll
 0002:000003c8       __imp_?isValueChanged@PositionSecurityUIntDevidedByUIntInventoryRowValue@@UEBA_NXZ 00000001800063c8     TakionGui:TakionGui.dll
 0002:000003d0       __imp_?toString@PriceRowValue@@UEBAXAEAV?$basic_string@DU?$char_traits@D@std@@V?$allocator@D@2@@std@@@Z 00000001800063d0     TakionGui:TakionGui.dll
 0002:000003d8       __imp_?isValueEmpty@?$TypedRowValue@VPrice@@@@UEBA_NXZ 00000001800063d8     TakionGui:TakionGui.dll
 0002:000003e0       __imp_?Compare@?$TypedRowValue@VPrice@@@@UEBAFAEBVRowValue@@@Z 00000001800063e0     TakionGui:TakionGui.dll
 0002:000003e8       __imp_?CompareValue@?$TypedRowValue@VPrice@@@@UEBAFAEBVPrice@@@Z 00000001800063e8     TakionGui:TakionGui.dll
 0002:000003f0       __imp_?CompareAhead@PositionSecurityUIntDevidedByUIntInventoryRowValue@@UEBAFAEBVRowValue@@@Z 00000001800063f0     TakionGui:TakionGui.dll
 0002:000003f8       __imp_?isObjectValueEmpty@?$TypedRowValue@VPrice@@@@UEBA_NXZ 00000001800063f8     TakionGui:TakionGui.dll
 0002:00000400       __imp_?NullifyTick@?$TypedNumericRowValue@VPrice@@@@UEAAXXZ 0000000180006400     TakionGui:TakionGui.dll
 0002:00000408       __imp_?NullifyLastDiff@?$TypedNumericRowValue@VPrice@@@@UEBAXXZ 0000000180006408     TakionGui:TakionGui.dll
 0002:00000410       __imp_?Add@?$TypedNumericRowValue@VPrice@@@@UEAA_NAEBVRowValue@@@Z 0000000180006410     TakionGui:TakionGui.dll
 0002:00000418       __imp_?Subtract@?$TypedNumericRowValue@VPrice@@@@UEAA_NAEBVRowValue@@@Z 0000000180006418     TakionGui:TakionGui.dll
 0002:00000420       __imp_?Adjust@?$TypedUnsignedRowValue@VPrice@@@@UEAA_NAEBVRowValue@@@Z 0000000180006420     TakionGui:TakionGui.dll
 0002:00000428       __imp_?Reset@?$TypedNumericRowValue@VPrice@@@@UEAAXXZ 0000000180006428     TakionGui:TakionGui.dll
 0002:00000430       __imp_?GetTickMillisecond@?$TypedNumericRowValue@VPrice@@@@UEBAIXZ 0000000180006430     TakionGui:TakionGui.dll
 0002:00000438       __imp_?GetPriceValue@PriceRowValue@@UEBA?AVPrice@@XZ 0000000180006438     TakionGui:TakionGui.dll
 0002:00000440       __imp_?SetPosition@PositionSecurityUIntDevidedByUIntInventoryRowValue@@UEAAXPEBVPositionData@@@Z 0000000180006440     TakionGui:TakionGui.dll
 0002:00000448       __imp_?isComma@?$CommaUnsignedRowValue@VPrice@@@@UEBAPEB_NXZ 0000000180006448     TakionGui:TakionGui.dll
 0002:00000450       __imp_?SetComma@?$CommaUnsignedRowValue@VPrice@@@@UEAAXPEB_N@Z 0000000180006450     TakionGui:TakionGui.dll
 0002:00000458       __imp_?GetDecDigits@?$DecUnsignedRowValue@VPrice@@@@UEBAPEBEXZ 0000000180006458     TakionGui:TakionGui.dll
 0002:00000460       __imp_?SetDecDigits@?$DecUnsignedRowValue@VPrice@@@@UEAAXPEBE@Z 0000000180006460     TakionGui:TakionGui.dll
 0002:00000468       __imp_?isTruncate@?$DecUnsignedRowValue@VPrice@@@@UEBAPEB_NXZ 0000000180006468     TakionGui:TakionGui.dll
 0002:00000470       __imp_?SetTruncate@?$DecUnsignedRowValue@VPrice@@@@UEAAXPEB_N@Z 0000000180006470     TakionGui:TakionGui.dll
 0002:00000478       __imp_?GetObjectValueCopy@?$TypedRowValue@VPrice@@@@UEBA?AVPrice@@XZ 0000000180006478     TakionGui:TakionGui.dll
 0002:00000480       __imp_?InitializeValue@PositionSecurityUIntDevidedByUIntInventoryRowValue@@MEAAXXZ 0000000180006480     TakionGui:TakionGui.dll
 0002:00000488       __imp_?CalculateTick@?$TypedUnsignedRowValue@VPrice@@@@MEAAXAEBVPrice@@AEAVSignedPrice@@@Z 0000000180006488     TakionGui:TakionGui.dll
 0002:00000490       __imp_??1PositionSecurityUIntDevidedByUIntAlternateInventoryRowValue@@UEAA@XZ 0000000180006490     TakionGui:TakionGui.dll
 0002:00000498       __imp_?GetSecurityObjectValue@PositionSecurityUIntDevidedByUIntAlternateInventoryRowValue@@UEBAAEBIXZ 0000000180006498     TakionGui:TakionGui.dll
 0002:000004a0       __imp_??1PositionUIntRowValueNull@@UEAA@XZ 00000001800064a0     TakionGui:TakionGui.dll
 0002:000004a8       __imp_?isValueChanged@PositionUIntRowValueNull@@UEBA_NXZ 00000001800064a8     TakionGui:TakionGui.dll
 0002:000004b0       __imp_?isValueEmpty@PositionUIntRowValueNull@@UEBA_NXZ 00000001800064b0     TakionGui:TakionGui.dll
 0002:000004b8       __imp_?isObjectValueEmpty@PositionUIntRowValueNull@@UEBA_NXZ 00000001800064b8     TakionGui:TakionGui.dll
 0002:000004c0       __imp_?SetPosition@PositionUIntRowValue@@UEAAXPEBVPositionData@@@Z 00000001800064c0     TakionGui:TakionGui.dll
 0002:000004c8       __imp_?GetObjectValue@PositionUIntRowValueNull@@UEBAAEBIXZ 00000001800064c8     TakionGui:TakionGui.dll
 0002:000004d0       __imp_?SetValue@PositionUIntRowValueNull@@UEAA_NAEBI@Z 00000001800064d0     TakionGui:TakionGui.dll
 0002:000004d8       __imp_?InitializeValue@PositionUIntRowValueNull@@MEAAXXZ 00000001800064d8     TakionGui:TakionGui.dll
 0002:000004e0       __imp_??1PositionSecurityUIntRowValue@@UEAA@XZ 00000001800064e0     TakionGui:TakionGui.dll
 0002:000004e8       __imp_?GetObjectValue@PositionSecurityUIntRowValue@@UEBAAEBIXZ 00000001800064e8     TakionGui:TakionGui.dll
 0002:000004f0       __imp_??1PositionSecurityPriceRowValue@@UEAA@XZ 00000001800064f0     TakionGui:TakionGui.dll
 0002:000004f8       __imp_?isValueZero@?$TypedNumericRowValue@VPrice@@@@UEBA_NXZ 00000001800064f8     TakionGui:TakionGui.dll
 0002:00000500       __imp_?isObjectValueZero@?$TypedNumericRowValue@VPrice@@@@UEBA_NXZ 0000000180006500     TakionGui:TakionGui.dll
 0002:00000508       __imp_?UpdateValue@?$TypedRowValue@VPrice@@@@UEAA_NXZ 0000000180006508     TakionGui:TakionGui.dll
 0002:00000510       __imp_?isValueChanged@?$TypedRowValue@VPrice@@@@UEBA_NXZ 0000000180006510     TakionGui:TakionGui.dll
 0002:00000518       __imp_?CompareAhead@?$TypedRowValue@VPrice@@@@UEBAFAEBVRowValue@@@Z 0000000180006518     TakionGui:TakionGui.dll
 0002:00000520       __imp_??0PositionSecurityUIntDevidedByUIntInventoryRowValue@@QEAA@AEBQEBVPositionData@@AEBQEBVSecurity@@AEB_NPEB_NPEBE3P81@EBAAEBI2@ZP82@EBAAEBIXZAEBI2@Z 0000000180006520     TakionGui:TakionGui.dll
 0002:00000528       __imp_??1PositionSecurityIntByIntDivision@@UEAA@XZ 0000000180006528     TakionGui:TakionGui.dll
 0002:00000530       __imp_?isValueZero@PositionSecurityIntByIntDivision@@UEBA_NXZ 0000000180006530     TakionGui:TakionGui.dll
 0002:00000538       __imp_?isObjectValueZero@PositionSecurityIntByIntDivision@@UEBA_NXZ 0000000180006538     TakionGui:TakionGui.dll
 0002:00000540       __imp_?UpdateValue@PositionSecurityIntByIntDivision@@UEAA_NXZ 0000000180006540     TakionGui:TakionGui.dll
 0002:00000548       __imp_?isValueChanged@PositionSecurityIntByIntDivision@@UEBA_NXZ 0000000180006548     TakionGui:TakionGui.dll
 0002:00000550       __imp_?CompareAhead@PositionSecurityIntByIntDivision@@UEBAFAEBVRowValue@@@Z 0000000180006550     TakionGui:TakionGui.dll
 0002:00000558       __imp_?InitializeValue@PositionSecurityIntByIntDivision@@MEAAXXZ 0000000180006558     TakionGui:TakionGui.dll
 0002:00000560       __imp_??1PositionSecurityUCharAsCharOrdinalRowValue@@UEAA@XZ 0000000180006560     TakionGui:TakionGui.dll
 0002:00000568       __imp_?CanBeNegative@?$TypedUnsignedRowValue@E@@UEBA_NXZ 0000000180006568     TakionGui:TakionGui.dll
 0002:00000570       __imp_?CompareValueToZero@?$TypedUnsignedRowValue@E@@UEBAFXZ 0000000180006570     TakionGui:TakionGui.dll
 0002:00000578       __imp_?isValueZero@?$TypedNumericRowValue@E@@UEBA_NXZ 0000000180006578     TakionGui:TakionGui.dll
 0002:00000580       __imp_?isObjectValueZero@?$TypedNumericRowValue@E@@UEBA_NXZ 0000000180006580     TakionGui:TakionGui.dll
 0002:00000588       __imp_?UpdateValue@?$TypedRowValue@E@@UEAA_NXZ 0000000180006588     TakionGui:TakionGui.dll
 0002:00000590       __imp_?InitValue@?$TypedRowValue@E@@UEAAXXZ 0000000180006590     TakionGui:TakionGui.dll
 0002:00000598       __imp_?InitializeValue@?$TypedRowValue@E@@MEAAXXZ 0000000180006598     TakionGui:TakionGui.dll
 0002:000005a0       __imp_?isValueChanged@?$TypedRowValue@E@@UEBA_NXZ 00000001800065a0     TakionGui:TakionGui.dll
 0002:000005a8       __imp_?toString@UCharAsCharRowValue@@UEBAXAEAV?$basic_string@DU?$char_traits@D@std@@V?$allocator@D@2@@std@@@Z 00000001800065a8     TakionGui:TakionGui.dll
 0002:000005b0       __imp_?isValueEmpty@?$TypedRowValue@E@@UEBA_NXZ 00000001800065b0     TakionGui:TakionGui.dll
 0002:000005b8       __imp_?Compare@?$TypedRowValue@E@@UEBAFAEBVRowValue@@@Z 00000001800065b8     TakionGui:TakionGui.dll
 0002:000005c0       __imp_?CompareValue@?$TypedRowValue@E@@UEBAFAEBE@Z 00000001800065c0     TakionGui:TakionGui.dll
 0002:000005c8       __imp_?CompareAhead@?$TypedRowValue@E@@UEBAFAEBVRowValue@@@Z 00000001800065c8     TakionGui:TakionGui.dll
 0002:000005d0       __imp_?isObjectValueEmpty@?$TypedRowValue@E@@UEBA_NXZ 00000001800065d0     TakionGui:TakionGui.dll
 0002:000005d8       __imp_?NullifyTick@?$TypedNumericRowValue@E@@UEAAXXZ 00000001800065d8     TakionGui:TakionGui.dll
 0002:000005e0       __imp_?NullifyLastDiff@?$TypedNumericRowValue@E@@UEBAXXZ 00000001800065e0     TakionGui:TakionGui.dll
 0002:000005e8       __imp_?Add@?$TypedNumericRowValue@E@@UEAA_NAEBVRowValue@@@Z 00000001800065e8     TakionGui:TakionGui.dll
 0002:000005f0       __imp_?CompareToZero@?$TypedNumericRowValue@E@@UEBAFAEBC@Z 00000001800065f0     TakionGui:TakionGui.dll
 0002:000005f8       __imp_?Subtract@?$TypedNumericRowValue@E@@UEAA_NAEBVRowValue@@@Z 00000001800065f8     TakionGui:TakionGui.dll
 0002:00000600       __imp_?Adjust@?$TypedUnsignedRowValue@E@@UEAA_NAEBVRowValue@@@Z 0000000180006600     TakionGui:TakionGui.dll
 0002:00000608       __imp_?Reset@?$TypedNumericRowValue@E@@UEAAXXZ 0000000180006608     TakionGui:TakionGui.dll
 0002:00000610       __imp_?GetTickMillisecond@?$TypedNumericRowValue@E@@UEBAIXZ 0000000180006610     TakionGui:TakionGui.dll
 0002:00000618       __imp_?isComma@RowValue@@UEBAPEB_NXZ 0000000180006618     TakionGui:TakionGui.dll
 0002:00000620       __imp_?SetComma@RowValue@@UEAAXPEB_N@Z 0000000180006620     TakionGui:TakionGui.dll
 0002:00000628       __imp_?GetObjectValue@PositionSecurityUCharAsCharOrdinalRowValue@@UEBAAEBEXZ 0000000180006628     TakionGui:TakionGui.dll
 0002:00000630       __imp_?GetObjectValueCopy@?$TypedRowValue@E@@UEBAEXZ 0000000180006630     TakionGui:TakionGui.dll
 0002:00000638       __imp_?SetValue@UCharAsCharRowValue@@UEAA_NAEBE@Z 0000000180006638     TakionGui:TakionGui.dll
 0002:00000640       __imp_?CalculateTick@?$TypedUnsignedRowValue@E@@MEAAXAEBEAEAC@Z 0000000180006640     TakionGui:TakionGui.dll
 0002:00000648       __imp_??1PositionMoneyPerShareInventoryRowValue@@UEAA@XZ 0000000180006648     TakionGui:TakionGui.dll
 0002:00000650       __imp_?isObjectValueZero@PositionMoneyPerShareInventoryRowValue@@UEBA_NXZ 0000000180006650     TakionGui:TakionGui.dll
 0002:00000658       __imp_?UpdateValue@PositionMoneyPerShareInventoryRowValue@@UEAA_NXZ 0000000180006658     TakionGui:TakionGui.dll
 0002:00000660       __imp_?isValueChanged@PositionMoneyPerShareInventoryRowValue@@UEBA_NXZ 0000000180006660     TakionGui:TakionGui.dll
 0002:00000668       __imp_?CompareAhead@PositionMoneyPerShareInventoryRowValue@@UEBAFAEBVRowValue@@@Z 0000000180006668     TakionGui:TakionGui.dll
 0002:00000670       __imp_?SetPosition@PositionMoneyInventoryVRowValue@@UEAAXPEBVPositionData@@@Z 0000000180006670     TakionGui:TakionGui.dll
 0002:00000678       __imp_?InitializeValue@PositionMoneyPerShareInventoryRowValue@@MEAAXXZ 0000000180006678     TakionGui:TakionGui.dll
 0002:00000680       __imp_??1SecurityPriceXIntAbs@@UEAA@XZ 0000000180006680     TakionGui:TakionGui.dll
 0002:00000688       __imp_?CanBeNegative@SecurityPriceXIntAbs@@UEBA_NXZ 0000000180006688     TakionGui:TakionGui.dll
 0002:00000690       __imp_?isObjectValueZero@SecurityPriceXInt@@UEBA_NXZ 0000000180006690     TakionGui:TakionGui.dll
 0002:00000698       __imp_?UpdateValue@SecurityPriceXInt@@UEAA_NXZ 0000000180006698     TakionGui:TakionGui.dll
 0002:000006a0       __imp_?isValueChanged@SecurityPriceXInt@@UEBA_NXZ 00000001800066a0     TakionGui:TakionGui.dll
 0002:000006a8       __imp_?CompareAhead@SecurityPriceXInt@@UEBAFAEBVRowValue@@@Z 00000001800066a8     TakionGui:TakionGui.dll
 0002:000006b0       __imp_?SetSecurity@SecurityPriceXInt@@UEAAXPEBVSecurity@@@Z 00000001800066b0     TakionGui:TakionGui.dll
 0002:000006b8       __imp_?InitializeValue@SecurityPriceXInt@@MEAAXXZ 00000001800066b8     TakionGui:TakionGui.dll
 0002:000006c0       __imp_?CalculateNumber@SecurityPriceXIntAbs@@UEBAHAEBH@Z 00000001800066c0     TakionGui:TakionGui.dll
 0002:000006c8       __imp_??1SecurityIntByIntDivisionFraction@@UEAA@XZ 00000001800066c8     TakionGui:TakionGui.dll
 0002:000006d0       __imp_?isValueZero@SecurityIntByIntDivision@@UEBA_NXZ 00000001800066d0     TakionGui:TakionGui.dll
 0002:000006d8       __imp_?isObjectValueZero@SecurityIntByIntDivision@@UEBA_NXZ 00000001800066d8     TakionGui:TakionGui.dll
 0002:000006e0       __imp_?UpdateValue@SecurityIntByIntDivisionFraction@@UEAA_NXZ 00000001800066e0     TakionGui:TakionGui.dll
 0002:000006e8       __imp_?isValueChanged@SecurityIntByIntDivision@@UEBA_NXZ 00000001800066e8     TakionGui:TakionGui.dll
 0002:000006f0       __imp_?CompareAhead@SecurityIntByIntDivisionFraction@@UEBAFAEBVRowValue@@@Z 00000001800066f0     TakionGui:TakionGui.dll
 0002:000006f8       __imp_?SetSecurity@SecurityIntByIntDivision@@UEAAXPEBVSecurity@@@Z 00000001800066f8     TakionGui:TakionGui.dll
 0002:00000700       __imp_?InitializeValue@SecurityIntByIntDivisionFraction@@MEAAXXZ 0000000180006700     TakionGui:TakionGui.dll
 0002:00000708       __imp_??1SecurityUIntByIntDivisionFraction@@UEAA@XZ 0000000180006708     TakionGui:TakionGui.dll
 0002:00000710       __imp_?CanBeNegative@SecurityUIntByIntDivision@@UEBA_NXZ 0000000180006710     TakionGui:TakionGui.dll
 0002:00000718       __imp_?isValueZero@SecurityUIntByIntDivisionNegative@@UEBA_NXZ 0000000180006718     TakionGui:TakionGui.dll
 0002:00000720       __imp_?isObjectValueZero@SecurityUIntByIntDivisionNegative@@UEBA_NXZ 0000000180006720     TakionGui:TakionGui.dll
 0002:00000728       __imp_?UpdateValue@SecurityUIntByIntDivisionNegative@@UEAA_NXZ 0000000180006728     TakionGui:TakionGui.dll
 0002:00000730       __imp_?isValueChanged@SecurityUIntByIntDivisionNegative@@UEBA_NXZ 0000000180006730     TakionGui:TakionGui.dll
 0002:00000738       __imp_?CompareAhead@SecurityUIntByIntDivisionNegative@@UEBAFAEBVRowValue@@@Z 0000000180006738     TakionGui:TakionGui.dll
 0002:00000740       __imp_?SetSecurity@SecurityUIntByIntDivisionNegative@@UEAAXPEBVSecurity@@@Z 0000000180006740     TakionGui:TakionGui.dll
 0002:00000748       __imp_?InitializeValue@SecurityUIntByIntDivisionNegative@@MEAAXXZ 0000000180006748     TakionGui:TakionGui.dll
 0002:00000750       __imp_?CalculateValue@SecurityUIntByIntDivisionFraction@@UEBA?AVMoney@@XZ 0000000180006750     TakionGui:TakionGui.dll
 0002:00000758       __imp_?DeriveValue@SecurityUIntByIntDivisionFraction@@UEBA?AVMoney@@XZ 0000000180006758     TakionGui:TakionGui.dll
 0002:00000760       __imp_??1SecurityPriceRowValueDiffAbs@@UEAA@XZ 0000000180006760     TakionGui:TakionGui.dll
 0002:00000768       __imp_?CanBeNegative@SecurityPriceRowValueDiffAbs@@UEBA_NXZ 0000000180006768     TakionGui:TakionGui.dll
 0002:00000770       __imp_?CompareValueToZero@?$TypedNumericRowValue@VSignedPrice@@@@UEBAFXZ 0000000180006770     TakionGui:TakionGui.dll
 0002:00000778       __imp_?isValueZero@SecurityPriceRowValueDiff@@UEBA_NXZ 0000000180006778     TakionGui:TakionGui.dll
 0002:00000780       __imp_?isObjectValueZero@SecurityPriceRowValueDiff@@UEBA_NXZ 0000000180006780     TakionGui:TakionGui.dll
 0002:00000788       __imp_?UpdateValue@SecurityPriceRowValueDiff@@UEAA_NXZ 0000000180006788     TakionGui:TakionGui.dll
 0002:00000790       __imp_?SetValue@?$TypedNumericRowValue@VSignedPrice@@@@UEAA_NAEBVSignedPrice@@@Z 0000000180006790     TakionGui:TakionGui.dll
 0002:00000798       __imp_?CompareToZero@?$TypedNumericRowValue@VSignedPrice@@@@UEBAFAEBVSignedPrice@@@Z 0000000180006798     TakionGui:TakionGui.dll
 0002:000007a0       __imp_?CalculateTick@?$TypedNumericRowValue@VSignedPrice@@@@MEAAXAEBVSignedPrice@@AEAV2@@Z 00000001800067a0     TakionGui:TakionGui.dll
 0002:000007a8       __imp_?InitValue@?$TypedRowValue@VSignedPrice@@@@UEAAXXZ 00000001800067a8     TakionGui:TakionGui.dll
 0002:000007b0       __imp_?GetObjectValue@?$TypedRowValue@VSignedPrice@@@@UEBAAEBVSignedPrice@@XZ 00000001800067b0     TakionGui:TakionGui.dll
 0002:000007b8       __imp_?isValueChanged@SecurityPriceRowValueDiff@@UEBA_NXZ 00000001800067b8     TakionGui:TakionGui.dll
 0002:000007c0       __imp_?toString@SignedPriceRowValue@@UEBAXAEAV?$basic_string@DU?$char_traits@D@std@@V?$allocator@D@2@@std@@@Z 00000001800067c0     TakionGui:TakionGui.dll
 0002:000007c8       __imp_?isValueEmpty@?$TypedRowValue@VSignedPrice@@@@UEBA_NXZ 00000001800067c8     TakionGui:TakionGui.dll
 0002:000007d0       __imp_?Compare@?$TypedRowValue@VSignedPrice@@@@UEBAFAEBVRowValue@@@Z 00000001800067d0     TakionGui:TakionGui.dll
 0002:000007d8       __imp_?CompareValue@?$TypedRowValue@VSignedPrice@@@@UEBAFAEBVSignedPrice@@@Z 00000001800067d8     TakionGui:TakionGui.dll
 0002:000007e0       __imp_?CompareAhead@SecurityPriceRowValueDiff@@UEBAFAEBVRowValue@@@Z 00000001800067e0     TakionGui:TakionGui.dll
 0002:000007e8       __imp_?isObjectValueEmpty@?$TypedRowValue@VSignedPrice@@@@UEBA_NXZ 00000001800067e8     TakionGui:TakionGui.dll
 0002:000007f0       __imp_?NullifyTick@?$TypedNumericRowValue@VSignedPrice@@@@UEAAXXZ 00000001800067f0     TakionGui:TakionGui.dll
 0002:000007f8       __imp_?NullifyLastDiff@?$TypedNumericRowValue@VSignedPrice@@@@UEBAXXZ 00000001800067f8     TakionGui:TakionGui.dll
 0002:00000800       __imp_??0PositionMoneyPerShareInventoryRowValue@@QEAA@AEBQEBVPositionData@@AEB_NPEB_NPEBE2P81@EBA?AVMoney@@1@ZP81@EBAAEBIXZI_N66@Z 0000000180006800     TakionGui:TakionGui.dll
 0002:00000808       __imp_?Subtract@?$TypedNumericRowValue@VSignedPrice@@@@UEAA_NAEBVRowValue@@@Z 0000000180006808     TakionGui:TakionGui.dll
 0002:00000810       __imp_?Adjust@?$TypedNumericRowValue@VSignedPrice@@@@UEAA_NAEBVRowValue@@@Z 0000000180006810     TakionGui:TakionGui.dll
 0002:00000818       __imp_?Reset@?$TypedNumericRowValue@VSignedPrice@@@@UEAAXXZ 0000000180006818     TakionGui:TakionGui.dll
 0002:00000820       __imp_?GetTickMillisecond@?$TypedNumericRowValue@VSignedPrice@@@@UEBAIXZ 0000000180006820     TakionGui:TakionGui.dll
 0002:00000828       __imp_?SetSecurity@SecurityPriceRowValueDiff@@UEAAXPEBVSecurity@@@Z 0000000180006828     TakionGui:TakionGui.dll
 0002:00000830       __imp_?isComma@?$CommaRowValue@VSignedPrice@@@@UEBAPEB_NXZ 0000000180006830     TakionGui:TakionGui.dll
 0002:00000838       __imp_?SetComma@?$CommaRowValue@VSignedPrice@@@@UEAAXPEB_N@Z 0000000180006838     TakionGui:TakionGui.dll
 0002:00000840       __imp_?GetDecDigits@?$DecRowValue@VSignedPrice@@@@UEBAPEBEXZ 0000000180006840     TakionGui:TakionGui.dll
 0002:00000848       __imp_?SetDecDigits@?$DecRowValue@VSignedPrice@@@@UEAAXPEBE@Z 0000000180006848     TakionGui:TakionGui.dll
 0002:00000850       __imp_?isTruncate@?$DecRowValue@VSignedPrice@@@@UEBAPEB_NXZ 0000000180006850     TakionGui:TakionGui.dll
 0002:00000858       __imp_?SetTruncate@?$DecRowValue@VSignedPrice@@@@UEAAXPEB_N@Z 0000000180006858     TakionGui:TakionGui.dll
 0002:00000860       __imp_?GetObjectValueCopy@?$TypedRowValue@VSignedPrice@@@@UEBA?AVSignedPrice@@XZ 0000000180006860     TakionGui:TakionGui.dll
 0002:00000868       __imp_?InitializeValue@SecurityPriceRowValueDiff@@MEAAXXZ 0000000180006868     TakionGui:TakionGui.dll
 0002:00000870       __imp_?DeriveValue@SecurityPriceRowValueDiffAbs@@UEBA?AVSignedPrice@@AEBVPrice@@0@Z 0000000180006870     TakionGui:TakionGui.dll
 0002:00000878       __imp_??1SecurityIntRowValueDiff@@UEAA@XZ 0000000180006878     TakionGui:TakionGui.dll
 0002:00000880       __imp_?CompareValueToZero@?$TypedNumericRowValue@H@@UEBAFXZ 0000000180006880     TakionGui:TakionGui.dll
 0002:00000888       __imp_?isValueZero@SecurityIntRowValueDiff@@UEBA_NXZ 0000000180006888     TakionGui:TakionGui.dll
 0002:00000890       __imp_?isObjectValueZero@SecurityIntRowValueDiff@@UEBA_NXZ 0000000180006890     TakionGui:TakionGui.dll
 0002:00000898       __imp_?UpdateValue@SecurityIntRowValueDiff@@UEAA_NXZ 0000000180006898     TakionGui:TakionGui.dll
 0002:000008a0       __imp_?SetValue@?$TypedNumericRowValue@H@@UEAA_NAEBH@Z 00000001800068a0     TakionGui:TakionGui.dll
 0002:000008a8       __imp_?CompareToZero@?$TypedNumericRowValue@H@@UEBAFAEBH@Z 00000001800068a8     TakionGui:TakionGui.dll
 0002:000008b0       __imp_?CalculateTick@?$TypedNumericRowValue@H@@MEAAXAEBHAEAH@Z 00000001800068b0     TakionGui:TakionGui.dll
 0002:000008b8       __imp_?InitValue@?$TypedRowValue@H@@UEAAXXZ 00000001800068b8     TakionGui:TakionGui.dll
 0002:000008c0       __imp_?GetObjectValue@?$TypedRowValue@H@@UEBAAEBHXZ 00000001800068c0     TakionGui:TakionGui.dll
 0002:000008c8       __imp_?isValueChanged@SecurityIntRowValueDiff@@UEBA_NXZ 00000001800068c8     TakionGui:TakionGui.dll
 0002:000008d0       __imp_?toString@IntRowValue@@UEBAXAEAV?$basic_string@DU?$char_traits@D@std@@V?$allocator@D@2@@std@@@Z 00000001800068d0     TakionGui:TakionGui.dll
 0002:000008d8       __imp_?Compare@?$TypedRowValue@H@@UEBAFAEBVRowValue@@@Z 00000001800068d8     TakionGui:TakionGui.dll
 0002:000008e0       __imp_?CompareValue@?$TypedRowValue@H@@UEBAFAEBH@Z 00000001800068e0     TakionGui:TakionGui.dll
 0002:000008e8       __imp_?CompareAhead@SecurityIntRowValueDiff@@UEBAFAEBVRowValue@@@Z 00000001800068e8     TakionGui:TakionGui.dll
 0002:000008f0       __imp_?isValueEmpty@?$TypedRowValue@H@@UEBA_NXZ 00000001800068f0     TakionGui:TakionGui.dll
 0002:000008f8       __imp_?isObjectValueEmpty@?$TypedRowValue@H@@UEBA_NXZ 00000001800068f8     TakionGui:TakionGui.dll
 0002:00000900       __imp_?NullifyTick@?$TypedNumericRowValue@H@@UEAAXXZ 0000000180006900     TakionGui:TakionGui.dll
 0002:00000908       __imp_?NullifyLastDiff@?$TypedNumericRowValue@H@@UEBAXXZ 0000000180006908     TakionGui:TakionGui.dll
 0002:00000910       __imp_?Add@?$TypedNumericRowValue@H@@UEAA_NAEBVRowValue@@@Z 0000000180006910     TakionGui:TakionGui.dll
 0002:00000918       __imp_?Subtract@?$TypedNumericRowValue@H@@UEAA_NAEBVRowValue@@@Z 0000000180006918     TakionGui:TakionGui.dll
 0002:00000920       __imp_?Adjust@?$TypedNumericRowValue@H@@UEAA_NAEBVRowValue@@@Z 0000000180006920     TakionGui:TakionGui.dll
 0002:00000928       __imp_?Reset@?$TypedNumericRowValue@H@@UEAAXXZ 0000000180006928     TakionGui:TakionGui.dll
 0002:00000930       __imp_?GetTickMillisecond@?$TypedNumericRowValue@H@@UEBAIXZ 0000000180006930     TakionGui:TakionGui.dll
 0002:00000938       __imp_?GetIntValue@IntRowValue@@UEBAHXZ 0000000180006938     TakionGui:TakionGui.dll
 0002:00000940       __imp_?SetSecurity@SecurityIntRowValueDiff@@UEAAXPEBVSecurity@@@Z 0000000180006940     TakionGui:TakionGui.dll
 0002:00000948       __imp_?isComma@?$CommaRowValue@H@@UEBAPEB_NXZ 0000000180006948     TakionGui:TakionGui.dll
 0002:00000950       __imp_?SetComma@?$CommaRowValue@H@@UEAAXPEB_N@Z 0000000180006950     TakionGui:TakionGui.dll
 0002:00000958       __imp_?GetObjectValueCopy@?$TypedRowValue@H@@UEBAHXZ 0000000180006958     TakionGui:TakionGui.dll
 0002:00000960       __imp_?InitializeValue@SecurityIntRowValueDiff@@MEAAXXZ 0000000180006960     TakionGui:TakionGui.dll
 0002:00000968       __imp_TGUI_GetModuleVersionNum 0000000180006968     TakionGui:TakionGui.dll
 0002:00000970       __imp_TGUI_GetTakionMainWnd 0000000180006970     TakionGui:TakionGui.dll
 0002:00000978       __imp_?GetObjectValue@PositionSecurityPriceRowValue@@UEBAAEBVPrice@@XZ 0000000180006978     TakionGui:TakionGui.dll
 0002:00000980       __imp_?ApplyPosition@Row@@QEAAXGPEBVPositionData@@@Z 0000000180006980     TakionGui:TakionGui.dll
 0002:00000988       __imp_?SetPosition@RowValue@@UEAAXPEBVPositionData@@@Z 0000000180006988     TakionGui:TakionGui.dll
 0002:00000990       __imp_?InvalidateCellIfVisible@Columns@@QEBAXAEAVCRect@@G@Z 0000000180006990     TakionGui:TakionGui.dll
 0002:00000998       __imp_?UpdateRowValue@RowSortable@@QEAAXAEBG@Z 0000000180006998     TakionGui:TakionGui.dll
 0002:000009a0       __imp_?AdjustRowValue@RowTotal@@QEAAXPEBVRow@@G@Z 00000001800069a0     TakionGui:TakionGui.dll
 0002:000009a8       __imp_??0MoneyRowValue@@QEAA@PEB_NPEBE0_N22@Z 00000001800069a8     TakionGui:TakionGui.dll
 0002:000009b0       __imp_??0UIntRowValue@@QEAA@PEB_NAEB_N1@Z 00000001800069b0     TakionGui:TakionGui.dll
 0002:000009b8       __imp_??0SecurityPriceXIntAbs@@QEAA@AEBQEBVSecurity@@PEB_NPEBE1P81@EBAAEBVPrice@@XZP81@EBAAEBHXZ_N55@Z 00000001800069b8     TakionGui:TakionGui.dll
 0002:000009c0       __imp_??1MoneyRowValue@@UEAA@XZ 00000001800069c0     TakionGui:TakionGui.dll
 0002:000009c8       __imp_??0SecurityPriceRowValueDiffAbs@@QEAA@AEBQEBVSecurity@@PEB_NPEBE1P81@EBAAEBVPrice@@XZ3_N44@Z 00000001800069c8     TakionGui:TakionGui.dll
 0002:000009d0       __imp_??0SecurityIntByIntDivisionFraction@@QEAA@AEBQEBVSecurity@@PEB_NPEBE1P81@EBAAEBHXZ3_N44@Z 00000001800069d0     TakionGui:TakionGui.dll
 0002:000009d8       __imp_??0SecurityUIntByIntDivisionFraction@@QEAA@AEBQEBVSecurity@@PEB_NPEBE1P81@EBAAEBIXZP81@EBAAEBHXZ_N55@Z 00000001800069d8     TakionGui:TakionGui.dll
 0002:000009e0       __imp_??0PositionUIntRowValueNull@@QEAA@AEBQEBVPositionData@@PEB_NP81@EBAAEBIXZ_N3@Z 00000001800069e0     TakionGui:TakionGui.dll
 0002:000009e8       __imp_??1UIntRowValue@@UEAA@XZ 00000001800069e8     TakionGui:TakionGui.dll
 0002:000009f0       __imp_??0SecurityIntRowValueDiff@@QEAA@AEBQEBVSecurity@@PEB_NP81@EBAAEBHXZ2_N3@Z 00000001800069f0     TakionGui:TakionGui.dll
 0002:000009f8       __imp_?SetValue@?$TypedNumericRowValue@VMoney@@@@UEAA_NAEBVMoney@@@Z 00000001800069f8     TakionGui:TakionGui.dll
 0002:00000a00       __imp_?CompareToZero@?$TypedNumericRowValue@VMoney@@@@UEBAFAEBVMoney@@@Z 0000000180006a00     TakionGui:TakionGui.dll
 0002:00000a08       __imp_?CalculateTick@?$TypedNumericRowValue@VMoney@@@@MEAAXAEBVMoney@@AEAV2@@Z 0000000180006a08     TakionGui:TakionGui.dll
 0002:00000a10       __imp_??0PositionSecurityIntByIntDivision@@QEAA@AEBQEBVSecurity@@PEB_NPEBE1P81@EBAAEBHXZ3_N44@Z 0000000180006a10     TakionGui:TakionGui.dll
 0002:00000a18       __imp_??0PositionSecurityPriceRowValue@@QEAA@AEBQEBVSecurity@@PEB_NPEBE1P81@EBAAEBVPrice@@XZ_N4@Z 0000000180006a18     TakionGui:TakionGui.dll
 0002:00000a20       __imp_??0PositionSecurityUIntRowValue@@QEAA@AEBQEBVSecurity@@PEB_NP81@EBAAEBIXZ_N3@Z 0000000180006a20     TakionGui:TakionGui.dll
 0002:00000a28       __imp_??0PositionSecurityUCharAsCharOrdinalRowValue@@QEAA@AEBQEBVSecurity@@P81@EBAAEBEAEBE@Z11_N3@Z 0000000180006a28     TakionGui:TakionGui.dll
 0002:00000a30       __imp_?Add@?$TypedNumericRowValue@VSignedPrice@@@@UEAA_NAEBVRowValue@@@Z 0000000180006a30     TakionGui:TakionGui.dll
 0002:00000a38       \177TakionGui_NULL_THUNK_DATA 0000000180006a38     TakionGui:TakionGui.dll
 0002:00000a40       __imp_TL_GetModuleVersionNum 0000000180006a40     TakionLog:TakionLog.dll
 0002:00000a48       \177TakionLog_NULL_THUNK_DATA 0000000180006a48     TakionLog:TakionLog.dll
 0002:00000a50       __imp_?GetSharesTraded@Account@@QEBAAEBIXZ 0000000180006a50     TakionUtils:TakionUtils.dll
 0002:00000a58       __imp_?GetClosedPnlInv@Account@@QEBA?AVMoney@@AEB_N@Z 0000000180006a58     TakionUtils:TakionUtils.dll
 0002:00000a60       __imp_?GetAbsSizeInv@PositionData@@QEBAAEBIAEB_N@Z 0000000180006a60     TakionUtils:TakionUtils.dll
 0002:00000a68       __imp_?GetClosedPnlNetInv@PositionData@@QEBA?AVMoney@@AEB_N@Z 0000000180006a68     TakionUtils:TakionUtils.dll
 0002:00000a70       __imp_?GetSharesTraded@PositionDataBase@@QEBAAEBIXZ 0000000180006a70     TakionUtils:TakionUtils.dll
 0002:00000a78       __imp_?GetClosedPnlInv@PositionData@@QEBA?AVMoney@@AEB_N@Z 0000000180006a78     TakionUtils:TakionUtils.dll
 0002:00000a80       __imp_?GetRegulatoryPairedSharesNyse@Security@@QEBAAEBIXZ 0000000180006a80     TakionUtils:TakionUtils.dll
 0002:00000a88       __imp_?GetClosedPnlNetInv@Account@@QEBA?AVMoney@@AEB_N@Z 0000000180006a88     TakionUtils:TakionUtils.dll
 0002:00000a90       __imp_?GetRegulatoryNearPriceNyse@Security@@QEBAAEBVPrice@@XZ 0000000180006a90     TakionUtils:TakionUtils.dll
 0002:00000a98       __imp_?regularHtb@StockLoanInfo@@2EB 0000000180006a98     TakionUtils:TakionUtils.dll
 0002:00000aa0       __imp_?GetT845ImbalanceSharesNyse@Security@@QEBAAEBHXZ 0000000180006aa0     TakionUtils:TakionUtils.dll
 0002:00000aa8       __imp_?GetT926ImbalanceSharesNyse@Security@@QEBAAEBHXZ 0000000180006aa8     TakionUtils:TakionUtils.dll
 0002:00000ab0       __imp_?GetOpeningImbalanceSharesNyse@Security@@QEBAAEBHXZ 0000000180006ab0     TakionUtils:TakionUtils.dll
 0002:00000ab8       __imp_?GetBorrowSize@PositionDataBase@@QEBAAEBIXZ 0000000180006ab8     TakionUtils:TakionUtils.dll
 0002:00000ac0       __imp_TU_GetModuleVersionNum 0000000180006ac0     TakionUtils:TakionUtils.dll
 0002:00000ac8       __imp_?GetNearPriceNyse@Security@@QEBAAEBVPrice@@XZ 0000000180006ac8     TakionUtils:TakionUtils.dll
 0002:00000ad0       __imp_?GetFarPriceArca@Security@@QEBAAEBVPrice@@XZ 0000000180006ad0     TakionUtils:TakionUtils.dll
 0002:00000ad8       __imp_?GetNearPriceArca@Security@@QEBAAEBVPrice@@XZ 0000000180006ad8     TakionUtils:TakionUtils.dll
 0002:00000ae0       __imp_?GetRegulatoryCurrentReferencePriceNyse@Security@@QEBAAEBVPrice@@XZ 0000000180006ae0     TakionUtils:TakionUtils.dll
 0002:00000ae8       __imp_?GetRegulatoryImbalanceSharesNyse@Security@@QEBAAEBHXZ 0000000180006ae8     TakionUtils:TakionUtils.dll
 0002:00000af0       __imp_?GetCurrentReferencePriceNyse@Security@@QEBAAEBVPrice@@XZ 0000000180006af0     TakionUtils:TakionUtils.dll
 0002:00000af8       __imp_?GetImbalanceSharesNyse@Security@@QEBAAEBHXZ 0000000180006af8     TakionUtils:TakionUtils.dll
 0002:00000b00       __imp_?GetClosePrice@Security@@QEBAAEBVPrice@@XZ 0000000180006b00     TakionUtils:TakionUtils.dll
 0002:00000b08       __imp_?GetInitialImbalanceSharesNyse@Security@@QEBAAEBHXZ 0000000180006b08     TakionUtils:TakionUtils.dll
 0002:00000b10       __imp_?GetPairedSharesNyse@Security@@QEBAAEBIXZ 0000000180006b10     TakionUtils:TakionUtils.dll
 0002:00000b18       \177TakionUtils_NULL_THUNK_DATA 0000000180006b18     TakionUtils:TakionUtils.dll
 0002:00000b20       __imp_U_InitializeInstanceInfo 0000000180006b20     Utils:Utils.dll
 0002:00000b28       __imp_U_VersionStrToNum    0000000180006b28     Utils:Utils.dll
 0002:00000b30       __imp_U_GetModuleVersionNum 0000000180006b30     Utils:Utils.dll
 0002:00000b38       __imp_?moneyZero@Money@@2V1@B 0000000180006b38     Utils:Utils.dll
 0002:00000b40       __imp_??XMoney@@QEAAAEAV0@_J@Z 0000000180006b40     Utils:Utils.dll
 0002:00000b48       __imp_??KMoney@@QEBA?AV0@_J@Z 0000000180006b48     Utils:Utils.dll
 0002:00000b50       \177Utils_NULL_THUNK_DATA  0000000180006b50     Utils:Utils.dll
 0002:00000b58       __imp_memset               0000000180006b58     vcruntime:VCRUNTIME140.dll
 0002:00000b60       __imp___C_specific_handler 0000000180006b60     vcruntime:VCRUNTIME140.dll
 0002:00000b68       __imp___std_type_info_destroy_list 0000000180006b68     vcruntime:VCRUNTIME140.dll
 0002:00000b70       __imp___vcrt_InitializeCriticalSectionEx 0000000180006b70     vcruntime:VCRUNTIME140.dll
 0002:00000b78       __imp___CxxFrameHandler3   0000000180006b78     vcruntime:VCRUNTIME140.dll
 0002:00000b80       \177VCRUNTIME140_NULL_THUNK_DATA 0000000180006b80     vcruntime:VCRUNTIME140.dll
 0002:00000b88       __imp_free                 0000000180006b88     ucrt:api-ms-win-crt-heap-l1-1-0.dll
 0002:00000b90       \177api-ms-win-crt-heap-l1-1-0_NULL_THUNK_DATA 0000000180006b90     ucrt:api-ms-win-crt-heap-l1-1-0.dll
 0002:00000b98       __imp__initterm_e          0000000180006b98     ucrt:api-ms-win-crt-runtime-l1-1-0.dll
 0002:00000ba0       __imp__initterm            0000000180006ba0     ucrt:api-ms-win-crt-runtime-l1-1-0.dll
 0002:00000ba8       __imp__cexit               0000000180006ba8     ucrt:api-ms-win-crt-runtime-l1-1-0.dll
 0002:00000bb0       __imp__crt_atexit          0000000180006bb0     ucrt:api-ms-win-crt-runtime-l1-1-0.dll
 0002:00000bb8       __imp__execute_onexit_table 0000000180006bb8     ucrt:api-ms-win-crt-runtime-l1-1-0.dll
 0002:00000bc0       __imp__register_onexit_function 0000000180006bc0     ucrt:api-ms-win-crt-runtime-l1-1-0.dll
 0002:00000bc8       __imp__initialize_onexit_table 0000000180006bc8     ucrt:api-ms-win-crt-runtime-l1-1-0.dll
 0002:00000bd0       __imp__initialize_narrow_environment 0000000180006bd0     ucrt:api-ms-win-crt-runtime-l1-1-0.dll
 0002:00000bd8       __imp__configure_narrow_argv 0000000180006bd8     ucrt:api-ms-win-crt-runtime-l1-1-0.dll
 0002:00000be0       __imp__seh_filter_dll      0000000180006be0     ucrt:api-ms-win-crt-runtime-l1-1-0.dll
 0002:00000be8       __imp__invalid_parameter_noinfo_noreturn 0000000180006be8     ucrt:api-ms-win-crt-runtime-l1-1-0.dll
 0002:00000bf0       \177api-ms-win-crt-runtime-l1-1-0_NULL_THUNK_DATA 0000000180006bf0     ucrt:api-ms-win-crt-runtime-l1-1-0.dll
 0002:00000bf8       __imp_tolower              0000000180006bf8     ucrt:api-ms-win-crt-string-l1-1-0.dll
 0002:00000c00       \177api-ms-win-crt-string-l1-1-0_NULL_THUNK_DATA 0000000180006c00     ucrt:api-ms-win-crt-string-l1-1-0.dll
 0002:00000c08       __imp_?GetMainWnd@CWinThread@@UEAAPEAVCWnd@@XZ 0000000180006c08     mfc140:mfc140.dll
 0002:00000c10       __imp_?ProcessMessageFilter@CWinThread@@UEAAHHPEAUtagMSG@@@Z 0000000180006c10     mfc140:mfc140.dll
 0002:00000c18       __imp_?ProcessWndProcException@CWinApp@@UEAA_JPEAVCException@@PEBUtagMSG@@@Z 0000000180006c18     mfc140:mfc140.dll
 0002:00000c20       __imp_?IsIdleMessage@CWinThread@@UEAAHPEAUtagMSG@@@Z 0000000180006c20     mfc140:mfc140.dll
 0002:00000c28       __imp_?OnIdle@CWinApp@@UEAAHJ@Z 0000000180006c28     mfc140:mfc140.dll
 0002:00000c30       __imp_?PumpMessage@CWinThread@@UEAAHXZ 0000000180006c30     mfc140:mfc140.dll
 0002:00000c38       __imp_?PreTranslateMessage@CWinThread@@UEAAHPEAUtagMSG@@@Z 0000000180006c38     mfc140:mfc140.dll
 0002:00000c40       __imp_?Run@CWinApp@@UEAAHXZ 0000000180006c40     mfc140:mfc140.dll
 0002:00000c48       __imp_?GetConnectionHook@CCmdTarget@@MEAAPEAUIConnectionPoint@@AEBU_GUID@@@Z 0000000180006c48     mfc140:mfc140.dll
 0002:00000c50       __imp_?GetExtraConnectionPoints@CCmdTarget@@MEAAHPEAVCPtrArray@@@Z 0000000180006c50     mfc140:mfc140.dll
 0002:00000c58       __imp_?GetInterfaceHook@CCmdTarget@@UEAAPEAUIUnknown@@PEBX@Z 0000000180006c58     mfc140:mfc140.dll
 0002:00000c60       __imp_?OnCreateAggregates@CCmdTarget@@UEAAHXZ 0000000180006c60     mfc140:mfc140.dll
 0002:00000c68       __imp_?GetEventSinkMap@CCmdTarget@@MEBAPEBUAFX_EVENTSINKMAP@@XZ 0000000180006c68     mfc140:mfc140.dll
 0002:00000c70       __imp_?GetInterfaceMap@CCmdTarget@@MEBAPEBUAFX_INTERFACEMAP@@XZ 0000000180006c70     mfc140:mfc140.dll
 0002:00000c78       __imp_?GetConnectionMap@CCmdTarget@@MEBAPEBUAFX_CONNECTIONMAP@@XZ 0000000180006c78     mfc140:mfc140.dll
 0002:00000c80       __imp_?WinHelpA@CWinApp@@UEAAX_KI@Z 0000000180006c80     mfc140:mfc140.dll
 0002:00000c88       __imp_?GetCommandMap@CCmdTarget@@MEBAPEBUAFX_OLECMDMAP@@XZ 0000000180006c88     mfc140:mfc140.dll
 0002:00000c90       __imp_?GetMessageMap@CWinApp@@MEBAPEBUAFX_MSGMAP@@XZ 0000000180006c90     mfc140:mfc140.dll
 0002:00000c98       __imp_?GetTypeLib@CCmdTarget@@UEAAJKPEAPEAUITypeLib@@@Z 0000000180006c98     mfc140:mfc140.dll
 0002:00000ca0       __imp_?GetTypeLibCache@CCmdTarget@@UEAAPEAVCTypeLibCache@@XZ 0000000180006ca0     mfc140:mfc140.dll
 0002:00000ca8       __imp_?Delete@CWinThread@@UEAAXXZ 0000000180006ca8     mfc140:mfc140.dll
 0002:00000cb0       __imp_?GetDispatchIID@CCmdTarget@@UEAAHPEAU_GUID@@@Z 0000000180006cb0     mfc140:mfc140.dll
 0002:00000cb8       __imp_?IsInvokeAllowed@CCmdTarget@@UEAAHJ@Z 0000000180006cb8     mfc140:mfc140.dll
 0002:00000cc0       __imp_?OnFinalRelease@CCmdTarget@@UEAAXXZ 0000000180006cc0     mfc140:mfc140.dll
 0002:00000cc8       __imp_?OnCmdMsg@CCmdTarget@@UEAAHIHPEAXPEAUAFX_CMDHANDLERINFO@@@Z 0000000180006cc8     mfc140:mfc140.dll
 0002:00000cd0       __imp_?GetRuntimeClass@CWinApp@@UEBAPEAUCRuntimeClass@@XZ 0000000180006cd0     mfc140:mfc140.dll
 0002:00000cd8       __imp_?ExitInstance@CWinApp@@UEAAHXZ 0000000180006cd8     mfc140:mfc140.dll
 0002:00000ce0       __imp_?InitInstance@CWinApp@@UEAAHXZ 0000000180006ce0     mfc140:mfc140.dll
 0002:00000ce8       __imp_??0CWinApp@@QEAA@PEBD@Z 0000000180006ce8     mfc140:mfc140.dll
 0002:00000cf0       __imp_??1CWinApp@@UEAA@XZ  0000000180006cf0     mfc140:mfc140.dll
 0002:00000cf8       __imp_??2@YAPEAX_K@Z       0000000180006cf8     mfc140:mfc140.dll
 0002:00000d00       __imp_??3@YAXPEAX@Z        0000000180006d00     mfc140:mfc140.dll
 0002:00000d08       __imp_?HtmlHelpA@CWinApp@@UEAAX_KI@Z 0000000180006d08     mfc140:mfc140.dll
 0002:00000d10       __imp_?WinHelpInternal@CWinApp@@UEAAX_KI@Z 0000000180006d10     mfc140:mfc140.dll
 0002:00000d18       __imp_?LoadSysPolicies@CWinApp@@UEAAHXZ 0000000180006d18     mfc140:mfc140.dll
 0002:00000d20       __imp_?LoadAppLangResourceDLL@CWinApp@@UEAAPEAUHINSTANCE__@@XZ 0000000180006d20     mfc140:mfc140.dll
 0002:00000d28       __imp_?RestartInstance@CWinApp@@UEAAHXZ 0000000180006d28     mfc140:mfc140.dll
 0002:00000d30       __imp_?IsTaskbarInteractionEnabled@CWinApp@@UEAAHXZ 0000000180006d30     mfc140:mfc140.dll
 0002:00000d38       __imp_?GetDataRecoveryHandler@CWinApp@@UEAAPEAVCDataRecoveryHandler@@XZ 0000000180006d38     mfc140:mfc140.dll
 0002:00000d40       __imp_?GetProfileIntA@CWinApp@@UEAAIPEBD0H@Z 0000000180006d40     mfc140:mfc140.dll
 0002:00000d48       __imp_?WriteProfileInt@CWinApp@@UEAAHPEBD0H@Z 0000000180006d48     mfc140:mfc140.dll
 0002:00000d50       __imp_?ApplicationRecoveryCallback@CWinApp@@UEAAKPEAX@Z 0000000180006d50     mfc140:mfc140.dll
 0002:00000d58       __imp_?GetProfileStringA@CWinApp@@UEAA?AV?$CStringT@DV?$StrTraitMFC_DLL@DV?$ChTraitsCRT@D@ATL@@@@@ATL@@PEBD00@Z 0000000180006d58     mfc140:mfc140.dll
 0002:00000d60       __imp_?WriteProfileStringA@CWinApp@@UEAAHPEBD00@Z 0000000180006d60     mfc140:mfc140.dll
 0002:00000d68       __imp_?GetProfileBinary@CWinApp@@UEAAHPEBD0PEAPEAEPEAI@Z 0000000180006d68     mfc140:mfc140.dll
 0002:00000d70       __imp_?WriteProfileBinary@CWinApp@@UEAAHPEBD0PEAEI@Z 0000000180006d70     mfc140:mfc140.dll
 0002:00000d78       __imp_?InitLibId@CWinApp@@UEAAXXZ 0000000180006d78     mfc140:mfc140.dll
 0002:00000d80       __imp_?Register@CWinApp@@UEAAHXZ 0000000180006d80     mfc140:mfc140.dll
 0002:00000d88       __imp_?Unregister@CWinApp@@UEAAHXZ 0000000180006d88     mfc140:mfc140.dll
 0002:00000d90       __imp_?OpenDocumentFile@CWinApp@@UEAAPEAVCDocument@@PEBDH@Z 0000000180006d90     mfc140:mfc140.dll
 0002:00000d98       __imp_?OpenDocumentFile@CWinApp@@UEAAPEAVCDocument@@PEBD@Z 0000000180006d98     mfc140:mfc140.dll
 0002:00000da0       __imp_?AddToRecentFileList@CWinApp@@UEAAXPEBD@Z 0000000180006da0     mfc140:mfc140.dll
 0002:00000da8       __imp_?InitApplication@CWinApp@@UEAAHXZ 0000000180006da8     mfc140:mfc140.dll
 0002:00000db0       __imp_?SaveAllModified@CWinApp@@UEAAHXZ 0000000180006db0     mfc140:mfc140.dll
 0002:00000db8       __imp_?DoMessageBox@CWinApp@@UEAAHPEBDII@Z 0000000180006db8     mfc140:mfc140.dll
 0002:00000dc0       __imp_?DoWaitCursor@CWinApp@@UEAAXH@Z 0000000180006dc0     mfc140:mfc140.dll
 0002:00000dc8       __imp_?RegisterWithRestartManager@CWinApp@@UEAAJHAEBV?$CStringT@DV?$StrTraitMFC_DLL@DV?$ChTraitsCRT@D@ATL@@@@@ATL@@@Z 0000000180006dc8     mfc140:mfc140.dll
 0002:00000dd0       __imp_?GetTypeInfoCount@CCmdTarget@@UEAAIXZ 0000000180006dd0     mfc140:mfc140.dll
 0002:00000dd8       __imp_?OnDDECommand@CWinApp@@UEAAHPEAD@Z 0000000180006dd8     mfc140:mfc140.dll
 0002:00000de0       __imp_?GetDispatchMap@CCmdTarget@@MEBAPEBUAFX_DISPMAP@@XZ 0000000180006de0     mfc140:mfc140.dll
 0002:00000de8       __imp_?Delete@CException@@QEAAXXZ 0000000180006de8     mfc140:mfc140.dll
 0002:00000df0       __imp_??3CNoTrackObject@@SAXPEAX@Z 0000000180006df0     mfc140:mfc140.dll
 0002:00000df8       __imp_??0AFX_MODULE_STATE@@QEAA@HP6A_JPEAUHWND__@@I_K_J@ZKH@Z 0000000180006df8     mfc140:mfc140.dll
 0002:00000e00       __imp_??1AFX_MODULE_STATE@@UEAA@XZ 0000000180006e00     mfc140:mfc140.dll
 0002:00000e08       __imp_?AfxSetModuleState@@YAPEAVAFX_MODULE_STATE@@PEAV1@@Z 0000000180006e08     mfc140:mfc140.dll
 0002:00000e10       __imp_?AfxGetModuleState@@YAPEAVAFX_MODULE_STATE@@XZ 0000000180006e10     mfc140:mfc140.dll
 0002:00000e18       __imp_??0AFX_MAINTAIN_STATE2@@QEAA@PEAVAFX_MODULE_STATE@@@Z 0000000180006e18     mfc140:mfc140.dll
 0002:00000e20       __imp_??1AFX_MAINTAIN_STATE2@@QEAA@XZ 0000000180006e20     mfc140:mfc140.dll
 0002:00000e28       __imp_?AfxWinInit@@YAHPEAUHINSTANCE__@@0PEADH@Z 0000000180006e28     mfc140:mfc140.dll
 0002:00000e30       __imp_?AfxWndProc@@YA_JPEAUHWND__@@I_K_J@Z 0000000180006e30     mfc140:mfc140.dll
 0002:00000e38       __imp_?AfxTermThread@@YAXPEAUHINSTANCE__@@@Z 0000000180006e38     mfc140:mfc140.dll
 0002:00000e40       __imp_?AfxWinTerm@@YAXXZ   0000000180006e40     mfc140:mfc140.dll
 0002:00000e48       __imp_??0CDynLinkLibrary@@QEAA@AEAUAFX_EXTENSION_MODULE@@H@Z 0000000180006e48     mfc140:mfc140.dll
 0002:00000e50       __imp_?AfxInitExtensionModule@@YAHAEAUAFX_EXTENSION_MODULE@@PEAUHINSTANCE__@@@Z 0000000180006e50     mfc140:mfc140.dll
 0002:00000e58       __imp_?AfxTermExtensionModule@@YAXAEAUAFX_EXTENSION_MODULE@@H@Z 0000000180006e58     mfc140:mfc140.dll
 0002:00000e60       __imp_?AfxCoreInitModule@@YAXXZ 0000000180006e60     mfc140:mfc140.dll
 0002:00000e68       __imp_?AfxLockTempMaps@@YAXXZ 0000000180006e68     mfc140:mfc140.dll
 0002:00000e70       __imp_?AfxUnlockTempMaps@@YAHH@Z 0000000180006e70     mfc140:mfc140.dll
 0002:00000e78       __imp_?RegisterWithRestartManager@CWinApp@@UEAAJPEB_WKP6AKPEAX@Z1KK@Z 0000000180006e78     mfc140:mfc140.dll
 0002:00000e80       \177mfc140_NULL_THUNK_DATA 0000000180006e80     mfc140:mfc140.dll
 0002:00000e88       __guard_check_icall_fptr   0000000180006e88     msvcrt:guard_support.obj
 0002:00000e90       __guard_dispatch_icall_fptr 0000000180006e90     msvcrt:guard_support.obj
 0002:00000e98       __xc_a                     0000000180006e98     msvcrt:initializers.obj
 0002:00000eb8       __xc_z                     0000000180006eb8     msvcrt:initializers.obj
 0002:00000ec0       __xi_a                     0000000180006ec0     msvcrt:initializers.obj
 0002:00000ed0       __xi_z                     0000000180006ed0     msvcrt:initializers.obj
 0002:00000ed8       __xl_a                     0000000180006ed8     msvcrt:tlssup.obj
 0002:00000ee0       __xl_z                     0000000180006ee0     msvcrt:tlssup.obj
 0002:00000ee8       __xp_a                     0000000180006ee8     msvcrt:initializers.obj
 0002:00000ef0       __xp_z                     0000000180006ef0     msvcrt:initializers.obj
 0002:00000ef8       __xt_a                     0000000180006ef8     msvcrt:initializers.obj
 0002:00000f00       __xt_z                     0000000180006f00     msvcrt:initializers.obj
 0002:00000f10       _pActualRawDllMain         0000000180006f10     mfcs140:dllmodul.obj
 0002:00000f68       ??_C@_00CNPNBAHC@?$AA@     0000000180006f68     mfcs140:dllmodul.obj
 0002:00000f78       ??_7_AFX_DLL_MODULE_STATE@@6B@ 0000000180006f78     mfcs140:dllmodul.obj
 0002:00000f88       ??_7type_info@@6B@         0000000180006f88     msvcrt:std_type_info_static.obj
 0002:00000f90       ??_C@_1BK@MGMFAEKH@?$AAk?$AAe?$AAr?$AAn?$AAe?$AAl?$AA3?$AA2?$AA?4?$AAd?$AAl?$AAl?$AA?$AA@ 0000000180006f90     msvcrt:thread_safe_statics.obj
 0002:00000fb0       ??_C@_0BM@HLJJNPAH@InitializeConditionVariable?$AA@ 0000000180006fb0     msvcrt:thread_safe_statics.obj
 0002:00000fd0       ??_C@_0BJ@JEBJOJFJ@SleepConditionVariableCS?$AA@ 0000000180006fd0     msvcrt:thread_safe_statics.obj
 0002:00000ff0       ??_C@_0BJ@PGPPEPCC@WakeAllConditionVariable?$AA@ 0000000180006ff0     msvcrt:thread_safe_statics.obj
 0002:00001010       _pDefaultRawDllMain        0000000180007010     msvcrt:dll_dllmain.obj
 0002:00001028       GUID_ATLVer110             0000000180007028     atls:atlbase.obj
 0002:00001040       ??_C@_1IC@ONKHOIDK@?$AAE?$AAR?$AAR?$AAO?$AAR?$AA?5?$AA?3?$AA?5?$AAU?$AAn?$AAa?$AAb?$AAl?$AAe?$AA?5?$AAt?$AAo?$AA?5?$AAi?$AAn?$AAi?$AAt?$AAi?$AAa?$AAl?$AAi?$AAz?$AAe?$AA?5?$AAc?$AAr?$AAi@ 0000000180007040     atls:atlbase.obj
 0002:000010c8       _pRawDllMain               00000001800070c8     mfcs140:rawdllmainproxy.obj
 0002:000010d0       ??_C@_08PCFIAKPB@ImbNYval?$AA@ 00000001800070d0     ColumnFunctions.obj
 0002:000010e0       ??_C@_0DK@HHOKODMC@abs?$CINyseImbCurrentRefPriceRegula@ 00000001800070e0     ColumnFunctions.obj
 0002:00001120       ??_C@_0M@LMKLBFOF@ImbNYvalInf?$AA@ 0000000180007120     ColumnFunctions.obj
 0002:00001130       ??_C@_0CO@CAFAHBAO@abs?$CINyseImbCurrentRefPriceInfo?5?$CK@ 0000000180007130     ColumnFunctions.obj
 0002:00001160       ??_C@_0BB@IHDJPHEG@ImbNYdeltaClsInf?$AA@ 0000000180007160     ColumnFunctions.obj
 0002:00001180       ??_C@_0FC@NLHBHACJ@Absolute?5Difference?5between?5NYSE@ 0000000180007180     ColumnFunctions.obj
 0002:000011d8       ??_C@_09NCLPDJDE@RateImbNY?$AA@ 00000001800071d8     ColumnFunctions.obj
 0002:000011e8       ??_C@_0BC@GHILNEAM@ImbNYinf?5?1?5iImbNY?$AA@ 00000001800071e8     ColumnFunctions.obj
 0002:00001200       ??_C@_09KGCBBPNH@DeltaPvNY?$AA@ 0000000180007200     ColumnFunctions.obj
 0002:00001210       ??_C@_0BH@NDEGHLNC@ImbNYmatchinf?1ImbNYinf?$AA@ 0000000180007210     ColumnFunctions.obj
 0002:00001228       ??_C@_0N@JJLALKKJ@ArcaNear?9Far?$AA@ 0000000180007228     ColumnFunctions.obj
 0002:00001238       ??_C@_0CB@MCACJEEB@Arca?5Near?5Price?5?9?5Arca?5Far?5Price@ 0000000180007238     ColumnFunctions.obj
 0002:00001260       ??_C@_0L@BJDILCPN@BorrowSize?$AA@ 0000000180007260     ColumnFunctions.obj
 0002:00001270       ??_C@_0BJ@LCBENFLA@Position?5Borrowed?5Shares?$AA@ 0000000180007270     ColumnFunctions.obj
 0002:00001290       ??_C@_0O@OAOFDBLM@9?326RateImbNY?$AA@ 0000000180007290     ColumnFunctions.obj
 0002:000012a0       ??_C@_0EP@CADDEFGB@ImbNYinf?5?1?59?326ImbNY?$DL?5Current?5NY@ 00000001800072a0     ColumnFunctions.obj
 0002:000012f0       ??_C@_0P@HHPKDIIO@8?345ImbDeltaNY?$AA@ 00000001800072f0     ColumnFunctions.obj
 0002:00001300       ??_C@_0EN@CMOJLNK@Difference?5between?5the?5Current?5N@ 0000000180007300     ColumnFunctions.obj
 0002:00001350       ??_C@_06DNPHHJBM@Imb?$CFRI?$AA@ 0000000180007350     ColumnFunctions.obj
 0002:00001360       ??_C@_0EM@LJKKHLEB@Percentage?5of?5NYSE?5Informational@ 0000000180007360     ColumnFunctions.obj
 0002:000013b0       ??_C@_08EJAGABNA@ImbNYclr?$AA@ 00000001800073b0     ColumnFunctions.obj
 0002:000013c0       ??_C@_0BP@BNHHAHLL@NYSE?5Regulatory?5Clearing?5Price?$AA@ 00000001800073c0     ColumnFunctions.obj
 0002:000013e0       ??_C@_0M@OKADJMLB@ImbNYclrInf?$AA@ 00000001800073e0     ColumnFunctions.obj
 0002:000013f0       ??_C@_0CC@GCOBKOAK@NYSE?5Informational?5Clearing?5Pric@ 00000001800073f0     ColumnFunctions.obj
 0002:00001418       ??_C@_0L@PGHLNCEE@ImbNYmatch?$AA@ 0000000180007418     ColumnFunctions.obj
 0002:00001428       ??_C@_0CA@LCIOJOAG@NYSE?5Regulatory?5Matching?5Shares?$AA@ 0000000180007428     ColumnFunctions.obj
 0002:00001448       ??_C@_08FAHNMKAC@HTBstock?$AA@ 0000000180007448     ColumnFunctions.obj
 0002:00001458       ??_C@_0DI@KDAPAEAK@Stock?5in?5the?5current?5Clearing?5Ac@ 0000000180007458     ColumnFunctions.obj
 0002:00001490       ??_C@_09PNAJEGED@TktAvg100?$AA@ 0000000180007490     ColumnFunctions.obj
 0002:000014a0       ??_C@_0BK@MNEPHCJI@Closed?5P?$CGL?5per?5100?5shares?$AA@ 00000001800074a0     ColumnFunctions.obj
 0002:000014c0       ??_C@_0N@PFIJOIOL@TktAvgNet100?$AA@ 00000001800074c0     ColumnFunctions.obj
 0002:000014d0       ??_C@_0BO@KFMLFOOA@Net?5Closed?5P?$CGL?5per?5100?5shares?$AA@ 00000001800074d0     ColumnFunctions.obj
 0002:000014f0       ??_C@_07PCLBNOMM@TktAvg1?$AA@ 00000001800074f0     ColumnFunctions.obj
 0002:000014f8       ??_C@_0BH@CAEJMNOC@Closed?5P?$CGL?5per?51?5share?$AA@ 00000001800074f8     ColumnFunctions.obj
 0002:00001510       ??_C@_0L@NJLHLDEM@TktAvgNet1?$AA@ 0000000180007510     ColumnFunctions.obj
 0002:00001520       ??_C@_0BL@EEBCDKFM@Net?5Closed?5P?$CGL?5per?51?5share?$AA@ 0000000180007520     ColumnFunctions.obj
 0002:00001540       ??_C@_09GHPNOKKK@TierFract?$AA@ 0000000180007540     ColumnFunctions.obj
 0002:00001550       ??_C@_0BK@DMDAHBNP@Position?5Size?5?1?5Tier?5Size?$AA@ 0000000180007550     ColumnFunctions.obj
 0002:00001570       ??_C@_08GHKENBLF@PosFract?$AA@ 0000000180007570     ColumnFunctions.obj
 0002:00001580       ??_C@_0CA@DOGBIEBN@Position?5Size?5?1?5?$CITier?5Size?5?$CK?53?$CJ?$AA@ 0000000180007580     ColumnFunctions.obj
 0002:000015a0       ??_C@_0O@FKDMIIKD@TierFractTemp?$AA@ 00000001800075a0     ColumnFunctions.obj
 0002:000015b0       ??_C@_0CE@CLAICDDC@Position?5Size?5?1?5Temporary?5Tier?5S@ 00000001800075b0     ColumnFunctions.obj
 0002:000015d8       ??_C@_0N@BBABCDAG@PosFractTemp?$AA@ 00000001800075d8     ColumnFunctions.obj
 0002:000015e8       ??_C@_0CK@KNGDAIHB@Position?5Size?5?1?5?$CITemporary?5Tier?5@ 00000001800075e8     ColumnFunctions.obj
 0002:00001628       ??_SAccountMoneyPerShareInventoryRowValue@@6B@ 0000000180007628     ColumnFunctions.obj
 0002:00001798       ??_SPositionSecurityUIntDevidedByUIntAlternateInventoryRowValue@@6B@ 0000000180007798     ColumnFunctions.obj
 0002:00001908       ??_SPositionSecurityUIntDevidedByUIntInventoryRowValue@@6B@ 0000000180007908     ColumnFunctions.obj
 0002:00001a78       ??_SPositionMoneyPerShareInventoryRowValue@@6B@ 0000000180007a78     ColumnFunctions.obj
 0002:00001be8       ??_SPositionSecurityUCharAsCharOrdinalRowValue@@6B@ 0000000180007be8     ColumnFunctions.obj
 0002:00001d58       ??_SPositionSecurityUIntRowValue@@6B@ 0000000180007d58     ColumnFunctions.obj
 0002:00001ec8       ??_SPositionSecurityPriceRowValue@@6B@ 0000000180007ec8     ColumnFunctions.obj
 0002:00002038       ??_SPositionSecurityIntByIntDivision@@6B@ 0000000180008038     ColumnFunctions.obj
 0002:000021a8       ??_SSecurityIntRowValueDiff@@6B@ 00000001800081a8     ColumnFunctions.obj
 0002:00002318       ??_SPositionUIntRowValueNull@@6B@ 0000000180008318     ColumnFunctions.obj
 0002:00002488       ??_SSecurityUIntByIntDivisionFraction@@6B@ 0000000180008488     ColumnFunctions.obj
 0002:00002608       ??_SSecurityIntByIntDivisionFraction@@6B@ 0000000180008608     ColumnFunctions.obj
 0002:00002778       ??_SSecurityPriceRowValueDiffAbs@@6B@ 0000000180008778     ColumnFunctions.obj
 0002:000028e8       ??_SSecurityPriceXIntAbs@@6B@ 00000001800088e8     ColumnFunctions.obj
 0002:00002a58       ??_SUIntRowValue@@6B@      0000000180008a58     ColumnFunctions.obj
 0002:00002bc8       ??_SMoneyRowValue@@6B@     0000000180008bc8     ColumnFunctions.obj
 0002:00002d28       ??_C@_0BI@HGBACFKH@TakionAdditionalColumns?$AA@ 0000000180008d28     TakionAdditionalColumns.obj
 0002:00002d48       ??_7TakionAdditionalColumns@@6B@ 0000000180008d48     TakionAdditionalColumns.obj
 0002:00002f78       ??_C@_08NDPEDLFC@1?40?46?451?$AA@ 0000000180008f78     TakionAdditionalColumns.obj
 0002:00002fc0       ??_C@_09CJLBMOF@1?40?46?4149?$AA@ 0000000180008fc0     TakionAdditionalColumns.obj
 0002:00002fd0       ??_C@_08KEJKJCKA@1?40?47?426?$AA@ 0000000180008fd0     TakionAdditionalColumns.obj
 0002:00002fe0       ??_C@_09MFGBHEPA@1?40?46?4220?$AA@ 0000000180008fe0     TakionAdditionalColumns.obj
 0002:00003030       _load_config_used          0000000180009030     msvcrt:loadcfg.obj
 0002:000030c8       _tls_used                  00000001800090c8     msvcrt:tlssup.obj
 0002:000030f0       ??_R3CNoTrackObject@@8     00000001800090f0     mfcs140:dllmodul.obj
 0002:00003108       ??_R2CNoTrackObject@@8     0000000180009108     mfcs140:dllmodul.obj
 0002:00003118       ??_R1A@?0A@EA@CNoTrackObject@@8 0000000180009118     mfcs140:dllmodul.obj
 0002:00003140       ??_R4_AFX_DLL_MODULE_STATE@@6B@ 0000000180009140     mfcs140:dllmodul.obj
 0002:00003168       ??_R3_AFX_DLL_MODULE_STATE@@8 0000000180009168     mfcs140:dllmodul.obj
 0002:00003180       ??_R2_AFX_DLL_MODULE_STATE@@8 0000000180009180     mfcs140:dllmodul.obj
 0002:000031a0       ??_R1A@?0A@EA@_AFX_DLL_MODULE_STATE@@8 00000001800091a0     mfcs140:dllmodul.obj
 0002:000031c8       ??_R1A@?0A@EA@AFX_MODULE_STATE@@8 00000001800091c8     mfcs140:dllmodul.obj
 0002:000031f0       ??_R3AFX_MODULE_STATE@@8   00000001800091f0     mfcs140:dllmodul.obj
 0002:00003208       ??_R2AFX_MODULE_STATE@@8   0000000180009208     mfcs140:dllmodul.obj
 0002:00003220       ??_R4type_info@@6B@        0000000180009220     msvcrt:std_type_info_static.obj
 0002:00003248       ??_R3type_info@@8          0000000180009248     msvcrt:std_type_info_static.obj
 0002:00003260       ??_R2type_info@@8          0000000180009260     msvcrt:std_type_info_static.obj
 0002:00003270       ??_R1A@?0A@EA@type_info@@8 0000000180009270     msvcrt:std_type_info_static.obj
 0002:00003298       ??_R2SecurityIntRowValueDiff@@8 0000000180009298     ColumnFunctions.obj
 0002:000032d8       ??_R2IntRowValue@@8        00000001800092d8     ColumnFunctions.obj
 0002:00003310       ??_R2?$CommaSignedIntegerRowValue@H@@8 0000000180009310     ColumnFunctions.obj
 0002:00003340       ??_R2?$CommaRowValue@H@@8  0000000180009340     ColumnFunctions.obj
 0002:00003368       ??_R2?$TypedNumericRowValue@H@@8 0000000180009368     ColumnFunctions.obj
 0002:00003388       ??_R2?$TypedRowValue@H@@8  0000000180009388     ColumnFunctions.obj
 0002:000033a0       ??_R2SecurityPriceRowValueDiffAbs@@8 00000001800093a0     ColumnFunctions.obj
 0002:000033f0       ??_R2SecurityPriceRowValueDiff@@8 00000001800093f0     ColumnFunctions.obj
 0002:00003438       ??_R2SignedPriceRowValue@@8 0000000180009438     ColumnFunctions.obj
 0002:00003478       ??_R2?$MonetaryRowValue@VSignedPrice@@@@8 0000000180009478     ColumnFunctions.obj
 0002:000034b0       ??_R2?$DecRowValue@VSignedPrice@@@@8 00000001800094b0     ColumnFunctions.obj
 0002:000034e0       ??_R2?$CommaRowValue@VSignedPrice@@@@8 00000001800094e0     ColumnFunctions.obj
 0002:00003508       ??_R2?$TypedNumericRowValue@VSignedPrice@@@@8 0000000180009508     ColumnFunctions.obj
 0002:00003528       ??_R2?$TypedRowValue@VSignedPrice@@@@8 0000000180009528     ColumnFunctions.obj
 0002:00003540       ??_R2SecurityUIntByIntDivisionFraction@@8 0000000180009540     ColumnFunctions.obj
 0002:000035a0       ??_R2SecurityUIntByIntDivision@@8 00000001800095a0     ColumnFunctions.obj
 0002:000035f0       ??_R2SecurityUIntByIntDivisionNegative@@8 00000001800095f0     ColumnFunctions.obj
 0002:00003640       ??_R2SecurityIntByIntDivisionFraction@@8 0000000180009640     ColumnFunctions.obj
 0002:00003690       ??_R2SecurityIntByIntDivision@@8 0000000180009690     ColumnFunctions.obj
 0002:000036e0       ??_R2SecurityPriceXIntAbs@@8 00000001800096e0     ColumnFunctions.obj
 0002:00003730       ??_R2SecurityPriceXInt@@8  0000000180009730     ColumnFunctions.obj
 0002:00003780       ??_R2PositionMoneyPerShareInventoryRowValue@@8 0000000180009780     ColumnFunctions.obj
 0002:000037d0       ??_R2PositionMoneyInventoryVRowValue@@8 00000001800097d0     ColumnFunctions.obj
 0002:00003818       ??_R2PositionSecurityUCharAsCharOrdinalRowValue@@8 0000000180009818     ColumnFunctions.obj
 0002:00003858       ??_R2UCharAsCharRowValue@@8 0000000180009858     ColumnFunctions.obj
 0002:00003890       ??_R2UCharRowValue@@8      0000000180009890     ColumnFunctions.obj
 0002:000038c0       ??_R2?$TypedUnsignedRowValue@E@@8 00000001800098c0     ColumnFunctions.obj
 0002:000038e8       ??_R2?$TypedNumericRowValue@E@@8 00000001800098e8     ColumnFunctions.obj
 0002:00003908       ??_R2?$TypedRowValue@E@@8  0000000180009908     ColumnFunctions.obj
 0002:00003920       ??_R2PositionSecurityIntByIntDivision@@8 0000000180009920     ColumnFunctions.obj
 0002:00003970       ??_R2PositionSecurityPriceRowValue@@8 0000000180009970     ColumnFunctions.obj
 0002:000039c0       ??_R2PositionSecurityUIntRowValue@@8 00000001800099c0     ColumnFunctions.obj
 0002:00003a10       ??_R2PositionUIntRowValueNull@@8 0000000180009a10     ColumnFunctions.obj
 0002:00003a60       ??_R2PositionUIntRowValue@@8 0000000180009a60     ColumnFunctions.obj
 0002:00003ab0       ??_R2PositionSecurityUIntDevidedByUIntAlternateInventoryRowValue@@8 0000000180009ab0     ColumnFunctions.obj
 0002:00003b10       ??_R2PositionSecurityUIntDevidedByUIntInventoryRowValue@@8 0000000180009b10     ColumnFunctions.obj
 0002:00003b60       ??_R2PriceRowValue@@8      0000000180009b60     ColumnFunctions.obj
 0002:00003ba8       ??_R2?$MonetaryUnsignedRowValue@VPrice@@@@8 0000000180009ba8     ColumnFunctions.obj
 0002:00003be8       ??_R2?$DecUnsignedRowValue@VPrice@@@@8 0000000180009be8     ColumnFunctions.obj
 0002:00003c20       ??_R2?$CommaUnsignedRowValue@VPrice@@@@8 0000000180009c20     ColumnFunctions.obj
 0002:00003c50       ??_R2?$TypedUnsignedRowValue@VPrice@@@@8 0000000180009c50     ColumnFunctions.obj
 0002:00003c78       ??_R2?$TypedNumericRowValue@VPrice@@@@8 0000000180009c78     ColumnFunctions.obj
 0002:00003c98       ??_R2?$TypedRowValue@VPrice@@@@8 0000000180009c98     ColumnFunctions.obj
 0002:00003cb0       ??_R2AccountMoneyPerShareInventoryRowValue@@8 0000000180009cb0     ColumnFunctions.obj
 0002:00003d00       ??_R2AccountMoneyInventoryVRowValue@@8 0000000180009d00     ColumnFunctions.obj
 0002:00003d48       ??_R2UIntRowValue@@8       0000000180009d48     ColumnFunctions.obj
 0002:00003d88       ??_R2?$CommaUnsignedNumberRowValue@I@@8 0000000180009d88     ColumnFunctions.obj
 0002:00003dc0       ??_R2?$CommaUnsignedRowValue@I@@8 0000000180009dc0     ColumnFunctions.obj
 0002:00003df0       ??_R2?$TypedUnsignedRowValue@I@@8 0000000180009df0     ColumnFunctions.obj
 0002:00003e18       ??_R2?$TypedNumericRowValue@I@@8 0000000180009e18     ColumnFunctions.obj
 0002:00003e38       ??_R2?$TypedRowValue@I@@8  0000000180009e38     ColumnFunctions.obj
 0002:00003e50       ??_R2MoneyRowValue@@8      0000000180009e50     ColumnFunctions.obj
 0002:00003e90       ??_R2?$MonetaryRowValue@VMoney@@@@8 0000000180009e90     ColumnFunctions.obj
 0002:00003ec8       ??_R2?$DecRowValue@VMoney@@@@8 0000000180009ec8     ColumnFunctions.obj
 0002:00003ef8       ??_R2?$CommaRowValue@VMoney@@@@8 0000000180009ef8     ColumnFunctions.obj
 0002:00003f20       ??_R2?$TypedNumericRowValue@VMoney@@@@8 0000000180009f20     ColumnFunctions.obj
 0002:00003f40       ??_R2?$TypedRowValue@VMoney@@@@8 0000000180009f40     ColumnFunctions.obj
 0002:00003f58       ??_R1A@?0A@EA@SecurityIntRowValueDiff@@8 0000000180009f58     ColumnFunctions.obj
 0002:00003f80       ??_R1A@?0A@EA@IntRowValue@@8 0000000180009f80     ColumnFunctions.obj
 0002:00003fa8       ??_R1A@?0A@EA@?$CommaSignedIntegerRowValue@H@@8 0000000180009fa8     ColumnFunctions.obj
 0002:00003fd0       ??_R1A@?0A@EA@?$CommaRowValue@H@@8 0000000180009fd0     ColumnFunctions.obj
 0002:00003ff8       ??_R1A@?0A@EA@?$TypedNumericRowValue@H@@8 0000000180009ff8     ColumnFunctions.obj
 0002:00004020       ??_R1A@?0A@EA@?$TypedRowValue@H@@8 000000018000a020     ColumnFunctions.obj
 0002:00004048       ??_R1A@?0A@EA@SecurityPriceRowValueDiffAbs@@8 000000018000a048     ColumnFunctions.obj
 0002:00004070       ??_R1A@?0A@EA@SecurityPriceRowValueDiff@@8 000000018000a070     ColumnFunctions.obj
 0002:00004098       ??_R1A@?0A@EA@SignedPriceRowValue@@8 000000018000a098     ColumnFunctions.obj
 0002:000040c0       ??_R1A@?0A@EA@?$MonetaryRowValue@VSignedPrice@@@@8 000000018000a0c0     ColumnFunctions.obj
 0002:000040e8       ??_R1A@?0A@EA@?$DecRowValue@VSignedPrice@@@@8 000000018000a0e8     ColumnFunctions.obj
 0002:00004110       ??_R1A@?0A@EA@?$CommaRowValue@VSignedPrice@@@@8 000000018000a110     ColumnFunctions.obj
 0002:00004138       ??_R1A@?0A@EA@?$TypedNumericRowValue@VSignedPrice@@@@8 000000018000a138     ColumnFunctions.obj
 0002:00004160       ??_R1A@?0A@EA@?$TypedRowValue@VSignedPrice@@@@8 000000018000a160     ColumnFunctions.obj
 0002:00004188       ??_R1A@?0A@EA@SecurityUIntByIntDivisionFraction@@8 000000018000a188     ColumnFunctions.obj
 0002:000041b0       ??_R1A@?0A@EA@SecurityUIntByIntDivision@@8 000000018000a1b0     ColumnFunctions.obj
 0002:000041d8       ??_R1A@?0A@EA@SecurityUIntByIntDivisionNegative@@8 000000018000a1d8     ColumnFunctions.obj
 0002:00004200       ??_R1A@?0A@EA@SecurityIntByIntDivisionFraction@@8 000000018000a200     ColumnFunctions.obj
 0002:00004228       ??_R1A@?0A@EA@SecurityIntByIntDivision@@8 000000018000a228     ColumnFunctions.obj
 0002:00004250       ??_R1A@?0A@EA@SecurityPriceXIntAbs@@8 000000018000a250     ColumnFunctions.obj
 0002:00004278       ??_R1A@?0A@EA@SecurityPriceXInt@@8 000000018000a278     ColumnFunctions.obj
 0002:000042a0       ??_R1A@?0A@EA@PositionMoneyPerShareInventoryRowValue@@8 000000018000a2a0     ColumnFunctions.obj
 0002:000042c8       ??_R1A@?0A@EA@PositionMoneyInventoryVRowValue@@8 000000018000a2c8     ColumnFunctions.obj
 0002:000042f0       ??_R1A@?0A@EA@PositionSecurityUCharAsCharOrdinalRowValue@@8 000000018000a2f0     ColumnFunctions.obj
 0002:00004318       ??_R1A@?0A@EA@UCharAsCharRowValue@@8 000000018000a318     ColumnFunctions.obj
 0002:00004340       ??_R1A@?0A@EA@UCharRowValue@@8 000000018000a340     ColumnFunctions.obj
 0002:00004368       ??_R1A@?0A@EA@?$TypedUnsignedRowValue@E@@8 000000018000a368     ColumnFunctions.obj
 0002:00004390       ??_R1A@?0A@EA@?$TypedNumericRowValue@E@@8 000000018000a390     ColumnFunctions.obj
 0002:000043b8       ??_R1A@?0A@EA@?$TypedRowValue@E@@8 000000018000a3b8     ColumnFunctions.obj
 0002:000043e0       ??_R1A@?0A@EA@PositionSecurityIntByIntDivision@@8 000000018000a3e0     ColumnFunctions.obj
 0002:00004408       ??_R1A@?0A@EA@PositionSecurityPriceRowValue@@8 000000018000a408     ColumnFunctions.obj
 0002:00004430       ??_R1A@?0A@EA@PositionSecurityUIntRowValue@@8 000000018000a430     ColumnFunctions.obj
 0002:00004458       ??_R1A@?0A@EA@PositionUIntRowValueNull@@8 000000018000a458     ColumnFunctions.obj
 0002:00004480       ??_R1A@?0A@EA@PositionUIntRowValue@@8 000000018000a480     ColumnFunctions.obj
 0002:000044a8       ??_R1A@?0A@EA@PositionSecurityUIntDevidedByUIntAlternateInventoryRowValue@@8 000000018000a4a8     ColumnFunctions.obj
 0002:000044d0       ??_R1A@?0A@EA@PositionSecurityUIntDevidedByUIntInventoryRowValue@@8 000000018000a4d0     ColumnFunctions.obj
 0002:000044f8       ??_R1A@?0A@EA@PriceRowValue@@8 000000018000a4f8     ColumnFunctions.obj
 0002:00004520       ??_R1A@?0A@EA@?$MonetaryUnsignedRowValue@VPrice@@@@8 000000018000a520     ColumnFunctions.obj
 0002:00004548       ??_R1A@?0A@EA@?$DecUnsignedRowValue@VPrice@@@@8 000000018000a548     ColumnFunctions.obj
 0002:00004570       ??_R1A@?0A@EA@?$CommaUnsignedRowValue@VPrice@@@@8 000000018000a570     ColumnFunctions.obj
 0002:00004598       ??_R1A@?0A@EA@?$TypedUnsignedRowValue@VPrice@@@@8 000000018000a598     ColumnFunctions.obj
 0002:000045c0       ??_R1A@?0A@EA@?$TypedNumericRowValue@VPrice@@@@8 000000018000a5c0     ColumnFunctions.obj
 0002:000045e8       ??_R1A@?0A@EA@?$TypedRowValue@VPrice@@@@8 000000018000a5e8     ColumnFunctions.obj
 0002:00004610       ??_R1A@?0A@EA@AccountMoneyPerShareInventoryRowValue@@8 000000018000a610     ColumnFunctions.obj
 0002:00004638       ??_R1A@?0A@EA@AccountMoneyInventoryVRowValue@@8 000000018000a638     ColumnFunctions.obj
 0002:00004660       ??_R1A@?0A@EA@UIntRowValue@@8 000000018000a660     ColumnFunctions.obj
 0002:00004688       ??_R1A@?0A@EA@?$CommaUnsignedNumberRowValue@I@@8 000000018000a688     ColumnFunctions.obj
 0002:000046b0       ??_R1A@?0A@EA@?$CommaUnsignedRowValue@I@@8 000000018000a6b0     ColumnFunctions.obj
 0002:000046d8       ??_R1A@?0A@EA@?$TypedUnsignedRowValue@I@@8 000000018000a6d8     ColumnFunctions.obj
 0002:00004700       ??_R1A@?0A@EA@?$TypedNumericRowValue@I@@8 000000018000a700     ColumnFunctions.obj
 0002:00004728       ??_R1A@?0A@EA@?$TypedRowValue@I@@8 000000018000a728     ColumnFunctions.obj
 0002:00004750       ??_R1A@?0A@EA@MoneyRowValue@@8 000000018000a750     ColumnFunctions.obj
 0002:00004778       ??_R1A@?0A@EA@?$MonetaryRowValue@VMoney@@@@8 000000018000a778     ColumnFunctions.obj
 0002:000047a0       ??_R1A@?0A@EA@?$DecRowValue@VMoney@@@@8 000000018000a7a0     ColumnFunctions.obj
 0002:000047c8       ??_R1A@?0A@EA@?$CommaRowValue@VMoney@@@@8 000000018000a7c8     ColumnFunctions.obj
 0002:000047f0       ??_R1A@?0A@EA@?$TypedNumericRowValue@VMoney@@@@8 000000018000a7f0     ColumnFunctions.obj
 0002:00004818       ??_R2RowValue@@8           000000018000a818     ColumnFunctions.obj
 0002:00004828       ??_R3RowValue@@8           000000018000a828     ColumnFunctions.obj
 0002:00004840       ??_R1A@?0A@EA@RowValue@@8  000000018000a840     ColumnFunctions.obj
 0002:00004868       ??_R1A@?0A@EA@?$TypedRowValue@VMoney@@@@8 000000018000a868     ColumnFunctions.obj
 0002:00004890       ??_R3IntRowValue@@8        000000018000a890     ColumnFunctions.obj
 0002:000048a8       ??_R3?$CommaSignedIntegerRowValue@H@@8 000000018000a8a8     ColumnFunctions.obj
 0002:000048c0       ??_R3?$CommaRowValue@H@@8  000000018000a8c0     ColumnFunctions.obj
 0002:000048d8       ??_R3?$TypedNumericRowValue@H@@8 000000018000a8d8     ColumnFunctions.obj
 0002:000048f0       ??_R3?$TypedRowValue@H@@8  000000018000a8f0     ColumnFunctions.obj
 0002:00004908       ??_R3SecurityIntRowValueDiff@@8 000000018000a908     ColumnFunctions.obj
 0002:00004920       ??_R3SecurityPriceRowValueDiff@@8 000000018000a920     ColumnFunctions.obj
 0002:00004938       ??_R3SignedPriceRowValue@@8 000000018000a938     ColumnFunctions.obj
 0002:00004950       ??_R3?$MonetaryRowValue@VSignedPrice@@@@8 000000018000a950     ColumnFunctions.obj
 0002:00004968       ??_R3?$DecRowValue@VSignedPrice@@@@8 000000018000a968     ColumnFunctions.obj
 0002:00004980       ??_R3?$CommaRowValue@VSignedPrice@@@@8 000000018000a980     ColumnFunctions.obj
 0002:00004998       ??_R3?$TypedNumericRowValue@VSignedPrice@@@@8 000000018000a998     ColumnFunctions.obj
 0002:000049b0       ??_R3?$TypedRowValue@VSignedPrice@@@@8 000000018000a9b0     ColumnFunctions.obj
 0002:000049c8       ??_R3SecurityPriceRowValueDiffAbs@@8 000000018000a9c8     ColumnFunctions.obj
 0002:000049e0       ??_R3SecurityUIntByIntDivision@@8 000000018000a9e0     ColumnFunctions.obj
 0002:000049f8       ??_R3SecurityUIntByIntDivisionNegative@@8 000000018000a9f8     ColumnFunctions.obj
 0002:00004a10       ??_R3SecurityUIntByIntDivisionFraction@@8 000000018000aa10     ColumnFunctions.obj
 0002:00004a28       ??_R3SecurityIntByIntDivision@@8 000000018000aa28     ColumnFunctions.obj
 0002:00004a40       ??_R3SecurityIntByIntDivisionFraction@@8 000000018000aa40     ColumnFunctions.obj
 0002:00004a58       ??_R3SecurityPriceXInt@@8  000000018000aa58     ColumnFunctions.obj
 0002:00004a70       ??_R3SecurityPriceXIntAbs@@8 000000018000aa70     ColumnFunctions.obj
 0002:00004a88       ??_R3PositionMoneyInventoryVRowValue@@8 000000018000aa88     ColumnFunctions.obj
 0002:00004aa0       ??_R3PositionMoneyPerShareInventoryRowValue@@8 000000018000aaa0     ColumnFunctions.obj
 0002:00004ab8       ??_R3UCharAsCharRowValue@@8 000000018000aab8     ColumnFunctions.obj
 0002:00004ad0       ??_R3UCharRowValue@@8      000000018000aad0     ColumnFunctions.obj
 0002:00004ae8       ??_R3?$TypedUnsignedRowValue@E@@8 000000018000aae8     ColumnFunctions.obj
 0002:00004b00       ??_R3?$TypedNumericRowValue@E@@8 000000018000ab00     ColumnFunctions.obj
 0002:00004b18       ??_R3?$TypedRowValue@E@@8  000000018000ab18     ColumnFunctions.obj
 0002:00004b30       ??_R3PositionSecurityUCharAsCharOrdinalRowValue@@8 000000018000ab30     ColumnFunctions.obj
 0002:00004b48       ??_R3PositionSecurityIntByIntDivision@@8 000000018000ab48     ColumnFunctions.obj
 0002:00004b60       ??_R3PositionSecurityPriceRowValue@@8 000000018000ab60     ColumnFunctions.obj
 0002:00004b78       ??_R3PositionSecurityUIntRowValue@@8 000000018000ab78     ColumnFunctions.obj
 0002:00004b90       ??_R3PositionUIntRowValue@@8 000000018000ab90     ColumnFunctions.obj
 0002:00004ba8       ??_R3PositionUIntRowValueNull@@8 000000018000aba8     ColumnFunctions.obj
 0002:00004bc0       ??_R3PositionSecurityUIntDevidedByUIntAlternateInventoryRowValue@@8 000000018000abc0     ColumnFunctions.obj
 0002:00004bd8       ??_R3PriceRowValue@@8      000000018000abd8     ColumnFunctions.obj
 0002:00004bf0       ??_R3?$MonetaryUnsignedRowValue@VPrice@@@@8 000000018000abf0     ColumnFunctions.obj
 0002:00004c08       ??_R3?$DecUnsignedRowValue@VPrice@@@@8 000000018000ac08     ColumnFunctions.obj
 0002:00004c20       ??_R3?$CommaUnsignedRowValue@VPrice@@@@8 000000018000ac20     ColumnFunctions.obj
 0002:00004c38       ??_R3?$TypedUnsignedRowValue@VPrice@@@@8 000000018000ac38     ColumnFunctions.obj
 0002:00004c50       ??_R3?$TypedNumericRowValue@VPrice@@@@8 000000018000ac50     ColumnFunctions.obj
 0002:00004c68       ??_R3?$TypedRowValue@VPrice@@@@8 000000018000ac68     ColumnFunctions.obj
 0002:00004c80       ??_R3PositionSecurityUIntDevidedByUIntInventoryRowValue@@8 000000018000ac80     ColumnFunctions.obj
 0002:00004c98       ??_R3AccountMoneyInventoryVRowValue@@8 000000018000ac98     ColumnFunctions.obj
 0002:00004cb0       ??_R3AccountMoneyPerShareInventoryRowValue@@8 000000018000acb0     ColumnFunctions.obj
 0002:00004cc8       ??_R3?$CommaUnsignedNumberRowValue@I@@8 000000018000acc8     ColumnFunctions.obj
 0002:00004ce0       ??_R3?$CommaUnsignedRowValue@I@@8 000000018000ace0     ColumnFunctions.obj
 0002:00004cf8       ??_R3?$TypedUnsignedRowValue@I@@8 000000018000acf8     ColumnFunctions.obj
 0002:00004d10       ??_R3?$TypedNumericRowValue@I@@8 000000018000ad10     ColumnFunctions.obj
 0002:00004d28       ??_R3?$TypedRowValue@I@@8  000000018000ad28     ColumnFunctions.obj
 0002:00004d40       ??_R3UIntRowValue@@8       000000018000ad40     ColumnFunctions.obj
 0002:00004d58       ??_R3?$MonetaryRowValue@VMoney@@@@8 000000018000ad58     ColumnFunctions.obj
 0002:00004d70       ??_R3?$DecRowValue@VMoney@@@@8 000000018000ad70     ColumnFunctions.obj
 0002:00004d88       ??_R3?$CommaRowValue@VMoney@@@@8 000000018000ad88     ColumnFunctions.obj
 0002:00004da0       ??_R3?$TypedNumericRowValue@VMoney@@@@8 000000018000ada0     ColumnFunctions.obj
 0002:00004db8       ??_R3?$TypedRowValue@VMoney@@@@8 000000018000adb8     ColumnFunctions.obj
 0002:00004dd0       ??_R3MoneyRowValue@@8      000000018000add0     ColumnFunctions.obj
 0002:00004de8       ??_R4SecurityIntRowValueDiff@@6B@ 000000018000ade8     ColumnFunctions.obj
 0002:00004e10       ??_R4SecurityPriceRowValueDiffAbs@@6B@ 000000018000ae10     ColumnFunctions.obj
 0002:00004e38       ??_R4SecurityUIntByIntDivisionFraction@@6B@ 000000018000ae38     ColumnFunctions.obj
 0002:00004e60       ??_R4SecurityIntByIntDivisionFraction@@6B@ 000000018000ae60     ColumnFunctions.obj
 0002:00004e88       ??_R4SecurityPriceXIntAbs@@6B@ 000000018000ae88     ColumnFunctions.obj
 0002:00004eb0       ??_R4PositionMoneyPerShareInventoryRowValue@@6B@ 000000018000aeb0     ColumnFunctions.obj
 0002:00004ed8       ??_R4PositionSecurityUCharAsCharOrdinalRowValue@@6B@ 000000018000aed8     ColumnFunctions.obj
 0002:00004f00       ??_R4PositionSecurityIntByIntDivision@@6B@ 000000018000af00     ColumnFunctions.obj
 0002:00004f28       ??_R4PositionSecurityPriceRowValue@@6B@ 000000018000af28     ColumnFunctions.obj
 0002:00004f50       ??_R4PositionSecurityUIntRowValue@@6B@ 000000018000af50     ColumnFunctions.obj
 0002:00004f78       ??_R4PositionUIntRowValueNull@@6B@ 000000018000af78     ColumnFunctions.obj
 0002:00004fa0       ??_R4PositionSecurityUIntDevidedByUIntAlternateInventoryRowValue@@6B@ 000000018000afa0     ColumnFunctions.obj
 0002:00004fc8       ??_R4PositionSecurityUIntDevidedByUIntInventoryRowValue@@6B@ 000000018000afc8     ColumnFunctions.obj
 0002:00004ff0       ??_R4AccountMoneyPerShareInventoryRowValue@@6B@ 000000018000aff0     ColumnFunctions.obj
 0002:00005018       ??_R4UIntRowValue@@6B@     000000018000b018     ColumnFunctions.obj
 0002:00005040       ??_R4MoneyRowValue@@6B@    000000018000b040     ColumnFunctions.obj
 0002:00005068       ??_R2TakionAdditionalColumns@@8 000000018000b068     TakionAdditionalColumns.obj
 0002:00005098       ??_R2CWinApp@@8            000000018000b098     TakionAdditionalColumns.obj
 0002:000050c0       ??_R2CWinThread@@8         000000018000b0c0     TakionAdditionalColumns.obj
 0002:000050e0       ??_R1A@?0A@EA@TakionAdditionalColumns@@8 000000018000b0e0     TakionAdditionalColumns.obj
 0002:00005108       ??_R1A@?0A@EA@CWinApp@@8   000000018000b108     TakionAdditionalColumns.obj
 0002:00005130       ??_R2CObject@@8            000000018000b130     TakionAdditionalColumns.obj
 0002:00005140       ??_R3CObject@@8            000000018000b140     TakionAdditionalColumns.obj
 0002:00005158       ??_R1A@?0A@EA@CObject@@8   000000018000b158     TakionAdditionalColumns.obj
 0002:00005180       ??_R2CCmdTarget@@8         000000018000b180     TakionAdditionalColumns.obj
 0002:00005198       ??_R3CCmdTarget@@8         000000018000b198     TakionAdditionalColumns.obj
 0002:000051b0       ??_R1A@?0A@EA@CCmdTarget@@8 000000018000b1b0     TakionAdditionalColumns.obj
 0002:000051d8       ??_R1A@?0A@EA@CWinThread@@8 000000018000b1d8     TakionAdditionalColumns.obj
 0002:00005200       ??_R3CWinApp@@8            000000018000b200     TakionAdditionalColumns.obj
 0002:00005218       ??_R3CWinThread@@8         000000018000b218     TakionAdditionalColumns.obj
 0002:00005230       ??_R3TakionAdditionalColumns@@8 000000018000b230     TakionAdditionalColumns.obj
 0002:00005248       ??_R4TakionAdditionalColumns@@6B@ 000000018000b248     TakionAdditionalColumns.obj
 0002:000055b8       __rtc_iaa                  000000018000b5b8     msvcrt:_initsect_.obj
 0002:000055c0       __rtc_izz                  000000018000b5c0     msvcrt:_initsect_.obj
 0002:000055c8       __rtc_taa                  000000018000b5c8     msvcrt:_initsect_.obj
 0002:000055d0       __rtc_tzz                  000000018000b5d0     msvcrt:_initsect_.obj
 0002:00006354       __IMPORT_DESCRIPTOR_Observer 000000018000c354     Observer:Observer.dll
 0002:00006368       __IMPORT_DESCRIPTOR_TakionData 000000018000c368     TakionData:TakionData.dll
 0002:0000637c       __IMPORT_DESCRIPTOR_TakionGui 000000018000c37c     TakionGui:TakionGui.dll
 0002:00006390       __IMPORT_DESCRIPTOR_TakionLog 000000018000c390     TakionLog:TakionLog.dll
 0002:000063a4       __IMPORT_DESCRIPTOR_TakionUtils 000000018000c3a4     TakionUtils:TakionUtils.dll
 0002:000063b8       __IMPORT_DESCRIPTOR_Utils  000000018000c3b8     Utils:Utils.dll
 0002:000063cc       __IMPORT_DESCRIPTOR_mfc140 000000018000c3cc     mfc140:mfc140.dll
 0002:000063e0       __IMPORT_DESCRIPTOR_KERNEL32 000000018000c3e0     kernel32:KERNEL32.dll
 0002:000063f4       __IMPORT_DESCRIPTOR_VCRUNTIME140 000000018000c3f4     vcruntime:VCRUNTIME140.dll
 0002:00006408       __IMPORT_DESCRIPTOR_api-ms-win-crt-string-l1-1-0 000000018000c408     ucrt:api-ms-win-crt-string-l1-1-0.dll
 0002:0000641c       __IMPORT_DESCRIPTOR_api-ms-win-crt-runtime-l1-1-0 000000018000c41c     ucrt:api-ms-win-crt-runtime-l1-1-0.dll
 0002:00006430       __IMPORT_DESCRIPTOR_api-ms-win-crt-heap-l1-1-0 000000018000c430     ucrt:api-ms-win-crt-heap-l1-1-0.dll
 0002:00006444       __NULL_IMPORT_DESCRIPTOR   000000018000c444     Observer:Observer.dll
 0003:00000000       __scrt_native_dllmain_reason 0000000180013000     msvcrt:utility.obj
 0003:00000004       _Init_global_epoch         0000000180013004     msvcrt:thread_safe_statics.obj
 0003:00000008       __security_cookie          0000000180013008     msvcrt:gs_cookie.obj
 0003:00000010       __security_cookie_complement 0000000180013010     msvcrt:gs_cookie.obj
 0003:00000018       __isa_available            0000000180013018     msvcrt:_cpu_disp_.obj
 0003:0000001c       __isa_enabled              000000018001301c     msvcrt:_cpu_disp_.obj
 0003:00000020       __memcpy_nt_iters          0000000180013020     msvcrt:_cpu_disp_.obj
 0003:00000030       __scrt_ucrt_dll_is_in_use  0000000180013030     msvcrt:ucrt_stubs.obj
 0003:00000040       ??_R0PEAVCMemoryException@@@8 0000000180013040     mfcs140:dllmodul.obj
 0003:00000068       ??_R0?AVCNoTrackObject@@@8 0000000180013068     mfcs140:dllmodul.obj
 0003:00000090       ??_R0?AV_AFX_DLL_MODULE_STATE@@@8 0000000180013090     mfcs140:dllmodul.obj
 0003:000000c0       ??_R0?AVAFX_MODULE_STATE@@@8 00000001800130c0     mfcs140:dllmodul.obj
 0003:000000e8       ??_R0?AVtype_info@@@8      00000001800130e8     msvcrt:std_type_info_static.obj
 0003:00000108       ??_R0?AVRowValue@@@8       0000000180013108     ColumnFunctions.obj
 0003:00000128       ??_R0?AVIntRowValue@@@8    0000000180013128     ColumnFunctions.obj
 0003:00000150       ??_R0?AV?$CommaSignedIntegerRowValue@H@@@8 0000000180013150     ColumnFunctions.obj
 0003:00000188       ??_R0?AV?$CommaRowValue@H@@@8 0000000180013188     ColumnFunctions.obj
 0003:000001b0       ??_R0?AV?$TypedNumericRowValue@H@@@8 00000001800131b0     ColumnFunctions.obj
 0003:000001e0       ??_R0?AV?$TypedRowValue@H@@@8 00000001800131e0     ColumnFunctions.obj
 0003:00000208       ??_R0?AVSecurityIntRowValueDiff@@@8 0000000180013208     ColumnFunctions.obj
 0003:00000238       ??_R0?AVSecurityPriceRowValueDiff@@@8 0000000180013238     ColumnFunctions.obj
 0003:00000268       ??_R0?AVSignedPriceRowValue@@@8 0000000180013268     ColumnFunctions.obj
 0003:00000298       ??_R0?AV?$MonetaryRowValue@VSignedPrice@@@@@8 0000000180013298     ColumnFunctions.obj
 0003:000002d0       ??_R0?AV?$DecRowValue@VSignedPrice@@@@@8 00000001800132d0     ColumnFunctions.obj
 0003:00000308       ??_R0?AV?$CommaRowValue@VSignedPrice@@@@@8 0000000180013308     ColumnFunctions.obj
 0003:00000340       ??_R0?AV?$TypedNumericRowValue@VSignedPrice@@@@@8 0000000180013340     ColumnFunctions.obj
 0003:00000380       ??_R0?AV?$TypedRowValue@VSignedPrice@@@@@8 0000000180013380     ColumnFunctions.obj
 0003:000003b8       ??_R0?AVSecurityPriceRowValueDiffAbs@@@8 00000001800133b8     ColumnFunctions.obj
 0003:000003f0       ??_R0?AVSecurityUIntByIntDivision@@@8 00000001800133f0     ColumnFunctions.obj
 0003:00000420       ??_R0?AVSecurityUIntByIntDivisionNegative@@@8 0000000180013420     ColumnFunctions.obj
 0003:00000458       ??_R0?AVSecurityUIntByIntDivisionFraction@@@8 0000000180013458     ColumnFunctions.obj
 0003:00000490       ??_R0?AVSecurityIntByIntDivision@@@8 0000000180013490     ColumnFunctions.obj
 0003:000004c0       ??_R0?AVSecurityIntByIntDivisionFraction@@@8 00000001800134c0     ColumnFunctions.obj
 0003:000004f8       ??_R0?AVSecurityPriceXInt@@@8 00000001800134f8     ColumnFunctions.obj
 0003:00000520       ??_R0?AVSecurityPriceXIntAbs@@@8 0000000180013520     ColumnFunctions.obj
 0003:00000550       ??_R0?AVPositionMoneyInventoryVRowValue@@@8 0000000180013550     ColumnFunctions.obj
 0003:00000588       ??_R0?AVPositionMoneyPerShareInventoryRowValue@@@8 0000000180013588     ColumnFunctions.obj
 0003:000005c8       ??_R0?AVUCharAsCharRowValue@@@8 00000001800135c8     ColumnFunctions.obj
 0003:000005f8       ??_R0?AVUCharRowValue@@@8  00000001800135f8     ColumnFunctions.obj
 0003:00000620       ??_R0?AV?$TypedUnsignedRowValue@E@@@8 0000000180013620     ColumnFunctions.obj
 0003:00000650       ??_R0?AV?$TypedNumericRowValue@E@@@8 0000000180013650     ColumnFunctions.obj
 0003:00000680       ??_R0?AV?$TypedRowValue@E@@@8 0000000180013680     ColumnFunctions.obj
 0003:000006b0       ??_R0?AVPositionSecurityUCharAsCharOrdinalRowValue@@@8 00000001800136b0     ColumnFunctions.obj
 0003:000006f8       ??_R0?AVPositionSecurityIntByIntDivision@@@8 00000001800136f8     ColumnFunctions.obj
 0003:00000730       ??_R0?AVPositionSecurityPriceRowValue@@@8 0000000180013730     ColumnFunctions.obj
 0003:00000768       ??_R0?AVPositionSecurityUIntRowValue@@@8 0000000180013768     ColumnFunctions.obj
 0003:000007a0       ??_R0?AVPositionUIntRowValue@@@8 00000001800137a0     ColumnFunctions.obj
 0003:000007d0       ??_R0?AVPositionUIntRowValueNull@@@8 00000001800137d0     ColumnFunctions.obj
 0003:00000800       ??_R0?AVPositionSecurityUIntDevidedByUIntAlternateInventoryRowValue@@@8 0000000180013800     ColumnFunctions.obj
 0003:00000858       ??_R0?AVPriceRowValue@@@8  0000000180013858     ColumnFunctions.obj
 0003:00000880       ??_R0?AV?$MonetaryUnsignedRowValue@VPrice@@@@@8 0000000180013880     ColumnFunctions.obj
 0003:000008c0       ??_R0?AV?$DecUnsignedRowValue@VPrice@@@@@8 00000001800138c0     ColumnFunctions.obj
 0003:000008f8       ??_R0?AV?$CommaUnsignedRowValue@VPrice@@@@@8 00000001800138f8     ColumnFunctions.obj
 0003:00000930       ??_R0?AV?$TypedUnsignedRowValue@VPrice@@@@@8 0000000180013930     ColumnFunctions.obj
 0003:00000968       ??_R0?AV?$TypedNumericRowValue@VPrice@@@@@8 0000000180013968     ColumnFunctions.obj
 0003:000009a0       ??_R0?AV?$TypedRowValue@VPrice@@@@@8 00000001800139a0     ColumnFunctions.obj
 0003:000009d0       ??_R0?AVPositionSecurityUIntDevidedByUIntInventoryRowValue@@@8 00000001800139d0     ColumnFunctions.obj
 0003:00000a20       ??_R0?AVAccountMoneyInventoryVRowValue@@@8 0000000180013a20     ColumnFunctions.obj
 0003:00000a58       ??_R0?AVAccountMoneyPerShareInventoryRowValue@@@8 0000000180013a58     ColumnFunctions.obj
 0003:00000a98       ??_R0?AV?$CommaUnsignedNumberRowValue@I@@@8 0000000180013a98     ColumnFunctions.obj
 0003:00000ad0       ??_R0?AV?$CommaUnsignedRowValue@I@@@8 0000000180013ad0     ColumnFunctions.obj
 0003:00000b00       ??_R0?AV?$TypedUnsignedRowValue@I@@@8 0000000180013b00     ColumnFunctions.obj
 0003:00000b30       ??_R0?AV?$TypedNumericRowValue@I@@@8 0000000180013b30     ColumnFunctions.obj
 0003:00000b60       ??_R0?AV?$TypedRowValue@I@@@8 0000000180013b60     ColumnFunctions.obj
 0003:00000b88       ??_R0?AVUIntRowValue@@@8   0000000180013b88     ColumnFunctions.obj
 0003:00000bb0       ??_R0?AV?$MonetaryRowValue@VMoney@@@@@8 0000000180013bb0     ColumnFunctions.obj
 0003:00000be8       ??_R0?AV?$DecRowValue@VMoney@@@@@8 0000000180013be8     ColumnFunctions.obj
 0003:00000c18       ??_R0?AV?$CommaRowValue@VMoney@@@@@8 0000000180013c18     ColumnFunctions.obj
 0003:00000c48       ??_R0?AV?$TypedNumericRowValue@VMoney@@@@@8 0000000180013c48     ColumnFunctions.obj
 0003:00000c80       ??_R0?AV?$TypedRowValue@VMoney@@@@@8 0000000180013c80     ColumnFunctions.obj
 0003:00000cb0       ??_R0?AVMoneyRowValue@@@8  0000000180013cb0     ColumnFunctions.obj
 0003:00000cd8       ??_R0?AVCCmdTarget@@@8     0000000180013cd8     TakionAdditionalColumns.obj
 0003:00000d00       ??_R0?AVCObject@@@8        0000000180013d00     TakionAdditionalColumns.obj
 0003:00000d20       ??_R0?AVCWinApp@@@8        0000000180013d20     TakionAdditionalColumns.obj
 0003:00000d40       ??_R0?AVCWinThread@@@8     0000000180013d40     TakionAdditionalColumns.obj
 0003:00000d68       ??_R0?AVTakionAdditionalColumns@@@8 0000000180013d68     TakionAdditionalColumns.obj
 0003:00000da0       __afxForceEXCLUDE          0000000180013da0     mfcs140:nolib.obj
 0003:00000da4       ?__mixedModuleStartup@@3HA 0000000180013da4     mfcs140:dllmodul.obj
 0003:00000db0       __afxForceUSRDLL           0000000180013db0     mfcs140:dllmodul.obj
 0003:00000ef8       __afxForceSTDAFX           0000000180013ef8     mfcs140:stdafx.obj
 0003:00000f00       __scrt_current_native_startup_state 0000000180013f00     msvcrt:utility.obj
 0003:00000f08       __scrt_native_startup_lock 0000000180013f08     msvcrt:utility.obj
 0003:00000f94       _tls_index                 0000000180013f94     msvcrt:tlssup.obj
 0003:00001510       __favor                    0000000180014510     msvcrt:_cpu_disp_.obj
 0003:00001514       __scrt_debugger_hook_flag  0000000180014514     msvcrt:utility_desktop.obj
 0003:00001520       ?__type_info_root_node@@3U__type_info_node@@A 0000000180014520     msvcrt:tncleanup.obj
 0003:00001530       ?_OptionsStorage@?1??__local_stdio_printf_options@@9@4_KA 0000000180014530     msvcrt:default_local_stdio_options.obj
 0003:00001538       ?_OptionsStorage@?1??__local_stdio_scanf_options@@9@4_KA 0000000180014538     msvcrt:default_local_stdio_options.obj
 0003:00001540       ?_AtlBaseModule@ATL@@3VCAtlBaseModule@1@A 0000000180014540     atls:atlbase.obj
 0003:000015a0       __@@_PchSym_@00@UwwUexgllohUexHoryhUhsrkUzgonuxUhixUzgoUzgohUlyqBiUznwGEUhgwzucOlyq@CB7A8FA0488D52BF 00000001800145a0     atls:stdafx.obj
 0003:000015b0       ?takionMainWnd@@3PEAVTakionMainWnd@@EA 00000001800145b0     TakionAdditionalColumns.obj
 0003:000015c0       ?theApp@@3VTakionAdditionalColumns@@A 00000001800145c0     TakionAdditionalColumns.obj
 0003:000017c0       __@@_PchSym_@00@UdlipUvcgvmhrlmUvcgvmhrlmlfgkfgUcGEUivovzhvUgzprlmzwwrgrlmzoxlofnmhUhgwzucOlyq@D83FC60F8F4D0A77 00000001800147c0     stdafx.obj
 0003:000017c4       ?m_bInitFailed@CAtlBaseModule@ATL@@2_NA 00000001800147c4     stdafx.obj
 0003:000017c8       __dyn_tls_init_callback    00000001800147c8     <common>
 0006:00000000       _tls_start                 0000000180017000     msvcrt:tlssup.obj
 0006:00000004       _Init_thread_epoch         0000000180017004     msvcrt:thread_safe_statics.obj
 0006:00000008       _tls_end                   0000000180017008     msvcrt:tlssup.obj

 entry point at        0001:000037b8

 Static symbols

 0002:ffffa000       .idata$6                   0000000180000000     oleaut32:OLEAUT32.dll
 0002:ffffa000       .idata$6                   0000000180000000     user32:USER32.dll
 0001:00000000       ??__EtheApp@@YAXXZ         0000000180001000 f   TakionAdditionalColumns.obj
 0001:0000001c       ??__EafxModuleState@@YAXXZ 000000018000101c f   mfcs140:dllmodul.obj
 0001:00000064       ??__E_AtlBaseModule@ATL@@YAXXZ 0000000180001064 f   atls:atlbase.obj
 0001:00000834       $LN97                      0000000180001834     ColumnFunctions.obj
 0001:000009bc       $LN15                      00000001800019bc     ColumnFunctions.obj
 0001:000014bc       $LN165                     00000001800024bc     ColumnFunctions.obj
 0001:000016e8       $LN19                      00000001800026e8     ColumnFunctions.obj
 0001:00002ee0       $$000000                   0000000180003ee0     msvcrt:_amdsecgs_.obj
 0001:00003324       ?__scrt_initialize_thread_safe_statics@@YAHXZ 0000000180004324 f   msvcrt:thread_safe_statics.obj
 0001:00003444       ?__scrt_uninitialize_thread_safe_statics@@YAXXZ 0000000180004444 f   msvcrt:thread_safe_statics.obj
 0001:0000346c       ?dllmain_crt_dispatch@@YAHQEAUHINSTANCE__@@KQEAX@Z 000000018000446c f   msvcrt:dll_dllmain.obj
 0001:000034bc       ?dllmain_crt_process_attach@@YAHQEAUHINSTANCE__@@QEAX@Z 00000001800044bc f   msvcrt:dll_dllmain.obj
 0001:000035e8       ?dllmain_crt_process_detach@@YAH_N@Z 00000001800045e8 f   msvcrt:dll_dllmain.obj
 0001:0000366c       ?dllmain_dispatch@@YAHQEAUHINSTANCE__@@KQEAX@Z 000000018000466c f   msvcrt:dll_dllmain.obj
 0001:00003764       ?dllmain_raw@@YAHQEAUHINSTANCE__@@KQEAX@Z 0000000180004764 f   msvcrt:dll_dllmain.obj
 0001:00003908       capture_previous_context   0000000180004908 f   msvcrt:gs_report.obj
 0001:000040cc       _IsNonwritableInCurrentImage 00000001800050cc f   mfcs140:rawdllmainproxy.obj
 0001:00004170       $$000000                   0000000180005170     msvcrt:_guard_dispatch_.obj
 0001:00004182       ?dtor$0@?0??AfxWndProcDllStatic@@YA_JPEAUHWND__@@I_K_J@Z@4HA 0000000180005182 f   mfcs140:dllmodul.obj
 0001:0000418e       InternalDllMain$dtor$0     000000018000518e f   mfcs140:dllmodul.obj
 0001:0000419a       InternalDllMain$catch$2    000000018000519a f   mfcs140:dllmodul.obj
 0001:000041a9       __catch$InternalDllMain$2  00000001800051a9 f   mfcs140:dllmodul.obj
 0001:000041e8       InternalDllMain$dtor$1     00000001800051e8 f   mfcs140:dllmodul.obj
 0001:000041f4       _IsNonwritableInCurrentImage$filt$0 00000001800051f4 f   mfcs140:rawdllmainproxy.obj
 0001:000041f4       __scrt_is_nonwritable_in_current_image$filt$0 00000001800051f4 f   msvcrt:utility.obj
 0001:0000420c       ?fin$0@?0??dllmain_crt_process_attach@@YAHQEAUHINSTANCE__@@QEAX@Z@4HA 000000018000520c f   msvcrt:dll_dllmain.obj
 0001:00004223       ?fin$0@?0??dllmain_crt_process_detach@@YAH_N@Z@4HA 0000000180005223 f   msvcrt:dll_dllmain.obj
 0001:0000423f       ?filt$0@?0??dllmain_dispatch@@YAHQEAUHINSTANCE__@@KQEAX@Z@4HA 000000018000523f f   msvcrt:dll_dllmain.obj
 0001:00004280       ??__FtheApp@@YAXXZ         0000000180005280 f   TakionAdditionalColumns.obj
 0001:000042c8       ??__FafxModuleState@@YAXXZ 00000001800052c8 f   mfcs140:dllmodul.obj
 0001:000042d4       ??__F_AtlBaseModule@ATL@@YAXXZ 00000001800052d4 f   atls:atlbase.obj
 0002:00000ea0       ?afxModuleState$initializer$@@3P6AXXZEA 0000000180006ea0     mfcs140:dllmodul.obj
 0002:00000ea8       ?_AtlBaseModule$initializer$@ATL@@3P6AXXZEA 0000000180006ea8     atls:atlbase.obj
 0002:00000eb0       ?theApp$initializer$@@3P6AXXZEA 0000000180006eb0     TakionAdditionalColumns.obj
 0002:00000ec8       ?__scrt_initialize_tss_var@@3P6AHXZEA 0000000180006ec8     msvcrt:thread_safe_statics.obj
 0002:00000f18       $cppxdata$?AfxWndProcDllStatic@@YA_JPEAUHWND__@@I_K_J@Z 0000000180006f18     mfcs140:dllmodul.obj
 0002:00000f40       $cppxdata$InternalDllMain  0000000180006f40     mfcs140:dllmodul.obj
 0002:00001018       GS_ExceptionPointers       0000000180007018     msvcrt:gs_report.obj
 0002:00002f88       ?ObserverHeaderVersion@@3QEBDEB 0000000180008f88     TakionAdditionalColumns.obj
 0002:00002f90       ?TakionLogHeaderVersion@@3QEBDEB 0000000180008f90     TakionAdditionalColumns.obj
 0002:00002f98       ?TakionDataHeaderVersion@@3QEBDEB 0000000180008f98     TakionAdditionalColumns.obj
 0002:00002fa0       ?TakionGuiHeaderVersion@@3QEBDEB 0000000180008fa0     TakionAdditionalColumns.obj
 0002:00002fa8       ?TakionUtilsHeaderVersion@@3QEBDEB 0000000180008fa8     TakionAdditionalColumns.obj
 0002:00002fb0       ?UtilsHeaderVersion@@3QEBDEB 0000000180008fb0     TakionAdditionalColumns.obj
 0002:00002fb8       ?settingDel@@3DB           0000000180008fb8     stdafx.obj
 0002:000055e0       $unwind$??_GPositionSecurityPriceRowValue@@UEAAPEAXI@Z 000000018000b5e0     ColumnFunctions.obj
 0002:000055e0       $unwind$??_GPositionSecurityIntByIntDivision@@UEAAPEAXI@Z 000000018000b5e0     ColumnFunctions.obj
 0002:000055e0       $unwind$??_GPositionSecurityUCharAsCharOrdinalRowValue@@UEAAPEAXI@Z 000000018000b5e0     ColumnFunctions.obj
 0002:000055e0       $unwind$??_GTakionAdditionalColumns@@UEAAPEAXI@Z 000000018000b5e0     TakionAdditionalColumns.obj
 0002:000055e0       $unwind$??_GPositionSecurityUIntDevidedByUIntInventoryRowValue@@UEAAPEAXI@Z 000000018000b5e0     ColumnFunctions.obj
 0002:000055e0       $unwind$??_GPositionMoneyPerShareInventoryRowValue@@UEAAPEAXI@Z 000000018000b5e0     ColumnFunctions.obj
 0002:000055e0       $unwind$??_GPositionSecurityUIntDevidedByUIntAlternateInventoryRowValue@@UEAAPEAXI@Z 000000018000b5e0     ColumnFunctions.obj
 0002:000055e0       $unwind$??_GSecurityPriceXIntAbs@@UEAAPEAXI@Z 000000018000b5e0     ColumnFunctions.obj
 0002:000055e0       $unwind$??_GSecurityIntByIntDivisionFraction@@UEAAPEAXI@Z 000000018000b5e0     ColumnFunctions.obj
 0002:000055e0       $unwind$AdjustMsPositionTotals 000000018000b5e0     ColumnFunctions.obj
 0002:000055e0       $unwind$??_GSecurityUIntByIntDivisionFraction@@UEAAPEAXI@Z 000000018000b5e0     ColumnFunctions.obj
 0002:000055e0       $unwind$??_GSecurityPriceRowValueDiffAbs@@UEAAPEAXI@Z 000000018000b5e0     ColumnFunctions.obj
 0002:000055e0       $unwind$??_GPositionUIntRowValueNull@@UEAAPEAXI@Z 000000018000b5e0     ColumnFunctions.obj
 0002:000055e0       $unwind$??_GAccountMoneyPerShareInventoryRowValue@@UEAAPEAXI@Z 000000018000b5e0     ColumnFunctions.obj
 0002:000055e0       $unwind$??_GUIntRowValue@@UEAAPEAXI@Z 000000018000b5e0     ColumnFunctions.obj
 0002:000055e0       $unwind$??_GMoneyRowValue@@UEAAPEAXI@Z 000000018000b5e0     ColumnFunctions.obj
 0002:000055e0       $unwind$??_GPositionSecurityUIntRowValue@@UEAAPEAXI@Z 000000018000b5e0     ColumnFunctions.obj
 0002:000055e0       $unwind$??0CAtlBaseModule@ATL@@QEAA@XZ 000000018000b5e0     atls:atlbase.obj
 0002:000055e0       $unwind$ApplyMsPosition    000000018000b5e0     ColumnFunctions.obj
 0002:000055e0       $unwind$??_GSecurityIntRowValueDiff@@UEAAPEAXI@Z 000000018000b5e0     ColumnFunctions.obj
 0002:000055e0       $unwind$??_G_AFX_DLL_MODULE_STATE@@UEAAPEAXI@Z 000000018000b5e0     mfcs140:dllmodul.obj
 0002:000055ec       $unwind$DllMain            000000018000b5ec     mfcs140:dllmodul.obj
 0002:000055ec       $unwind$__raise_securityfailure 000000018000b5ec     msvcrt:gs_report.obj
 0002:000055ec       $unwind$__scrt_uninitialize_crt 000000018000b5ec     msvcrt:utility.obj
 0002:000055ec       $unwind$??_Gtype_info@@UEAAPEAXI@Z 000000018000b5ec     msvcrt:std_type_info_static.obj
 0002:000055ec       $unwind$__scrt_initialize_crt 000000018000b5ec     msvcrt:utility.obj
 0002:000055ec       $unwind$??1CAtlBaseModule@ATL@@QEAA@XZ 000000018000b5ec     atls:atlbase.obj
 0002:000055ec       $unwind$GetPosCellColor    000000018000b5ec     ColumnFunctions.obj
 0002:000055ec       $unwind$??0TakionAdditionalColumns@@QEAA@XZ 000000018000b5ec     TakionAdditionalColumns.obj
 0002:000055ec       $unwind$__scrt_release_startup_lock 000000018000b5ec     msvcrt:utility.obj
 0002:000055ec       $unwind$??1?$basic_string@DU?$char_traits@D@std@@V?$allocator@D@2@@std@@QEAA@XZ 000000018000b5ec     TakionAdditionalColumns.obj
 0002:000055ec       $unwind$UpdateMsPositionValues 000000018000b5ec     ColumnFunctions.obj
 0002:000055ec       $unwind$_onexit            000000018000b5ec     msvcrt:utility.obj
 0002:000055ec       $unwind$InvalidateMsPositionColumns 000000018000b5ec     ColumnFunctions.obj
 0002:000055f4       $unwind$InvalidateMsPositionTotals 000000018000b5f4     ColumnFunctions.obj
 0002:00005604       $unwind$CreateMsTotalRowValue 000000018000b604     ColumnFunctions.obj
 0002:00005610       $unwind$CreateMsRowValue   000000018000b610     ColumnFunctions.obj
 0002:00005624       $unwind$ActUpdateNonCumulativeRowValue 000000018000b624     ColumnFunctions.obj
 0002:00005624       $unwind$PosUpdateNonCumulativeRowValue 000000018000b624     ColumnFunctions.obj
 0002:00005634       $unwind$CreatePosTotalRowValue 000000018000b634     ColumnFunctions.obj
 0002:00005634       $unwind$CreateActTotalRowValue 000000018000b634     ColumnFunctions.obj
 0002:0000563c       $chain$0$CreatePosTotalRowValue 000000018000b63c     ColumnFunctions.obj
 0002:00005650       $chain$2$CreatePosTotalRowValue 000000018000b650     ColumnFunctions.obj
 0002:00005664       $chain$3$CreatePosTotalRowValue 000000018000b664     ColumnFunctions.obj
 0002:00005674       $chain$1$GetPosCellColor   000000018000b674     ColumnFunctions.obj
 0002:0000568c       $chain$7$GetPosCellColor   000000018000b68c     ColumnFunctions.obj
 0002:0000568c       $chain$5$GetPosCellColor   000000018000b68c     ColumnFunctions.obj
 0002:0000568c       $chain$3$GetPosCellColor   000000018000b68c     ColumnFunctions.obj
 0002:000056a4       $unwind$CreatePosRowValue  000000018000b6a4     ColumnFunctions.obj
 0002:000056b8       $unwind$__GSHandlerCheckCommon 000000018000b6b8     msvcrt:_gshandler_.obj
 0002:000056b8       $unwind$GetPosColumnInfo   000000018000b6b8     ColumnFunctions.obj
 0002:000056c0       $chain$0$GetPosColumnInfo  000000018000b6c0     ColumnFunctions.obj
 0002:000056d4       $chain$1$GetPosColumnInfo  000000018000b6d4     ColumnFunctions.obj
 0002:000056e4       $chain$0$CreateActTotalRowValue 000000018000b6e4     ColumnFunctions.obj
 0002:000056f8       $chain$2$CreateActTotalRowValue 000000018000b6f8     ColumnFunctions.obj
 0002:0000570c       $chain$3$CreateActTotalRowValue 000000018000b70c     ColumnFunctions.obj
 0002:0000571c       $unwind$CreateActRowValue  000000018000b71c     ColumnFunctions.obj
 0002:00005730       $unwind$__scrt_acquire_startup_lock 000000018000b730     msvcrt:utility.obj
 0002:00005730       $unwind$__scrt_dllmain_crt_thread_attach 000000018000b730     msvcrt:utility.obj
 0002:00005730       $unwind$?__scrt_uninitialize_thread_safe_statics@@YAXXZ 000000018000b730     msvcrt:thread_safe_statics.obj
 0002:00005730       $unwind$ExtensionInitialize 000000018000b730     TakionAdditionalColumns.obj
 0002:00005730       $unwind$?dllmain_crt_dispatch@@YAHQEAUHINSTANCE__@@KQEAX@Z 000000018000b730     msvcrt:dll_dllmain.obj
 0002:00005730       $unwind$??__FtheApp@@YAXXZ 000000018000b730     TakionAdditionalColumns.obj
 0002:00005730       $unwind$__scrt_dllmain_uninitialize_critical 000000018000b730     msvcrt:utility.obj
 0002:00005730       $unwind$??__EtheApp@@YAXXZ 000000018000b730     TakionAdditionalColumns.obj
 0002:00005730       $unwind$??__E_AtlBaseModule@ATL@@YAXXZ 000000018000b730     atls:atlbase.obj
 0002:00005730       $unwind$atexit             000000018000b730     msvcrt:utility.obj
 0002:00005730       $unwind$__scrt_dllmain_after_initialize_c 000000018000b730     msvcrt:utility.obj
 0002:00005730       $unwind$__scrt_dllmain_uninitialize_c 000000018000b730     msvcrt:utility.obj
 0002:00005730       $unwind$RawDllMain         000000018000b730     mfcs140:dllmodul.obj
 0002:00005730       $unwind$__GSHandlerCheck   000000018000b730     msvcrt:_gshandler_.obj
 0002:00005730       $unwind$?AfxGetApp@@YAPEAVCWinApp@@XZ 000000018000b730     mfcs140:dllmodulx.obj
 0002:00005730       $unwind$__scrt_dllmain_crt_thread_detach 000000018000b730     msvcrt:utility.obj
 0002:00005730       $unwind$__scrt_dllmain_before_initialize_c 000000018000b730     msvcrt:utility.obj
 0002:00005730       $unwind$__scrt_initialize_default_local_stdio_options 000000018000b730     msvcrt:default_local_stdio_options.obj
 0002:00005738       $unwind$?InitInstance@TakionAdditionalColumns@@UEAAHXZ 000000018000b738     TakionAdditionalColumns.obj
 0002:00005740       $unwind$?AfxWndProcDllStatic@@YA_JPEAUHWND__@@I_K_J@Z 000000018000b740     mfcs140:dllmodul.obj
 0002:0000575c       $stateUnwindMap$?AfxWndProcDllStatic@@YA_JPEAUHWND__@@I_K_J@Z 000000018000b75c     mfcs140:dllmodul.obj
 0002:00005768       $ip2state$?AfxWndProcDllStatic@@YA_JPEAUHWND__@@I_K_J@Z 000000018000b768     mfcs140:dllmodul.obj
 0002:00005780       $unwind$??__EafxModuleState@@YAXXZ 000000018000b780     mfcs140:dllmodul.obj
 0002:00005788       $unwind$InternalDllMain    000000018000b788     mfcs140:dllmodul.obj
 0002:000057a0       $stateUnwindMap$InternalDllMain 000000018000b7a0     mfcs140:dllmodul.obj
 0002:000057c0       $tryMap$InternalDllMain    000000018000b7c0     mfcs140:dllmodul.obj
 0002:000057d4       $handlerMap$0$InternalDllMain 000000018000b7d4     mfcs140:dllmodul.obj
 0002:000057f0       $ip2state$InternalDllMain  000000018000b7f0     mfcs140:dllmodul.obj
 0002:00005838       $unwind$InternalDllMain$catch$2 000000018000b838     mfcs140:dllmodul.obj
 0002:00005850       $xdatasym                  000000018000b850     msvcrt:_amdsecgs_.obj
 0002:00005854       $unwind$__scrt_is_nonwritable_in_current_image 000000018000b854     msvcrt:utility.obj
 0002:00005874       $unwind$__scrt_is_nonwritable_in_current_image$filt$0 000000018000b874     msvcrt:utility.obj
 0002:00005874       $unwind$_IsNonwritableInCurrentImage$filt$0 000000018000b874     mfcs140:rawdllmainproxy.obj
 0002:0000587c       $unwind$__scrt_initialize_onexit_tables 000000018000b87c     msvcrt:utility.obj
 0002:00005888       $unwind$?__scrt_initialize_thread_safe_statics@@YAHXZ 000000018000b888     msvcrt:thread_safe_statics.obj
 0002:00005888       $unwind$_DllMainCRTStartup 000000018000b888     msvcrt:dll_dllmain.obj
 0002:00005888       $unwind$_RTC_Initialize    000000018000b888     msvcrt:_initsect_.obj
 0002:00005888       $unwind$_RTC_Terminate     000000018000b888     msvcrt:_initsect_.obj
 0002:00005898       $unwind$?dllmain_crt_process_attach@@YAHQEAUHINSTANCE__@@QEAX@Z 000000018000b898     msvcrt:dll_dllmain.obj
 0002:000058c4       $unwind$?fin$0@?0??dllmain_crt_process_detach@@YAH_N@Z@4HA 000000018000b8c4     msvcrt:dll_dllmain.obj
 0002:000058c4       $unwind$?fin$0@?0??dllmain_crt_process_attach@@YAHQEAUHINSTANCE__@@QEAX@Z@4HA 000000018000b8c4     msvcrt:dll_dllmain.obj
 0002:000058cc       $unwind$?dllmain_crt_process_detach@@YAH_N@Z 000000018000b8cc     msvcrt:dll_dllmain.obj
 0002:000058f4       $unwind$__scrt_dllmain_exception_filter 000000018000b8f4     msvcrt:utility.obj
 0002:000058f4       $unwind$_RawDllMainProxy   000000018000b8f4     mfcs140:rawdllmainproxy.obj
 0002:000058f4       $unwind$?dllmain_raw@@YAHQEAUHINSTANCE__@@KQEAX@Z 000000018000b8f4     msvcrt:dll_dllmain.obj
 0002:00005908       $unwind$?dllmain_dispatch@@YAHQEAUHINSTANCE__@@KQEAX@Z 000000018000b908     msvcrt:dll_dllmain.obj
 0002:00005930       $unwind$?filt$0@?0??dllmain_dispatch@@YAHQEAUHINSTANCE__@@KQEAX@Z@4HA 000000018000b930     msvcrt:dll_dllmain.obj
 0002:00005938       $unwind$__report_gsfailure 000000018000b938     msvcrt:gs_report.obj
 0002:00005940       $unwind$capture_previous_context 000000018000b940     msvcrt:gs_report.obj
 0002:0000594c       $unwind$__isa_available_init 000000018000b94c     msvcrt:_cpu_disp_.obj
 0002:0000595c       $unwind$__scrt_fastfail    000000018000b95c     msvcrt:utility_desktop.obj
 0002:0000596c       $unwind$__security_init_cookie 000000018000b96c     msvcrt:gs_support.obj
 0002:00005978       $xdatasym                  000000018000b978     msvcrt:_guard_dispatch_.obj
 0002:0000597c       $unwind$_IsNonwritableInCurrentImage 000000018000b97c     mfcs140:rawdllmainproxy.obj
 0002:000059a0       .edata                     000000018000b9a0     TakionAdditionalColumns.exp
 0002:000059c8       rgpv                       000000018000b9c8     TakionAdditionalColumns.exp
 0002:00005c84       rgszName                   000000018000bc84     TakionAdditionalColumns.exp
 0002:00005d70       rgwOrd                     000000018000bd70     TakionAdditionalColumns.exp
 0002:00005de6       szName                     000000018000bde6     TakionAdditionalColumns.exp
 0002:00005e02       $N00116                    000000018000be02     TakionAdditionalColumns.exp
 0002:00005e1e       $N00117                    000000018000be1e     TakionAdditionalColumns.exp
 0002:00005e3d       $N00115                    000000018000be3d     TakionAdditionalColumns.exp
 0002:00005e5c       $N00053                    000000018000be5c     TakionAdditionalColumns.exp
 0002:00005e6d       $N00054                    000000018000be6d     TakionAdditionalColumns.exp
 0002:00005e82       $N00055                    000000018000be82     TakionAdditionalColumns.exp
 0002:00005e95       $N00051                    000000018000be95     TakionAdditionalColumns.exp
 0002:00005eac       $N00047                    000000018000beac     TakionAdditionalColumns.exp
 0002:00005ebc       $N00112                    000000018000bebc     TakionAdditionalColumns.exp
 0002:00005ece       $N00113                    000000018000bece     TakionAdditionalColumns.exp
 0002:00005ee5       $N00044                    000000018000bee5     TakionAdditionalColumns.exp
 0002:00005ef6       $N00045                    000000018000bef6     TakionAdditionalColumns.exp
 0002:00005f0c       $N00172                    000000018000bf0c     TakionAdditionalColumns.exp
 0002:00005f1e       $N00173                    000000018000bf1e     TakionAdditionalColumns.exp
 0002:00005f35       $N00072                    000000018000bf35     TakionAdditionalColumns.exp
 0002:00005f47       $N00073                    000000018000bf47     TakionAdditionalColumns.exp
 0002:00005f5e       $N00003                    000000018000bf5e     TakionAdditionalColumns.exp
 0002:00005f72       $N00004                    000000018000bf72     TakionAdditionalColumns.exp
 0002:00005f85       $N00110                    000000018000bf85     TakionAdditionalColumns.exp
 0002:00005fa1       $N00114                    000000018000bfa1     TakionAdditionalColumns.exp
 0002:00005fb1       $N00111                    000000018000bfb1     TakionAdditionalColumns.exp
 0002:00005fc2       $N00005                    000000018000bfc2     TakionAdditionalColumns.exp
 0002:00005fd6       $N00042                    000000018000bfd6     TakionAdditionalColumns.exp
 0002:00005ff1       $N00052                    000000018000bff1     TakionAdditionalColumns.exp
 0002:00006000       $N00043                    000000018000c000     TakionAdditionalColumns.exp
 0002:00006010       $N00017                    000000018000c010     TakionAdditionalColumns.exp
 0002:00006029       $N00016                    000000018000c029     TakionAdditionalColumns.exp
 0002:0000603c       $N00170                    000000018000c03c     TakionAdditionalColumns.exp
 0002:00006058       $N00174                    000000018000c058     TakionAdditionalColumns.exp
 0002:00006068       $N00171                    000000018000c068     TakionAdditionalColumns.exp
 0002:00006079       $N00070                    000000018000c079     TakionAdditionalColumns.exp
 0002:00006095       $N00074                    000000018000c095     TakionAdditionalColumns.exp
 0002:000060a5       $N00071                    000000018000c0a5     TakionAdditionalColumns.exp
 0002:000060b6       $N00013                    000000018000c0b6     TakionAdditionalColumns.exp
 0002:000060d1       $N00012                    000000018000c0d1     TakionAdditionalColumns.exp
 0002:000060e6       $N00018                    000000018000c0e6     TakionAdditionalColumns.exp
 0002:00006104       $N00019                    000000018000c104     TakionAdditionalColumns.exp
 0002:00006122       $N00011                    000000018000c122     TakionAdditionalColumns.exp
 0002:0000613c       $N00010                    000000018000c13c     TakionAdditionalColumns.exp
 0002:00006150       $N00015                    000000018000c150     TakionAdditionalColumns.exp
 0002:0000616a       $N00014                    000000018000c16a     TakionAdditionalColumns.exp
 0002:0000617e       $N00009                    000000018000c17e     TakionAdditionalColumns.exp
 0002:0000619a       $N00008                    000000018000c19a     TakionAdditionalColumns.exp
 0002:000061b0       $N00007                    000000018000c1b0     TakionAdditionalColumns.exp
 0002:000061c6       $N00006                    000000018000c1c6     TakionAdditionalColumns.exp
 0002:000061d6       $N00048                    000000018000c1d6     TakionAdditionalColumns.exp
 0002:000061f2       $N00049                    000000018000c1f2     TakionAdditionalColumns.exp
 0002:0000620d       $N00046                    000000018000c20d     TakionAdditionalColumns.exp
 0002:00006220       $N00041                    000000018000c220     TakionAdditionalColumns.exp
 0002:00006230       $N00057                    000000018000c230     TakionAdditionalColumns.exp
 0002:0000624b       $N00058                    000000018000c24b     TakionAdditionalColumns.exp
 0002:00006269       $N00056                    000000018000c269     TakionAdditionalColumns.exp
 0002:00006287       $N00176                    000000018000c287     TakionAdditionalColumns.exp
 0002:000062a3       $N00177                    000000018000c2a3     TakionAdditionalColumns.exp
 0002:000062c2       $N00175                    000000018000c2c2     TakionAdditionalColumns.exp
 0002:000062e1       $N00076                    000000018000c2e1     TakionAdditionalColumns.exp
 0002:000062fd       $N00077                    000000018000c2fd     TakionAdditionalColumns.exp
 0002:0000631c       $N00075                    000000018000c31c     TakionAdditionalColumns.exp
 0002:0000633b       $N00050                    000000018000c33b     TakionAdditionalColumns.exp
 0002:000072e0       .idata$6                   000000018000d2e0     Observer:Observer.dll
 0002:000072ee       .idata$6                   000000018000d2ee     TakionData:TakionData.dll
 0002:0000b864       .idata$6                   0000000180011864     TakionGui:TakionGui.dll
 0002:0000b872       .idata$6                   0000000180011872     TakionLog:TakionLog.dll
 0002:0000bd4c       .idata$6                   0000000180011d4c     TakionUtils:TakionUtils.dll
 0002:0000bdac       .idata$6                   0000000180011dac     Utils:Utils.dll
 0002:0000bdb6       .idata$6                   0000000180011db6     mfc140:mfc140.dll
 0002:0000bfb0       .idata$6                   0000000180011fb0     kernel32:KERNEL32.dll
 0002:0000c03c       .idata$6                   000000018001203c     vcruntime:VCRUNTIME140.dll
 0002:0000c156       .idata$6                   0000000180012156     ucrt:api-ms-win-crt-string-l1-1-0.dll
 0002:0000c178       .idata$6                   0000000180012178     ucrt:api-ms-win-crt-runtime-l1-1-0.dll
 0002:0000c19a       .idata$6                   000000018001219a     ucrt:api-ms-win-crt-heap-l1-1-0.dll
 0003:00000dc0       ?afxModuleState@@3V_AFX_DLL_MODULE_STATE@@A 0000000180013dc0     mfcs140:dllmodul.obj
 0003:00000ec8       ?controlDLL@@3UAFX_EXTENSION_MODULE@@A 0000000180013ec8     mfcs140:dllmodul.obj
 0003:00000ef0       ?pafxModuleStatePrev@@3PEAVAFX_MODULE_STATE@@EA 0000000180013ef0     mfcs140:dllmodul.obj
 0003:00000f10       ?module_local_atexit_table@@3U_onexit_table_t@@A 0000000180013f10     msvcrt:utility.obj
 0003:00000f28       ?module_local_at_quick_exit_table@@3U_onexit_table_t@@A 0000000180013f28     msvcrt:utility.obj
 0003:00000f40       ?is_initialized_as_dll@@3_NA 0000000180013f40     msvcrt:utility.obj
 0003:00000f48       ?_Tss_mutex@@3U_RTL_CRITICAL_SECTION@@A 0000000180013f48     msvcrt:thread_safe_statics.obj
 0003:00000f70       ?_Tss_cv@@3U_RTL_CONDITION_VARIABLE@@A 0000000180013f70     msvcrt:thread_safe_statics.obj
 0003:00000f78       ?_Tss_event@@3PEAXEA       0000000180013f78     msvcrt:thread_safe_statics.obj
 0003:00000f80       ?encoded_sleep_condition_variable_cs@@3P6AHPEAU_RTL_CONDITION_VARIABLE@@PEAU_RTL_CRITICAL_SECTION@@K@ZEA 0000000180013f80     msvcrt:thread_safe_statics.obj
 0003:00000f88       ?encoded_wake_all_condition_variable@@3P6AXPEAU_RTL_CONDITION_VARIABLE@@@ZEA 0000000180013f88     msvcrt:thread_safe_statics.obj
 0003:00000f90       ?__proc_attached@@3HA      0000000180013f90     msvcrt:dll_dllmain.obj
 0003:00000fa0       GS_ExceptionRecord         0000000180013fa0     msvcrt:gs_report.obj
 0003:00001040       GS_ContextRecord           0000000180014040     msvcrt:gs_report.obj
 0004:00000000       $pdata$??__EtheApp@@YAXXZ  0000000180015000     TakionAdditionalColumns.obj
 0004:0000000c       $pdata$??__EafxModuleState@@YAXXZ 000000018001500c     mfcs140:dllmodul.obj
 0004:00000018       $pdata$??__E_AtlBaseModule@ATL@@YAXXZ 0000000180015018     atls:atlbase.obj
 0004:00000024       $pdata$ApplyMsPosition     0000000180015024     ColumnFunctions.obj
 0004:00000030       $pdata$InvalidateMsPositionColumns 0000000180015030     ColumnFunctions.obj
 0004:0000003c       $pdata$InvalidateMsPositionTotals 000000018001503c     ColumnFunctions.obj
 0004:00000048       $pdata$UpdateMsPositionValues 0000000180015048     ColumnFunctions.obj
 0004:00000054       $pdata$AdjustMsPositionTotals 0000000180015054     ColumnFunctions.obj
 0004:00000060       $pdata$CreateMsTotalRowValue 0000000180015060     ColumnFunctions.obj
 0004:0000006c       $pdata$CreateMsRowValue    000000018001506c     ColumnFunctions.obj
 0004:00000078       $pdata$PosUpdateNonCumulativeRowValue 0000000180015078     ColumnFunctions.obj
 0004:00000084       $pdata$CreatePosTotalRowValue 0000000180015084     ColumnFunctions.obj
 0004:00000090       $pdata$0$CreatePosTotalRowValue 0000000180015090     ColumnFunctions.obj
 0004:0000009c       $pdata$2$CreatePosTotalRowValue 000000018001509c     ColumnFunctions.obj
 0004:000000a8       $pdata$3$CreatePosTotalRowValue 00000001800150a8     ColumnFunctions.obj
 0004:000000b4       $pdata$GetPosCellColor     00000001800150b4     ColumnFunctions.obj
 0004:000000c0       $pdata$1$GetPosCellColor   00000001800150c0     ColumnFunctions.obj
 0004:000000cc       $pdata$3$GetPosCellColor   00000001800150cc     ColumnFunctions.obj
 0004:000000d8       $pdata$5$GetPosCellColor   00000001800150d8     ColumnFunctions.obj
 0004:000000e4       $pdata$7$GetPosCellColor   00000001800150e4     ColumnFunctions.obj
 0004:000000f0       $pdata$CreatePosRowValue   00000001800150f0     ColumnFunctions.obj
 0004:000000fc       $pdata$GetPosColumnInfo    00000001800150fc     ColumnFunctions.obj
 0004:00000108       $pdata$0$GetPosColumnInfo  0000000180015108     ColumnFunctions.obj
 0004:00000114       $pdata$1$GetPosColumnInfo  0000000180015114     ColumnFunctions.obj
 0004:00000120       $pdata$ActUpdateNonCumulativeRowValue 0000000180015120     ColumnFunctions.obj
 0004:0000012c       $pdata$CreateActTotalRowValue 000000018001512c     ColumnFunctions.obj
 0004:00000138       $pdata$0$CreateActTotalRowValue 0000000180015138     ColumnFunctions.obj
 0004:00000144       $pdata$2$CreateActTotalRowValue 0000000180015144     ColumnFunctions.obj
 0004:00000150       $pdata$3$CreateActTotalRowValue 0000000180015150     ColumnFunctions.obj
 0004:0000015c       $pdata$CreateActRowValue   000000018001515c     ColumnFunctions.obj
 0004:00000168       $pdata$??_GSecurityIntRowValueDiff@@UEAAPEAXI@Z 0000000180015168     ColumnFunctions.obj
 0004:00000174       $pdata$??_GSecurityPriceRowValueDiffAbs@@UEAAPEAXI@Z 0000000180015174     ColumnFunctions.obj
 0004:00000180       $pdata$??_GSecurityUIntByIntDivisionFraction@@UEAAPEAXI@Z 0000000180015180     ColumnFunctions.obj
 0004:0000018c       $pdata$??_GSecurityIntByIntDivisionFraction@@UEAAPEAXI@Z 000000018001518c     ColumnFunctions.obj
 0004:00000198       $pdata$??_GSecurityPriceXIntAbs@@UEAAPEAXI@Z 0000000180015198     ColumnFunctions.obj
 0004:000001a4       $pdata$??_GPositionMoneyPerShareInventoryRowValue@@UEAAPEAXI@Z 00000001800151a4     ColumnFunctions.obj
 0004:000001b0       $pdata$??_GPositionSecurityUCharAsCharOrdinalRowValue@@UEAAPEAXI@Z 00000001800151b0     ColumnFunctions.obj
 0004:000001bc       $pdata$??_GPositionSecurityIntByIntDivision@@UEAAPEAXI@Z 00000001800151bc     ColumnFunctions.obj
 0004:000001c8       $pdata$??_GPositionSecurityPriceRowValue@@UEAAPEAXI@Z 00000001800151c8     ColumnFunctions.obj
 0004:000001d4       $pdata$??_GPositionSecurityUIntRowValue@@UEAAPEAXI@Z 00000001800151d4     ColumnFunctions.obj
 0004:000001e0       $pdata$??_GPositionUIntRowValueNull@@UEAAPEAXI@Z 00000001800151e0     ColumnFunctions.obj
 0004:000001ec       $pdata$??_GPositionSecurityUIntDevidedByUIntAlternateInventoryRowValue@@UEAAPEAXI@Z 00000001800151ec     ColumnFunctions.obj
 0004:000001f8       $pdata$??_GPositionSecurityUIntDevidedByUIntInventoryRowValue@@UEAAPEAXI@Z 00000001800151f8     ColumnFunctions.obj
 0004:00000204       $pdata$??_GAccountMoneyPerShareInventoryRowValue@@UEAAPEAXI@Z 0000000180015204     ColumnFunctions.obj
 0004:00000210       $pdata$??_GUIntRowValue@@UEAAPEAXI@Z 0000000180015210     ColumnFunctions.obj
 0004:0000021c       $pdata$??_GMoneyRowValue@@UEAAPEAXI@Z 000000018001521c     ColumnFunctions.obj
 0004:00000228       $pdata$ExtensionInitialize 0000000180015228     TakionAdditionalColumns.obj
 0004:00000234       $pdata$??0TakionAdditionalColumns@@QEAA@XZ 0000000180015234     TakionAdditionalColumns.obj
 0004:00000240       $pdata$??_GTakionAdditionalColumns@@UEAAPEAXI@Z 0000000180015240     TakionAdditionalColumns.obj
 0004:0000024c       $pdata$?InitInstance@TakionAdditionalColumns@@UEAAHXZ 000000018001524c     TakionAdditionalColumns.obj
 0004:00000258       $pdata$??1?$basic_string@DU?$char_traits@D@std@@V?$allocator@D@2@@std@@QEAA@XZ 0000000180015258     TakionAdditionalColumns.obj
 0004:00000264       $pdata$RawDllMain          0000000180015264     mfcs140:dllmodul.obj
 0004:00000270       $pdata$??_G_AFX_DLL_MODULE_STATE@@UEAAPEAXI@Z 0000000180015270     mfcs140:dllmodul.obj
 0004:0000027c       $pdata$?AfxWndProcDllStatic@@YA_JPEAUHWND__@@I_K_J@Z 000000018001527c     mfcs140:dllmodul.obj
 0004:00000288       $pdata$DllMain             0000000180015288     mfcs140:dllmodul.obj
 0004:00000294       $pdata$InternalDllMain     0000000180015294     mfcs140:dllmodul.obj
 0004:000002a0       $pdata$?AfxGetApp@@YAPEAVCWinApp@@XZ 00000001800152a0     mfcs140:dllmodulx.obj
 0004:000002b8       $pdata$??_Gtype_info@@UEAAPEAXI@Z 00000001800152b8     msvcrt:std_type_info_static.obj
 0004:000002c4       $pdata$__scrt_acquire_startup_lock 00000001800152c4     msvcrt:utility.obj
 0004:000002d0       $pdata$__scrt_dllmain_after_initialize_c 00000001800152d0     msvcrt:utility.obj
 0004:000002dc       $pdata$__scrt_dllmain_before_initialize_c 00000001800152dc     msvcrt:utility.obj
 0004:000002e8       $pdata$__scrt_dllmain_crt_thread_attach 00000001800152e8     msvcrt:utility.obj
 0004:000002f4       $pdata$__scrt_dllmain_crt_thread_detach 00000001800152f4     msvcrt:utility.obj
 0004:00000300       $pdata$__scrt_dllmain_exception_filter 0000000180015300     msvcrt:utility.obj
 0004:0000030c       $pdata$__scrt_dllmain_uninitialize_c 000000018001530c     msvcrt:utility.obj
 0004:00000318       $pdata$__scrt_dllmain_uninitialize_critical 0000000180015318     msvcrt:utility.obj
 0004:00000324       $pdata$__scrt_initialize_crt 0000000180015324     msvcrt:utility.obj
 0004:00000330       $pdata$__scrt_initialize_onexit_tables 0000000180015330     msvcrt:utility.obj
 0004:0000033c       $pdata$__scrt_is_nonwritable_in_current_image 000000018001533c     msvcrt:utility.obj
 0004:00000348       $pdata$__scrt_release_startup_lock 0000000180015348     msvcrt:utility.obj
 0004:00000354       $pdata$__scrt_uninitialize_crt 0000000180015354     msvcrt:utility.obj
 0004:00000360       $pdata$_onexit             0000000180015360     msvcrt:utility.obj
 0004:0000036c       $pdata$atexit              000000018001536c     msvcrt:utility.obj
 0004:00000378       $pdata$?__scrt_initialize_thread_safe_statics@@YAHXZ 0000000180015378     msvcrt:thread_safe_statics.obj
 0004:00000384       $pdata$?__scrt_uninitialize_thread_safe_statics@@YAXXZ 0000000180015384     msvcrt:thread_safe_statics.obj
 0004:00000390       $pdata$?dllmain_crt_dispatch@@YAHQEAUHINSTANCE__@@KQEAX@Z 0000000180015390     msvcrt:dll_dllmain.obj
 0004:0000039c       $pdata$?dllmain_crt_process_attach@@YAHQEAUHINSTANCE__@@QEAX@Z 000000018001539c     msvcrt:dll_dllmain.obj
 0004:000003a8       $pdata$?dllmain_crt_process_detach@@YAH_N@Z 00000001800153a8     msvcrt:dll_dllmain.obj
 0004:000003b4       $pdata$?dllmain_dispatch@@YAHQEAUHINSTANCE__@@KQEAX@Z 00000001800153b4     msvcrt:dll_dllmain.obj
 0004:000003c0       $pdata$?dllmain_raw@@YAHQEAUHINSTANCE__@@KQEAX@Z 00000001800153c0     msvcrt:dll_dllmain.obj
 0004:000003cc       $pdata$_DllMainCRTStartup  00000001800153cc     msvcrt:dll_dllmain.obj
 0004:000003d8       $pdata$__raise_securityfailure 00000001800153d8     msvcrt:gs_report.obj
 0004:000003e4       $pdata$__report_gsfailure  00000001800153e4     msvcrt:gs_report.obj
 0004:000003f0       $pdata$capture_previous_context 00000001800153f0     msvcrt:gs_report.obj
 0004:000003fc       $pdata$__isa_available_init 00000001800153fc     msvcrt:_cpu_disp_.obj
 0004:00000408       $pdata$__scrt_fastfail     0000000180015408     msvcrt:utility_desktop.obj
 0004:00000414       $pdata$__security_init_cookie 0000000180015414     msvcrt:gs_support.obj
 0004:00000420       $pdata$__scrt_initialize_default_local_stdio_options 0000000180015420     msvcrt:default_local_stdio_options.obj
 0004:0000042c       $pdata$_RTC_Initialize     000000018001542c     msvcrt:_initsect_.obj
 0004:00000438       $pdata$_RTC_Terminate      0000000180015438     msvcrt:_initsect_.obj
 0004:00000444       $pdata$__GSHandlerCheck    0000000180015444     msvcrt:_gshandler_.obj
 0004:00000450       $pdata$__GSHandlerCheckCommon 0000000180015450     msvcrt:_gshandler_.obj
 0004:0000045c       $pdata$??0CAtlBaseModule@ATL@@QEAA@XZ 000000018001545c     atls:atlbase.obj
 0004:00000468       $pdata$??1CAtlBaseModule@ATL@@QEAA@XZ 0000000180015468     atls:atlbase.obj
 0004:00000474       $pdata$_RawDllMainProxy    0000000180015474     mfcs140:rawdllmainproxy.obj
 0004:00000480       $pdata$_IsNonwritableInCurrentImage 0000000180015480     mfcs140:rawdllmainproxy.obj
 0004:00000498       $pdata$InternalDllMain$catch$2 0000000180015498     mfcs140:dllmodul.obj
 0004:000004a4       $pdata$_IsNonwritableInCurrentImage$filt$0 00000001800154a4     mfcs140:rawdllmainproxy.obj
 0004:000004a4       $pdata$__scrt_is_nonwritable_in_current_image$filt$0 00000001800154a4     msvcrt:utility.obj
 0004:000004b0       $pdata$?fin$0@?0??dllmain_crt_process_attach@@YAHQEAUHINSTANCE__@@QEAX@Z@4HA 00000001800154b0     msvcrt:dll_dllmain.obj
 0004:000004bc       $pdata$?fin$0@?0??dllmain_crt_process_detach@@YAH_N@Z@4HA 00000001800154bc     msvcrt:dll_dllmain.obj
 0004:000004c8       $pdata$?filt$0@?0??dllmain_dispatch@@YAHQEAUHINSTANCE__@@KQEAX@Z@4HA 00000001800154c8     msvcrt:dll_dllmain.obj
 0004:000004d4       $pdata$??__FtheApp@@YAXXZ  00000001800154d4     TakionAdditionalColumns.obj
 0005:00000000       __guard_fids__             0000000180016000     mfcs140:dllmodul.obj
 0005:00000004       __guard_fids__             0000000180016004     mfcs140:dllmodul.obj
 0005:00000008       __guard_fids_??__EafxModuleState@@YAXXZ 0000000180016008     mfcs140:dllmodul.obj
 0005:00000010       __guard_fids__             0000000180016010     mfcs140:dllmodul.obj
 0005:00000014       __guard_fids__             0000000180016014     msvcrt:std_type_info_static.obj
 0005:00000018       __guard_fids__             0000000180016018     msvcrt:thread_safe_statics.obj
 0005:0000001c       __guard_fids_?__scrt_initialize_thread_safe_statics@@YAHXZ 000000018001601c     msvcrt:thread_safe_statics.obj
 0005:00000020       __guard_fids_?dllmain_crt_process_attach@@YAHQEAUHINSTANCE__@@QEAX@Z 0000000180016020     msvcrt:dll_dllmain.obj
 0005:00000028       __guard_fids_?dllmain_dispatch@@YAHQEAUHINSTANCE__@@KQEAX@Z 0000000180016028     msvcrt:dll_dllmain.obj
 0005:0000002c       __guard_fids__             000000018001602c     msvcrt:guard_support.obj
 0005:00000030       __guard_fids__             0000000180016030     mfcs140:rawdllmainproxy.obj
 0007:000000a0       $R000000                   00000001800180a0     TakionAdditionalColumns.res
 0007:00000448       $R0003A8                   0000000180018448     TakionAdditionalColumns.res

 Exports

  ordinal    name

        3    ExtensionInitialize
        4    ExtensionTerminate
        5    GetExtensionVersion
        6    GetUtilsVersion
        7    GetUtilsHeaderVersion
        8    GetTakionUtilsVersion
        9    GetTakionUtilsHeaderVersion
       10    GetTakionGuiVersion
       11    GetTakionGuiHeaderVersion
       12    GetTakionDataVersion
       13    GetTakionDataHeaderVersion
       14    GetTakionLogVersion
       15    GetTakionLogHeaderVersion
       16    GetObserverVersion
       17    GetObserverHeaderVersion
       18    GetTakionExtensionDescription
       19    GetTakionExtensionProductName
       41    IsTraderIdValid
       42    GetMsAdditionalColumnCount
       43    GetMsColumnInfo
       44    CreateMsRowValue
       45    CreateMsTotalRowValue
       46    IsMsColumnPosition
       47    ApplyMsPosition
       48    InvalidateMsPositionColumns
       49    InvalidateMsPositionTotals
       50    UpdateMsPositionValues
       51    AdjustMsPositionTotals
       52    GetMsCellColor
       53    AdditionalMsLock
       54    AdditionalMsLockWait
       55    AdditionalMsUnlock
       56    MsUpdateNonCumulativeRowValue
       57    MsAddNonCumulativeRowValue
       58    MsRemoveNonCumulativeRowValue
       70    GetPosAdditionalColumnCount
       71    GetPosColumnInfo
       72    CreatePosRowValue
       73    CreatePosTotalRowValue
       74    GetPosCellColor
       75    PosUpdateNonCumulativeRowValue
       76    PosAddNonCumulativeRowValue
       77    PosRemoveNonCumulativeRowValue
      110    GetActAdditionalColumnCount
      111    GetActColumnInfo
      112    CreateActRowValue
      113    CreateActTotalRowValue
      114    GetActCellColor
      115    ActUpdateNonCumulativeRowValue
      116    ActAddNonCumulativeRowValue
      117    ActRemoveNonCumulativeRowValue
      170    GetOrdAdditionalColumnCount
      171    GetOrdColumnInfo
      172    CreateOrdRowValue
      173    CreateOrdTotalRowValue
      174    GetOrdCellColor
      175    OrdUpdateNonCumulativeRowValue
      176    OrdAddNonCumulativeRowValue
      177    OrdRemoveNonCumulativeRowValue
